
DE1_SoC_Audio.elf:     file format elf32-littlenios2
DE1_SoC_Audio.elf
architecture: nios2:r1, flags 0x00000112:
EXEC_P, HAS_SYMS, D_PAGED
start address 0x05080238

Program Header:
    LOAD off    0x00001000 vaddr 0x05080000 paddr 0x05080000 align 2**12
         filesz 0x00000020 memsz 0x00000020 flags r-x
    LOAD off    0x00001020 vaddr 0x05080020 paddr 0x05080020 align 2**12
         filesz 0x00016690 memsz 0x00016690 flags r-x
    LOAD off    0x000176b0 vaddr 0x050966b0 paddr 0x05098298 align 2**12
         filesz 0x00001be8 memsz 0x00001be8 flags rw-
    LOAD off    0x00019e80 vaddr 0x05099e80 paddr 0x05099e80 align 2**12
         filesz 0x00000000 memsz 0x0000018c flags rw-

Sections:
Idx Name          Size      VMA       LMA       File off  Algn
  0 .entry        00000020  05080000  05080000  00001000  2**5
                  CONTENTS, ALLOC, LOAD, READONLY, CODE
  1 .exceptions   00000218  05080020  05080020  00001020  2**2
                  CONTENTS, ALLOC, LOAD, READONLY, CODE
  2 .text         00015358  05080238  05080238  00001238  2**2
                  CONTENTS, ALLOC, LOAD, READONLY, CODE
  3 .rodata       00001120  05095590  05095590  00016590  2**2
                  CONTENTS, ALLOC, LOAD, READONLY, DATA
  4 .rwdata       00001be8  050966b0  05098298  000176b0  2**2
                  CONTENTS, ALLOC, LOAD, DATA, SMALL_DATA
  5 .bss          0000018c  05099e80  05099e80  00019e80  2**2
                  ALLOC, SMALL_DATA
  6 .sdram        00000000  00000000  00000000  00019298  2**0
                  CONTENTS
  7 .onchip_memory2 00000000  0509a00c  0509a00c  00019298  2**0
                  CONTENTS
  8 .comment      0000002d  00000000  00000000  00019298  2**0
                  CONTENTS, READONLY
  9 .debug_aranges 000011f8  00000000  00000000  000192c8  2**3
                  CONTENTS, READONLY, DEBUGGING, OCTETS
 10 .debug_info   000336a5  00000000  00000000  0001a4c0  2**0
                  CONTENTS, READONLY, DEBUGGING, OCTETS
 11 .debug_abbrev 0000ca28  00000000  00000000  0004db65  2**0
                  CONTENTS, READONLY, DEBUGGING, OCTETS
 12 .debug_line   0001af7d  00000000  00000000  0005a58d  2**0
                  CONTENTS, READONLY, DEBUGGING, OCTETS
 13 .debug_frame  00002ecc  00000000  00000000  0007550c  2**2
                  CONTENTS, READONLY, DEBUGGING, OCTETS
 14 .debug_str    00004552  00000000  00000000  000783d8  2**0
                  CONTENTS, READONLY, DEBUGGING, OCTETS
 15 .debug_loc    0002354e  00000000  00000000  0007c92a  2**0
                  CONTENTS, READONLY, DEBUGGING, OCTETS
 16 .debug_alt_sim_info 00000060  00000000  00000000  0009fe78  2**2
                  CONTENTS, READONLY, DEBUGGING, OCTETS
 17 .debug_ranges 000026b0  00000000  00000000  0009fed8  2**3
                  CONTENTS, READONLY, DEBUGGING, OCTETS
 18 .thread_model 00000003  00000000  00000000  000a62e0  2**0
                  CONTENTS, READONLY
 19 .cpu          0000000c  00000000  00000000  000a62e3  2**0
                  CONTENTS, READONLY
 20 .qsys         00000001  00000000  00000000  000a62ef  2**0
                  CONTENTS, READONLY
 21 .simulation_enabled 00000001  00000000  00000000  000a62f0  2**0
                  CONTENTS, READONLY
 22 .sysid_hash   00000004  00000000  00000000  000a62f1  2**0
                  CONTENTS, READONLY
 23 .sysid_base   00000004  00000000  00000000  000a62f5  2**0
                  CONTENTS, READONLY
 24 .sysid_time   00000004  00000000  00000000  000a62f9  2**0
                  CONTENTS, READONLY
 25 .stderr_dev   00000009  00000000  00000000  000a62fd  2**0
                  CONTENTS, READONLY
 26 .stdin_dev    00000009  00000000  00000000  000a6306  2**0
                  CONTENTS, READONLY
 27 .stdout_dev   00000009  00000000  00000000  000a630f  2**0
                  CONTENTS, READONLY
 28 .sopc_system_name 0000000a  00000000  00000000  000a6318  2**0
                  CONTENTS, READONLY
 29 .quartus_project_dir 00000010  00000000  00000000  000a6322  2**0
                  CONTENTS, READONLY
 30 .jdi          0000506c  00000000  00000000  000a6332  2**0
                  CONTENTS, READONLY
SYMBOL TABLE:
05080000 l    d  .entry	00000000 .entry
05080020 l    d  .exceptions	00000000 .exceptions
05080238 l    d  .text	00000000 .text
05095590 l    d  .rodata	00000000 .rodata
050966b0 l    d  .rwdata	00000000 .rwdata
05099e80 l    d  .bss	00000000 .bss
00000000 l    d  .sdram	00000000 .sdram
0509a00c l    d  .onchip_memory2	00000000 .onchip_memory2
00000000 l    d  .comment	00000000 .comment
00000000 l    d  .debug_aranges	00000000 .debug_aranges
00000000 l    d  .debug_info	00000000 .debug_info
00000000 l    d  .debug_abbrev	00000000 .debug_abbrev
00000000 l    d  .debug_line	00000000 .debug_line
00000000 l    d  .debug_frame	00000000 .debug_frame
00000000 l    d  .debug_str	00000000 .debug_str
00000000 l    d  .debug_loc	00000000 .debug_loc
00000000 l    d  .debug_alt_sim_info	00000000 .debug_alt_sim_info
00000000 l    d  .debug_ranges	00000000 .debug_ranges
00000000 l    df *ABS*	00000000 e:/DE1_SoC_Audio/software/DE1_SoC_Audio_bsp//obj/HAL/src/crt0.o
05080280 l       .text	00000000 alt_after_alt_main
00000000 l    df *ABS*	00000000 alt_irq_handler.c
00000000 l    df *ABS*	00000000 alt_instruction_exception_entry.c
00000000 l    df *ABS*	00000000 main.c
05099e84 l     O .bss	00000004 sum.1
05099e88 l     O .bss	00000002 cnt.0
00000000 l    df *ABS*	00000000 AUDIO.c
05099ebc l     O .bss	00000028 reg_file
00000000 l    df *ABS*	00000000 I2C.c
00000000 l    df *ABS*	00000000 LED.c
00000000 l    df *ABS*	00000000 SEG7.c
050966b0 l     O .rwdata	00000010 szMap
00000000 l    df *ABS*	00000000 debug.c
00000000 l    df *ABS*	00000000 lib2-divmod.c
00000000 l    df *ABS*	00000000 printf.c
00000000 l    df *ABS*	00000000 puts.c
00000000 l    df *ABS*	00000000 sprintf.c
00000000 l    df *ABS*	00000000 strlen.c
00000000 l    df *ABS*	00000000 vfprintf.c
05096080 l     O .rodata	00000010 blanks.1
05096070 l     O .rodata	00000010 zeroes.0
00000000 l    df *ABS*	00000000 vfprintf.c
05086ce4 l     F .text	000000c0 __sbprintf
050960a0 l     O .rodata	00000010 blanks.1
05096090 l     O .rodata	00000010 zeroes.0
00000000 l    df *ABS*	00000000 vsnprintf.c
00000000 l    df *ABS*	00000000 wsetup.c
00000000 l    df *ABS*	00000000 dtoa.c
05087094 l     F .text	000001fc quorem
00000000 l    df *ABS*	00000000 fflush.c
00000000 l    df *ABS*	00000000 findfp.c
05088ce4 l     F .text	00000008 __fp_lock
05088cf8 l     F .text	00000008 __fp_unlock
05088d00 l     F .text	00000168 __sinit.part.0
00000000 l    df *ABS*	00000000 mallocr.c
00000000 l    df *ABS*	00000000 fvwrite.c
00000000 l    df *ABS*	00000000 fwalk.c
00000000 l    df *ABS*	00000000 impure.c
050966c0 l     O .rwdata	00000424 impure_data
00000000 l    df *ABS*	00000000 localeconv.c
00000000 l    df *ABS*	00000000 makebuf.c
00000000 l    df *ABS*	00000000 mallocr.c
00000000 l    df *ABS*	00000000 memchr.c
00000000 l    df *ABS*	00000000 memcpy.c
00000000 l    df *ABS*	00000000 memmove.c
00000000 l    df *ABS*	00000000 memset.c
00000000 l    df *ABS*	00000000 mprec.c
0509614c l     O .rodata	0000000c p05.0
00000000 l    df *ABS*	00000000 mallocr.c
00000000 l    df *ABS*	00000000 sbrkr.c
00000000 l    df *ABS*	00000000 stdio.c
00000000 l    df *ABS*	00000000 vfprintf.c
05096280 l     O .rodata	00000010 blanks.1
05096270 l     O .rodata	00000010 zeroes.0
00000000 l    df *ABS*	00000000 vfprintf.c
0508d3c8 l     F .text	000000f4 __sprint_r.part.0
0508e824 l     F .text	000000c0 __sbprintf
050962a0 l     O .rodata	00000010 blanks.1
05096290 l     O .rodata	00000010 zeroes.0
00000000 l    df *ABS*	00000000 writer.c
00000000 l    df *ABS*	00000000 closer.c
00000000 l    df *ABS*	00000000 assert.c
00000000 l    df *ABS*	00000000 mallocr.c
00000000 l    df *ABS*	00000000 fclose.c
0508eacc l     F .text	000000c0 _fclose_r.part.0
00000000 l    df *ABS*	00000000 fiprintf.c
00000000 l    df *ABS*	00000000 fputwc.c
00000000 l    df *ABS*	00000000 fstatr.c
00000000 l    df *ABS*	00000000 int_errno.c
00000000 l    df *ABS*	00000000 isattyr.c
00000000 l    df *ABS*	00000000 locale.c
00000000 l    df *ABS*	00000000 lseekr.c
00000000 l    df *ABS*	00000000 mbtowc_r.c
00000000 l    df *ABS*	00000000 readr.c
00000000 l    df *ABS*	00000000 strcmp.c
00000000 l    df *ABS*	00000000 vfiprintfr_1.c
00000000 l    df *ABS*	00000000 wbuf.c
00000000 l    df *ABS*	00000000 wcrtomb.c
00000000 l    df *ABS*	00000000 wctomb_r.c
00000000 l    df *ABS*	00000000 abort.c
00000000 l    df *ABS*	00000000 ctype_.c
00000000 l    df *ABS*	00000000 signal.c
00000000 l    df *ABS*	00000000 signalr.c
00000000 l    df *ABS*	00000000 libgcc2.c
00000000 l    df *ABS*	00000000 libgcc2.c
00000000 l    df *ABS*	00000000 adddf3.c
00000000 l    df *ABS*	00000000 divdf3.c
00000000 l    df *ABS*	00000000 eqdf2.c
00000000 l    df *ABS*	00000000 gedf2.c
00000000 l    df *ABS*	00000000 ledf2.c
00000000 l    df *ABS*	00000000 muldf3.c
00000000 l    df *ABS*	00000000 subdf3.c
00000000 l    df *ABS*	00000000 unorddf2.c
00000000 l    df *ABS*	00000000 fixdfsi.c
00000000 l    df *ABS*	00000000 floatsidf.c
00000000 l    df *ABS*	00000000 floatunsidf.c
00000000 l    df *ABS*	00000000 libgcc2.c
00000000 l    df *ABS*	00000000 libgcc2.c
00000000 l    df *ABS*	00000000 alt_close.c
05092a34 l     F .text	0000003c alt_get_errno
00000000 l    df *ABS*	00000000 alt_dev.c
05092b40 l     F .text	0000002c alt_dev_null_write
00000000 l    df *ABS*	00000000 alt_errno.c
00000000 l    df *ABS*	00000000 alt_exit.c
00000000 l    df *ABS*	00000000 alt_fstat.c
05092ba4 l     F .text	0000003c alt_get_errno
00000000 l    df *ABS*	00000000 alt_getpid.c
00000000 l    df *ABS*	00000000 alt_irq_register.c
00000000 l    df *ABS*	00000000 alt_irq_vars.c
00000000 l    df *ABS*	00000000 alt_isatty.c
05092e30 l     F .text	0000003c alt_get_errno
00000000 l    df *ABS*	00000000 alt_kill.c
05092f10 l     F .text	0000003c alt_get_errno
00000000 l    df *ABS*	00000000 alt_load.c
05093078 l     F .text	00000068 alt_load_section
00000000 l    df *ABS*	00000000 alt_lseek.c
05093164 l     F .text	0000003c alt_get_errno
00000000 l    df *ABS*	00000000 alt_main.c
00000000 l    df *ABS*	00000000 alt_malloc_lock.c
00000000 l    df *ABS*	00000000 alt_read.c
05093338 l     F .text	0000003c alt_get_errno
00000000 l    df *ABS*	00000000 alt_release_fd.c
00000000 l    df *ABS*	00000000 alt_sbrk.c
0509828c l     O .rwdata	00000004 heap_end
00000000 l    df *ABS*	00000000 alt_usleep.c
00000000 l    df *ABS*	00000000 alt_write.c
050935b0 l     F .text	0000003c alt_get_errno
00000000 l    df *ABS*	00000000 alt_sys_init.c
050936e4 l     F .text	00000034 alt_dev_reg
05097200 l     O .rwdata	00001060 jtag_uart
00000000 l    df *ABS*	00000000 altera_avalon_jtag_uart_fd.c
00000000 l    df *ABS*	00000000 altera_avalon_jtag_uart_init.c
050939dc l     F .text	0000020c altera_avalon_jtag_uart_irq
05093be8 l     F .text	000000a0 altera_avalon_jtag_uart_timeout
00000000 l    df *ABS*	00000000 altera_avalon_jtag_uart_ioctl.c
00000000 l    df *ABS*	00000000 altera_avalon_jtag_uart_read.c
00000000 l    df *ABS*	00000000 altera_avalon_jtag_uart_write.c
00000000 l    df *ABS*	00000000 altera_avalon_timer_sc.c
0509422c l     F .text	0000007c alt_avalon_timer_sc_irq
00000000 l    df *ABS*	00000000 alt_alarm_start.c
00000000 l    df *ABS*	00000000 alt_busy_sleep.c
00000000 l    df *ABS*	00000000 alt_dcache_flush_all.c
00000000 l    df *ABS*	00000000 alt_dev_llist_insert.c
05094604 l     F .text	0000003c alt_get_errno
00000000 l    df *ABS*	00000000 alt_do_ctors.c
00000000 l    df *ABS*	00000000 alt_do_dtors.c
00000000 l    df *ABS*	00000000 alt_icache_flush_all.c
00000000 l    df *ABS*	00000000 alt_iic.c
00000000 l    df *ABS*	00000000 alt_iic_isr_register.c
00000000 l    df *ABS*	00000000 alt_io_redirect.c
05094a7c l     F .text	000000b0 alt_open_fd
00000000 l    df *ABS*	00000000 alt_open.c
05094ba8 l     F .text	0000003c alt_get_errno
05094be4 l     F .text	000000b8 alt_file_locked
00000000 l    df *ABS*	00000000 alt_tick.c
00000000 l    df *ABS*	00000000 altera_nios2_gen2_irq.c
00000000 l    df *ABS*	00000000 alt_find_dev.c
00000000 l    df *ABS*	00000000 alt_find_file.c
00000000 l    df *ABS*	00000000 alt_get_fd.c
00000000 l    df *ABS*	00000000 alt_icache_flush.c
00000000 l    df *ABS*	00000000 atexit.c
00000000 l    df *ABS*	00000000 exit.c
00000000 l    df *ABS*	00000000 memcmp.c
00000000 l    df *ABS*	00000000 __atexit.c
00000000 l    df *ABS*	00000000 __call_atexit.c
05099eb8 g     O .bss	00000004 alt_instruction_exception_handler
05080630 g     F .text	00000054 display_time_elapsed
0508b8d8 g     F .text	00000070 _mprec_log10
05081b3c g     F .text	00000128 I2C_Read
0508b9c4 g     F .text	00000060 __any_on
0508ef24 g     F .text	00000058 _isatty_r
05096158 g     O .rodata	00000028 __mprec_tinytens
05093274 g     F .text	0000007c alt_main
05082928 g     F .text	000000cc _puts_r
050803d0 g     F .text	0000005c button_monitor_isr
05099f0c g     O .bss	00000100 alt_irq
0508f070 g     F .text	00000064 _lseek_r
05098298 g       *ABS*	00000000 __flash_rwdata_start
0509164c g     F .text	00000080 .hidden __eqdf2
05080284 g     F .text	00000038 ui_is_mic_record
0509a00c g       *ABS*	00000000 __alt_heap_start
0508f9d8 g     F .text	00000060 _kill_r
05080d44 g     F .text	00000188 AUDIO_Init
050828f0 g     F .text	00000038 printf
0508f3a4 g     F .text	0000006c _wcrtomb_r
0508f548 g     F .text	00000098 _signal_r
05080f88 g     F .text	00000074 AUDIO_AdcEnableHighPassFilter
0508c0bc g     F .text	0000005c __sseek
05089038 g     F .text	00000010 __sinit
0508f244 g     F .text	00000148 __swbuf_r
0508ef7c g     F .text	00000074 _setlocale_r
05088e68 g     F .text	00000068 __sfmoreglue
05093314 g     F .text	00000024 __malloc_unlock
0508a6a8 g     F .text	0000012c memmove
05089024 g     F .text	00000014 _cleanup
05081810 g     F .text	000000f4 aduio_RegWrite
05081a10 g     F .text	0000002c AUDIO_FifoClear
0508a8c4 g     F .text	000000a4 _Balloc
050821d4 g     F .text	00000030 LED_AllOff
050916cc g     F .text	000000e8 .hidden __gtdf2
05094f9c g     F .text	00000024 altera_nios2_gen2_irq_init
050819c0 g     F .text	00000050 AUDIO_AdcFifoGetData
05081ee4 g     F .text	00000130 i2c_write
05080000 g     F .entry	0000001c __reset
05089a90 g     F .text	00000008 __localeconv_l
05080684 g     F .text	00000098 show_power
05080020 g       *ABS*	00000000 __flash_exceptions_start
0508eec4 g     F .text	00000060 _fstat_r
05099e98 g     O .bss	00000004 errno
0508c034 g     F .text	00000008 __seofread
0508c2e0 g     F .text	000010e8 ___svfiprintf_internal_r
05099ea8 g     O .bss	00000004 alt_argv
050a0260 g       *ABS*	00000000 _gp
05093580 g     F .text	00000030 usleep
05092c90 g     F .text	00000020 getpid
05080884 g     F .text	00000068 show_menu
05097080 g     O .rwdata	00000180 alt_fd_list
05094fc0 g     F .text	00000090 alt_find_dev
0508a5a8 g     F .text	00000100 memcpy
0508216c g     F .text	00000038 LED_Display
05088cec g     F .text	0000000c _cleanup_r
05092898 g     F .text	000000b8 .hidden __floatsidf
0508042c g     F .text	0000007c button_monitor_start
05094b2c g     F .text	0000007c alt_io_redirect
050917b4 g     F .text	000000e8 .hidden __ltdf2
05095590 g       *ABS*	00000000 __DTOR_END__
050829f4 g     F .text	00000010 puts
05095288 g     F .text	00000098 alt_exception_cause_generated_bad_addr
0508b830 g     F .text	000000a8 __ratio
0508e808 g     F .text	0000001c __vfiprintf_internal
050804a8 g     F .text	00000188 init_audio
05093de4 g     F .text	00000220 altera_avalon_jtag_uart_read
050828c0 g     F .text	00000030 _printf_r
05082800 g     F .text	00000064 .hidden __udivsi3
05092e6c g     F .text	000000a4 isatty
0508f5e0 g     F .text	000000c4 _raise_r
05081700 g     F .text	00000088 AUDIO_EnableByPass
0508e9a0 g     F .text	00000064 __assert_func
050961a8 g     O .rodata	000000c8 __mprec_tens
05086da4 g     F .text	000000c0 vsnprintf
050951f8 g     F .text	00000090 alt_icache_flush
05081c64 g     F .text	0000017c I2C_MultipleRead
05099e94 g     O .bss	00000004 __malloc_top_pad
0508fa38 g     F .text	00000004 _getpid_r
050814e0 g     F .text	00000110 AUDIO_SetLineInVol
05089a98 g     F .text	0000000c _localeconv_r
0508ad10 g     F .text	000000b0 __i2b
05089498 g     F .text	000004b8 __sfvwrite_r
0508f6a4 g     F .text	000000bc __sigtramp_r
05082278 g     F .text	00000060 SEG7_Clear
0508bf88 g     F .text	00000058 _sbrk_r
05082684 g     F .text	00000088 myprintf_dword_array
0508f124 g     F .text	00000064 _read_r
05098280 g     O .rwdata	00000004 alt_max_fd
0508eb8c g     F .text	00000070 _fclose_r
05088c60 g     F .text	00000084 fflush
050810b4 g     F .text	000000d8 AUDIO_DacEnableZeroCross
05099e90 g     O .bss	00000004 __malloc_max_sbrked_mem
05092cb0 g     F .text	00000180 alt_irq_register
05090500 g     F .text	000008f0 .hidden __adddf3
0508b5c4 g     F .text	00000108 __b2d
0508ffcc g     F .text	00000534 .hidden __umoddi3
050931a0 g     F .text	000000d4 lseek
05098260 g     O .rwdata	00000004 _global_impure_ptr
0508ba24 g     F .text	00000564 _realloc_r
0509a00c g       *ABS*	00000000 __bss_end
05094994 g     F .text	000000e8 alt_iic_isr_register
05094e94 g     F .text	00000108 alt_tick
0508fa3c g     F .text	00000590 .hidden __udivdi3
0508ee28 g     F .text	00000024 _fputwc_r
05096180 g     O .rodata	00000028 __mprec_bigtens
0508aac4 g     F .text	00000138 __s2b
0508f4d4 g     F .text	00000018 abort
05092950 g     F .text	00000090 .hidden __floatunsidf
05080f14 g     F .text	00000074 AUDIO_MicBoost
0508b2e4 g     F .text	00000058 __mcmp
05089058 g     F .text	00000014 __fp_lock_all
05094948 g     F .text	0000004c alt_ic_irq_enabled
05081a3c g     F .text	00000100 I2C_Write
05082338 g     F .text	00000070 SEG7_Number
05094df0 g     F .text	000000a4 alt_alarm_stop
05099ea0 g     O .bss	00000004 alt_irq_active
050800fc g     F .exceptions	000000c8 alt_irq_handler
05097058 g     O .rwdata	00000028 alt_dev_null
05081de0 g     F .text	0000008c i2c_start
050945b8 g     F .text	0000004c alt_dcache_flush_all
0508abfc g     F .text	00000064 __hi0bits
05092818 g     F .text	00000080 .hidden __fixdfsi
05098298 g       *ABS*	00000000 __ram_rwdata_end
05098278 g     O .rwdata	00000008 alt_dev_list
050935ec g     F .text	000000f8 write
050966b0 g       *ABS*	00000000 __ram_rodata_end
05092be0 g     F .text	000000b0 fstat
05092f4c g     F .text	0000012c kill
050917b4 g     F .text	000000e8 .hidden __ledf2
05082590 g     F .text	0000006c myprintf
0508b014 g     F .text	00000148 __pow5mult
0508d4d4 g     F .text	00001334 ___vfiprintf_internal_r
05082864 g     F .text	0000005c .hidden __umodsi3
05081788 g     F .text	00000088 AUDIO_EnableSiteTone
0509a00c g       *ABS*	00000000 end
050821a4 g     F .text	00000030 LED_AllOn
0509391c g     F .text	000000c0 altera_avalon_jtag_uart_init
050801c4 g     F .exceptions	00000074 alt_instruction_exception_entry
05095590 g       *ABS*	00000000 __CTOR_LIST__
050ce200 g       *ABS*	00000000 __alt_stack_pointer
050942a8 g     F .text	00000084 alt_avalon_timer_sc_init
050929e0 g     F .text	00000054 .hidden __clzsi2
05094004 g     F .text	00000228 altera_avalon_jtag_uart_write
05089048 g     F .text	00000004 __sfp_lock_acquire
0508a4d8 g     F .text	000000d0 memchr
05084bd4 g     F .text	000020f4 ___vfprintf_internal_r
05082a04 g     F .text	00000054 _sprintf_r
0508919c g     F .text	000002fc _free_r
05096404 g     O .rodata	00000180 _ctype_b
0508eff0 g     F .text	0000000c __locale_mb_cur_max
05095470 g     F .text	00000120 __call_exitprocs
05098268 g     O .rwdata	00000004 __malloc_sbrk_base
05080238 g     F .text	0000004c _start
05099eb0 g     O .bss	00000004 _alt_tick_rate
0508b15c g     F .text	00000188 __lshift
05099eb4 g     O .bss	00000004 _alt_nticks
0508f81c g     F .text	000000a0 signal
05093374 g     F .text	000000fc read
05093754 g     F .text	00000064 alt_sys_init
0508c120 g     F .text	000001c0 __ssprint_r
050953e0 g     F .text	00000090 __register_exitproc
0508118c g     F .text	00000088 AUDIO_DacEnableSoftMute
0508adc0 g     F .text	00000254 __multiply
05093c88 g     F .text	00000068 altera_avalon_jtag_uart_close
050966b0 g       *ABS*	00000000 __ram_rwdata_start
05095590 g       *ABS*	00000000 __ram_rodata_start
05099ee4 g     O .bss	00000028 __malloc_current_mallinfo
0508b6cc g     F .text	00000164 __d2b
050802f4 g     F .text	00000038 ui_is_dac_zero_cross
050937b8 g     F .text	00000060 altera_avalon_jtag_uart_read_fd
05095158 g     F .text	000000a0 alt_get_fd
05094460 g     F .text	00000158 alt_busy_sleep
0508e948 g     F .text	00000058 _close_r
05095368 g     F .text	00000078 memcmp
05093878 g     F .text	00000050 altera_avalon_jtag_uart_close_fd
0509a00c g       *ABS*	00000000 __alt_stack_base
050938c8 g     F .text	00000054 altera_avalon_jtag_uart_ioctl_fd
05086f30 g     F .text	00000164 __swsetup_r
0508071c g     F .text	00000058 init
05090df0 g     F .text	0000085c .hidden __divdf3
05088ed0 g     F .text	00000154 __sfp
0508b948 g     F .text	0000007c __copybits
05080ffc g     F .text	000000b8 AUDIO_DacDeemphasisControl
05096ae4 g     O .rwdata	00000408 __malloc_av_
05089054 g     F .text	00000004 __sinit_lock_release
05086e64 g     F .text	000000cc _vsnprintf_r
05081e6c g     F .text	00000078 i2c_stop
0509189c g     F .text	00000674 .hidden __muldf3
0508bfe0 g     F .text	00000054 __sread
050822d8 g     F .text	00000060 SEG7_Full
05095050 g     F .text	00000108 alt_find_file
05082474 g     F .text	000000e8 SEG7_Decimal
05094640 g     F .text	000000a8 alt_dev_llist_insert
050932f0 g     F .text	00000024 __malloc_lock
050934c8 g     F .text	000000b8 sbrk
05082b54 g     F .text	00002080 ___svfprintf_internal_r
05081374 g     F .text	0000008c AUDIO_SetInputSource
05088c00 g     F .text	00000060 _fflush_r
0508ea18 g     F .text	000000b4 _calloc_r
05080ecc g     F .text	00000048 AUDIO_InterfaceActive
05099e80 g       *ABS*	00000000 __bss_start
0508a7d4 g     F .text	000000f0 memset
050808ec g     F .text	00000458 main
05099eac g     O .bss	00000004 alt_envp
05099e8c g     O .bss	00000004 __malloc_max_total_mem
05093818 g     F .text	00000060 altera_avalon_jtag_uart_write_fd
05082014 g     F .text	00000158 i2c_read
0508f38c g     F .text	00000018 __swbuf
05099e80 g     O .bss	00000004 record_sample_rate
0508c118 g     F .text	00000008 __sclose
050ce200 g       *ABS*	00000000 __alt_heap_limit
0508ebfc g     F .text	00000070 fclose
05087290 g     F .text	00001748 _dtoa_r
05089cf8 g     F .text	000007e0 _malloc_r
0508f4a4 g     F .text	00000030 __ascii_wctomb
05098284 g     O .rwdata	00000004 alt_errno
0508ec6c g     F .text	00000020 _fiprintf_r
0508f8bc g     F .text	00000060 _init_signal
05089950 g     F .text	00000098 _fwalk
0508032c g     F .text	000000a4 ui_get_sample_rate
0508f0d4 g     F .text	0000000c _mbtowc_r
0508270c g     F .text	00000080 .hidden __divsi3
05089080 g     F .text	0000011c _malloc_trim_r
05095590 g       *ABS*	00000000 __CTOR_END__
0508129c g     F .text	000000d8 AUDIO_LineInMute
0508f188 g     F .text	000000b8 strcmp
05081214 g     F .text	00000088 AUDIO_MicMute
05095590 g       *ABS*	00000000 __flash_rodata_start
05095590 g       *ABS*	00000000 __DTOR_LIST__
0509164c g     F .text	00000080 .hidden __nedf2
05093718 g     F .text	0000003c alt_irq_init
05093470 g     F .text	00000058 alt_release_fd
05082a58 g     F .text	00000064 sprintf
05096584 g     O .rodata	00000100 .hidden __clz_tab
050823a8 g     F .text	000000cc SEG7_Hex
0508255c g     F .text	00000034 debug_output
05099e9c g     O .bss	00000004 _PathLocale
05095320 g     F .text	00000014 atexit
05080774 g     F .text	00000110 dump_record_data
0508e8e4 g     F .text	00000064 _write_r
0508effc g     F .text	00000074 setlocale
05098264 g     O .rwdata	00000004 _impure_ptr
05099ea4 g     O .bss	00000004 alt_argc
050889d8 g     F .text	00000228 __sflush_r
0509474c g     F .text	00000064 _do_dtors
05081988 g     F .text	00000038 AUDIO_AdcFifoNotEmpty
05080020 g       .exceptions	00000000 alt_irq_entry
0508f0e0 g     F .text	00000044 __ascii_mbtowc
0508b568 g     F .text	0000005c __ulp
0508906c g     F .text	00000014 __fp_unlock_all
050802bc g     F .text	00000038 ui_is_mic_boost
0508193c g     F .text	0000004c AUDIO_DacFifoSetData
05098270 g     O .rwdata	00000008 alt_fs_list
050825fc g     F .text	00000088 myprintf_hex_array
05080020 g       *ABS*	00000000 __ram_exceptions_start
05081400 g     F .text	000000e0 AUDIO_SetSampleRate
05089aa4 g     F .text	0000000c localeconv
05080000 g       *ABS*	00000000 __alt_mem_onchip_memory2
05089c60 g     F .text	00000098 __swhatbuf_r
050947e4 g     F .text	00000050 alt_ic_isr_register
05098298 g       *ABS*	00000000 _edata
0509a00c g       *ABS*	00000000 _end
050815f0 g     F .text	00000110 AUDIO_SetLineOutVol
0508ecc4 g     F .text	00000164 __fputwc
05080238 g       *ABS*	00000000 __ram_exceptions_end
05093cf0 g     F .text	000000f4 altera_avalon_jtag_uart_ioctl
050948bc g     F .text	0000008c alt_ic_irq_disable
0508c03c g     F .text	00000080 __swrite
0509826c g     O .rwdata	00000004 __malloc_trim_threshold
05095334 g     F .text	00000034 exit
05082204 g     F .text	00000074 LED_LightCount
0508ec8c g     F .text	00000038 fiprintf
0508f240 g     F .text	00000004 _vfiprintf_r
050899e8 g     F .text	000000a8 _fwalk_reent
0508b33c g     F .text	0000022c __mdiff
0508278c g     F .text	00000074 .hidden __modsi3
050ce200 g       *ABS*	00000000 __alt_data_end
05080020 g     F .exceptions	00000000 alt_exception
0508904c g     F .text	00000004 __sfp_lock_release
00000000 g       *ABS*	00000000 __alt_mem_sdram
05096300 g     O .rodata	00000101 _ctype_
050927c4 g     F .text	00000054 .hidden __unorddf2
05092b6c g     F .text	00000038 _exit
0509432c g     F .text	00000134 alt_alarm_start
05089ab0 g     F .text	000001b0 __smakebuf_r
05082abc g     F .text	00000098 strlen
0508f4ec g     F .text	0000005c _init_signal_r
05094c9c g     F .text	00000154 open
05081904 g     F .text	00000038 AUDIO_DacFifoNotFull
050916cc g     F .text	000000e8 .hidden __gedf2
0508ea04 g     F .text	00000014 __assert
0508d4bc g     F .text	00000018 __sprint_r
050947b0 g     F .text	00000034 alt_icache_flush_all
05098288 g     O .rwdata	00000004 alt_priority_mask
05094834 g     F .text	00000088 alt_ic_irq_enable
05086cc8 g     F .text	0000001c __vfprintf_internal
0508f498 g     F .text	0000000c _wctomb_r
05091f10 g     F .text	000008b4 .hidden __subdf3
0508ac60 g     F .text	000000b0 __lo0bits
05098290 g     O .rwdata	00000008 alt_alarm_list
050946e8 g     F .text	00000064 _do_ctors
0508f91c g     F .text	000000bc __sigtramp
0508f410 g     F .text	00000088 wcrtomb
05092a70 g     F .text	000000d0 close
05096eec g     O .rwdata	0000016c __global_locale
050930e0 g     F .text	00000084 alt_load
0508ee4c g     F .text	00000078 fputwc
0508f760 g     F .text	000000bc raise
05089050 g     F .text	00000004 __sinit_lock_acquire
0508a98c g     F .text	00000138 __multadd
050955d4 g     O .rodata	00000800 szMenu
0508a968 g     F .text	00000024 _Bfree



Disassembly of section .entry:

05080000 <__reset>:
#if NIOS2_ICACHE_SIZE > 0 && defined(ALT_ALLOW_CODE_AT_RESET) && (!defined(ALT_SIM_OPTIMIZE) || defined(NIOS2_ECC_PRESENT))
    /* Assume the instruction cache size is always a power of two. */
#if NIOS2_ICACHE_SIZE > 0x8000
    movhi r2, %hi(NIOS2_ICACHE_SIZE)
#else
    movui r2, NIOS2_ICACHE_SIZE
 5080000:	00840014 	movui	r2,4096
#endif

0:
    initi r2
 5080004:	1001483a 	initi	r2
    addi r2, r2, -NIOS2_ICACHE_LINE_SIZE
 5080008:	10bff804 	addi	r2,r2,-32
    bgt r2, zero, 0b
 508000c:	00bffd16 	blt	zero,r2,5080004 <__reset+0x4>
 * Jump to the _start entry point in the .text section if reset code
 * is allowed or if optimizing for RTL simulation.
 */
#if defined(ALT_ALLOW_CODE_AT_RESET) || defined(ALT_SIM_OPTIMIZE)
    /* Jump to the _start entry point in the .text section. */
    movhi r1, %hi(_start)
 5080010:	00414234 	movhi	at,1288
    ori r1, r1, %lo(_start)
 5080014:	08408e14 	ori	at,at,568
    jmp r1
 5080018:	0800683a 	jmp	at
 508001c:	00000000 	call	0 <__alt_mem_sdram>

Disassembly of section .exceptions:

05080020 <alt_exception>:

#else /* ALT_EXCEPTION_STACK disabled */
        /* 
         * Reserve space on normal stack for registers about to be pushed.
         */
        addi  sp, sp, -76
 5080020:	deffed04 	addi	sp,sp,-76
         * documentation for details).
         *
         * Leave a gap in the stack frame at 4(sp) for the muldiv handler to
         * store zero into.
         */
        stw   ra,  0(sp)
 5080024:	dfc00015 	stw	ra,0(sp)
        stw   r1,   8(sp)
 5080028:	d8400215 	stw	at,8(sp)
        stw   r2,  12(sp)
 508002c:	d8800315 	stw	r2,12(sp)
        stw   r3,  16(sp)
 5080030:	d8c00415 	stw	r3,16(sp)
        stw   r4,  20(sp)
 5080034:	d9000515 	stw	r4,20(sp)
        stw   r5,  24(sp)
 5080038:	d9400615 	stw	r5,24(sp)
        stw   r6,  28(sp)
 508003c:	d9800715 	stw	r6,28(sp)
        stw   r7,  32(sp)
 5080040:	d9c00815 	stw	r7,32(sp)
        rdctl r5, estatus   /* Read early to avoid usage stall */
 5080044:	000b307a 	rdctl	r5,estatus
        stw   r8,  36(sp)
 5080048:	da000915 	stw	r8,36(sp)
        stw   r9,  40(sp)
 508004c:	da400a15 	stw	r9,40(sp)
        stw   r10, 44(sp)
 5080050:	da800b15 	stw	r10,44(sp)
        stw   r11, 48(sp)
 5080054:	dac00c15 	stw	r11,48(sp)
        stw   r12, 52(sp)
 5080058:	db000d15 	stw	r12,52(sp)
        stw   r13, 56(sp)
 508005c:	db400e15 	stw	r13,56(sp)
        stw   r14, 60(sp)
 5080060:	db800f15 	stw	r14,60(sp)
        stw   r15, 64(sp)
 5080064:	dbc01015 	stw	r15,64(sp)
        /*
         * ea-4 contains the address of the instruction being executed
         * when the exception occured. For interrupt exceptions, we will
         * will be re-issue the isntruction. Store it in 72(sp)
         */
        stw   r5,  68(sp)  /* estatus */
 5080068:	d9401115 	stw	r5,68(sp)
        addi  r15, ea, -4  /* instruction that caused exception */
 508006c:	ebffff04 	addi	r15,ea,-4
        stw   r15,  72(sp)
 5080070:	dbc01215 	stw	r15,72(sp)
#else
        /*
         * Test to see if the exception was a software exception or caused 
         * by an external interrupt, and vector accordingly.
         */
        rdctl r4, ipending
 5080074:	0009313a 	rdctl	r4,ipending
        andi  r2, r5, 1
 5080078:	2880004c 	andi	r2,r5,1
        beq   r2, zero, .Lnot_irq
 508007c:	10000326 	beq	r2,zero,508008c <alt_exception+0x6c>
        beq   r4, zero, .Lnot_irq
 5080080:	20000226 	beq	r4,zero,508008c <alt_exception+0x6c>
        /*
         * Now that all necessary registers have been preserved, call 
         * alt_irq_handler() to process the interrupts.
         */

        call alt_irq_handler
 5080084:	50800fc0 	call	50800fc <alt_irq_handler>

        .section .exceptions.irqreturn, "xa"

        br    .Lexception_exit
 5080088:	00000706 	br	50800a8 <alt_exception+0x88>
         * upon completion, so we write ea (address of instruction *after*
         * the one where the exception occured) into 72(sp). The actual
         * instruction that caused the exception is written in r2, which these
         * handlers will utilize.
         */
        stw ea, 72(sp) /* EA is PC+4 so will skip over instruction causing exception */
 508008c:	df401215 	stw	ea,72(sp)
.Lunknown_16bit:
        addi.n r4, r4, 2 /* Need PC+2 to skip over instruction causing exception */
        stw r4, 72(sp)

#else /* CDX is not Enabled and all instructions are 32bits */
        ldw r2, -4(ea) /* Instruction value that caused exception */
 5080090:	e8bfff17 	ldw	r2,-4(ea)
         * debugger is present) or go into an infinite loop since the
         * handling behavior is undefined; in that case we will not return here.
         */

        /* Load exception-causing address as first argument (r4) */
        addi   r4, ea, -4
 5080094:	e93fff04 	addi	r4,ea,-4

        /* Call the instruction-exception entry */
        call   alt_instruction_exception_entry
 5080098:	50801c40 	call	50801c4 <alt_instruction_exception_entry>
         * instruction
         *
         * Return code was 0: Skip. The instruction after the exception is
         * already stored in 72(sp).
         */
        bne   r2, r0, .Lexception_exit
 508009c:	1000021e 	bne	r2,zero,50800a8 <alt_exception+0x88>

        /*
         * Otherwise, modify 72(sp) to re-issue the instruction that caused the
         * exception.
         */
        addi  r15, ea, -4  /* instruction that caused exception */
 50800a0:	ebffff04 	addi	r15,ea,-4
        stw   r15,  72(sp)
 50800a4:	dbc01215 	stw	r15,72(sp)
        /* 
         * Restore the saved registers, so that all general purpose registers 
         * have been restored to their state at the time the interrupt occured.
         */

        ldw   r5,  68(sp)
 50800a8:	d9401117 	ldw	r5,68(sp)
        ldw   ea,  72(sp)  /* This becomes the PC once eret is executed */
 50800ac:	df401217 	ldw	ea,72(sp)
        ldw   ra,   0(sp)
 50800b0:	dfc00017 	ldw	ra,0(sp)

        wrctl estatus, r5
 50800b4:	2801707a 	wrctl	estatus,r5

        ldw   r1,   8(sp)
 50800b8:	d8400217 	ldw	at,8(sp)
        ldw   r2,  12(sp)
 50800bc:	d8800317 	ldw	r2,12(sp)
        ldw   r3,  16(sp)
 50800c0:	d8c00417 	ldw	r3,16(sp)
        ldw   r4,  20(sp)
 50800c4:	d9000517 	ldw	r4,20(sp)
        ldw   r5,  24(sp)
 50800c8:	d9400617 	ldw	r5,24(sp)
        ldw   r6,  28(sp)
 50800cc:	d9800717 	ldw	r6,28(sp)
        ldw   r7,  32(sp)
 50800d0:	d9c00817 	ldw	r7,32(sp)

#if defined(ALT_EXCEPTION_STACK) && defined(ALT_STACK_CHECK)
        ldw   et, %gprel(alt_exception_old_stack_limit)(gp)
#endif

        ldw   r8,  36(sp)
 50800d4:	da000917 	ldw	r8,36(sp)
        ldw   r9,  40(sp)
 50800d8:	da400a17 	ldw	r9,40(sp)
        ldw   r10, 44(sp)
 50800dc:	da800b17 	ldw	r10,44(sp)
        ldw   r11, 48(sp)
 50800e0:	dac00c17 	ldw	r11,48(sp)
        ldw   r12, 52(sp)
 50800e4:	db000d17 	ldw	r12,52(sp)
        ldw   r13, 56(sp)
 50800e8:	db400e17 	ldw	r13,56(sp)
        ldw   r14, 60(sp)
 50800ec:	db800f17 	ldw	r14,60(sp)
        ldw   r15, 64(sp)
 50800f0:	dbc01017 	ldw	r15,64(sp)
        stw   et, %gprel(alt_stack_limit_value)(gp)
        stw   zero, %gprel(alt_exception_old_stack_limit)(gp)
#endif /* ALT_STACK_CHECK */
        ldw   sp,  76(sp)
#else /* ALT_EXCEPTION_STACK disabled */
        addi  sp, sp, 76
 50800f4:	dec01304 	addi	sp,sp,76

        /*
         * Return to the interrupted instruction.
         */

        eret
 50800f8:	ef80083a 	eret

050800fc <alt_irq_handler>:
 * instruction is present if the macro ALT_CI_INTERRUPT_VECTOR defined.
 */

void alt_irq_handler (void) __attribute__ ((section (".exceptions")));
void alt_irq_handler (void)
{
 50800fc:	defff904 	addi	sp,sp,-28
 5080100:	dfc00615 	stw	ra,24(sp)
 5080104:	df000515 	stw	fp,20(sp)
 5080108:	df000504 	addi	fp,sp,20
  
  /*
   * Notify the operating system that we are at interrupt level.
   */ 
  
  ALT_OS_INT_ENTER();
 508010c:	0001883a 	nop
#ifndef NIOS2_EIC_PRESENT
static ALT_INLINE alt_u32 ALT_ALWAYS_INLINE alt_irq_pending (void)
{
  alt_u32 active;

  NIOS2_READ_IPENDING (active);
 5080110:	0005313a 	rdctl	r2,ipending
 5080114:	e0bffc15 	stw	r2,-16(fp)

  return active;
 5080118:	e0bffc17 	ldw	r2,-16(fp)
   * Consider the case where the high priority interupt is asserted during
   * the interrupt entry sequence for a lower priority interrupt to see why
   * this is the case.
   */

  active = alt_irq_pending ();
 508011c:	e0bfff15 	stw	r2,-4(fp)

  do
  {
    i = 0;
 5080120:	e03ffd15 	stw	zero,-12(fp)
    mask = 1;
 5080124:	00800044 	movi	r2,1
 5080128:	e0bffe15 	stw	r2,-8(fp)
     * called to clear the interrupt condition.
     */

    do
    {
      if (active & mask)
 508012c:	e0ffff17 	ldw	r3,-4(fp)
 5080130:	e0bffe17 	ldw	r2,-8(fp)
 5080134:	1884703a 	and	r2,r3,r2
 5080138:	10001126 	beq	r2,zero,5080180 <alt_irq_handler+0x84>
      { 
#ifdef ALT_ENHANCED_INTERRUPT_API_PRESENT
        alt_irq[i].handler(alt_irq[i].context); 
 508013c:	e0bffd17 	ldw	r2,-12(fp)
 5080140:	100690fa 	slli	r3,r2,3
 5080144:	008142b4 	movhi	r2,1290
 5080148:	1885883a 	add	r2,r3,r2
 508014c:	10e7c317 	ldw	r3,-24820(r2)
 5080150:	e0bffd17 	ldw	r2,-12(fp)
 5080154:	100890fa 	slli	r4,r2,3
 5080158:	008142b4 	movhi	r2,1290
 508015c:	2085883a 	add	r2,r4,r2
 5080160:	10a7c417 	ldw	r2,-24816(r2)
 5080164:	1009883a 	mov	r4,r2
 5080168:	183ee83a 	callr	r3
#else
        alt_irq[i].handler(alt_irq[i].context, i); 
#endif
        break;
 508016c:	0001883a 	nop
  NIOS2_READ_IPENDING (active);
 5080170:	0005313a 	rdctl	r2,ipending
 5080174:	e0bffb15 	stw	r2,-20(fp)
  return active;
 5080178:	e0bffb17 	ldw	r2,-20(fp)
 508017c:	00000706 	br	508019c <alt_irq_handler+0xa0>
      }
      mask <<= 1;
 5080180:	e0bffe17 	ldw	r2,-8(fp)
 5080184:	1085883a 	add	r2,r2,r2
 5080188:	e0bffe15 	stw	r2,-8(fp)
      i++;
 508018c:	e0bffd17 	ldw	r2,-12(fp)
 5080190:	10800044 	addi	r2,r2,1
 5080194:	e0bffd15 	stw	r2,-12(fp)
      if (active & mask)
 5080198:	003fe406 	br	508012c <alt_irq_handler+0x30>

    } while (1);

    active = alt_irq_pending ();
 508019c:	e0bfff15 	stw	r2,-4(fp)
    
  } while (active);
 50801a0:	e0bfff17 	ldw	r2,-4(fp)
 50801a4:	103fde1e 	bne	r2,zero,5080120 <alt_irq_handler+0x24>

  /*
   * Notify the operating system that interrupt processing is complete.
   */ 

  ALT_OS_INT_EXIT();
 50801a8:	0001883a 	nop
}
 50801ac:	0001883a 	nop
 50801b0:	e037883a 	mov	sp,fp
 50801b4:	dfc00117 	ldw	ra,4(sp)
 50801b8:	df000017 	ldw	fp,0(sp)
 50801bc:	dec00204 	addi	sp,sp,8
 50801c0:	f800283a 	ret

050801c4 <alt_instruction_exception_entry>:
 * that handler if it has been registered. Absent a handler, it will
 * break break or hang as discussed below.
 */
int 
alt_instruction_exception_entry (alt_u32 exception_pc)
{
 50801c4:	defffb04 	addi	sp,sp,-20
 50801c8:	dfc00415 	stw	ra,16(sp)
 50801cc:	df000315 	stw	fp,12(sp)
 50801d0:	df000304 	addi	fp,sp,12
 50801d4:	e13ffd15 	stw	r4,-12(fp)
 * NIOS2_EXCEPTION_CAUSE_NOT_PRESENT. Your handling routine should
 * check the validity of the cause argument before proceeding.
 */
#ifdef NIOS2_HAS_EXTRA_EXCEPTION_INFO
  /* Get exception cause & "badaddr" */
  NIOS2_READ_EXCEPTION(cause);
 50801d8:	000531fa 	rdctl	r2,exception
 50801dc:	e0bfff15 	stw	r2,-4(fp)
  cause = ( (cause & NIOS2_EXCEPTION_REG_CAUSE_MASK) >>
 50801e0:	e0bfff17 	ldw	r2,-4(fp)
 50801e4:	1004d0ba 	srli	r2,r2,2
 50801e8:	108007cc 	andi	r2,r2,31
 50801ec:	e0bfff15 	stw	r2,-4(fp)
              NIOS2_EXCEPTION_REG_CAUSE_OFST );

  NIOS2_READ_BADADDR(badaddr);
 50801f0:	0005333a 	rdctl	r2,badaddr
 50801f4:	e0bffe15 	stw	r2,-8(fp)
#else
  cause = NIOS2_EXCEPTION_CAUSE_NOT_PRESENT;
  badaddr = 0;
#endif /* NIOS2_HAS_EXTRA_EXCEPTION_INFO */

  if(alt_instruction_exception_handler) {
 50801f8:	d0a71617 	ldw	r2,-25512(gp)
 50801fc:	10000726 	beq	r2,zero,508021c <alt_instruction_exception_entry+0x58>
     * Call handler. Its return value indicates whether the exception-causing
     * instruction should be re-issued. The code that called us,
     * alt_eceptions_entry.S, will look at this value and adjust the ea
     * register as necessary
     */
    return alt_instruction_exception_handler(cause, exception_pc, badaddr);
 5080200:	d0a71617 	ldw	r2,-25512(gp)
 5080204:	e0ffff17 	ldw	r3,-4(fp)
 5080208:	e1bffe17 	ldw	r6,-8(fp)
 508020c:	e17ffd17 	ldw	r5,-12(fp)
 5080210:	1809883a 	mov	r4,r3
 5080214:	103ee83a 	callr	r2
 5080218:	00000206 	br	5080224 <alt_instruction_exception_entry+0x60>
   *    (a peripheral which negates its interrupt output before its
   *    interrupt handler has been executed will cause spurious interrupts)
   */
  else {
#ifdef NIOS2_HAS_DEBUG_STUB
    NIOS2_BREAK();
 508021c:	003da03a 	break	0
      ;
#endif /* NIOS2_HAS_DEBUG_STUB */
  }

  /* We should not get here. Remove compiler warning. */
  return NIOS2_EXCEPTION_RETURN_REISSUE_INST;
 5080220:	0005883a 	mov	r2,zero
}
 5080224:	e037883a 	mov	sp,fp
 5080228:	dfc00117 	ldw	ra,4(sp)
 508022c:	df000017 	ldw	fp,0(sp)
 5080230:	dec00204 	addi	sp,sp,8
 5080234:	f800283a 	ret

Disassembly of section .text:

05080238 <_start>:

    /* Assume the data cache size is always a power of two. */
#if NIOS2_DCACHE_SIZE > 0x8000
    movhi r2, %hi(NIOS2_DCACHE_SIZE)
#else
    movui r2, NIOS2_DCACHE_SIZE
 5080238:	00820014 	movui	r2,2048
#endif

0:
    initd 0(r2)
 508023c:	10000033 	initd	0(r2)
#ifdef NIOS2_ECC_PRESENT
    addi r2, r2, -4
#else
    addi r2, r2, -NIOS2_DCACHE_LINE_SIZE
 5080240:	10bff804 	addi	r2,r2,-32
#endif
    bgt r2, zero, 0b
 5080244:	00bffd16 	blt	zero,r2,508023c <_start+0x4>

    /*
     * Now that the caches are initialized, set up the stack pointer and global pointer.
     * The values provided by the linker are assumed to be correctly aligned.
     */
    movhi sp, %hi(__alt_stack_pointer)
 5080248:	06c14334 	movhi	sp,1292
    ori sp, sp, %lo(__alt_stack_pointer)
 508024c:	def88014 	ori	sp,sp,57856
    movhi gp, %hi(_gp)
 5080250:	068142b4 	movhi	gp,1290
    ori gp, gp, %lo(_gp)
 5080254:	d6809814 	ori	gp,gp,608
 */
#ifndef ALT_SIM_OPTIMIZE
    /* Log that the BSS is about to be cleared. */
    ALT_LOG_PUTS(alt_log_msg_bss)

    movhi r2, %hi(__bss_start)
 5080258:	00814274 	movhi	r2,1289
    ori r2, r2, %lo(__bss_start)
 508025c:	10a7a014 	ori	r2,r2,40576

    movhi r3, %hi(__bss_end)
 5080260:	00c14274 	movhi	r3,1289
    ori r3, r3, %lo(__bss_end)
 5080264:	18e80314 	ori	r3,r3,40972

    beq r2, r3, 1f
 5080268:	10c00326 	beq	r2,r3,5080278 <_start+0x40>

0:
    stw zero, (r2)
 508026c:	10000015 	stw	zero,0(r2)
    addi r2, r2, 4
 5080270:	10800104 	addi	r2,r2,4
    bltu r2, r3, 0b
 5080274:	10fffd36 	bltu	r2,r3,508026c <_start+0x34>
     * section aren't defined until alt_load() has been called).
     */
    mov   et, zero
#endif

    call alt_load
 5080278:	50930e00 	call	50930e0 <alt_load>

    /* Log that alt_main is about to be called. */
    ALT_LOG_PUTS(alt_log_msg_alt_main)

    /* Call the C entry point. It should never return. */
    call alt_main
 508027c:	50932740 	call	5093274 <alt_main>

05080280 <alt_after_alt_main>:

    /* Wait in infinite loop in case alt_main does return. */
alt_after_alt_main:
    br alt_after_alt_main
 5080280:	003fff06 	br	5080280 <alt_after_alt_main>

05080284 <ui_is_mic_record>:
int record_sample_rate;

///////////////////////////////////////////////////////////////////////////////
//////////// Internal function implement(body) ////////////////////////////////
///////////////////////////////////////////////////////////////////////////////
bool ui_is_mic_record(void){
 5080284:	defffe04 	addi	sp,sp,-8
 5080288:	df000115 	stw	fp,4(sp)
 508028c:	df000104 	addi	fp,sp,4
    bool bMicRecord;
    bMicRecord = (IORD(PIO_SW_BASE, 0) & 0x01)?FALSE:TRUE;
 5080290:	00810034 	movhi	r2,1024
 5080294:	10801037 	ldwio	r2,64(r2)
 5080298:	1080004c 	andi	r2,r2,1
 508029c:	1005003a 	cmpeq	r2,r2,zero
 50802a0:	10803fcc 	andi	r2,r2,255
 50802a4:	e0bfff15 	stw	r2,-4(fp)
    return bMicRecord;
 50802a8:	e0bfff17 	ldw	r2,-4(fp)
}
 50802ac:	e037883a 	mov	sp,fp
 50802b0:	df000017 	ldw	fp,0(sp)
 50802b4:	dec00104 	addi	sp,sp,4
 50802b8:	f800283a 	ret

050802bc <ui_is_mic_boost>:

bool ui_is_mic_boost(void){
 50802bc:	defffe04 	addi	sp,sp,-8
 50802c0:	df000115 	stw	fp,4(sp)
 50802c4:	df000104 	addi	fp,sp,4
    bool bMicBoost;
    bMicBoost = (IORD(PIO_SW_BASE, 0) & (0x01 << 1))?TRUE:FALSE;
 50802c8:	00810034 	movhi	r2,1024
 50802cc:	10801037 	ldwio	r2,64(r2)
 50802d0:	1080008c 	andi	r2,r2,2
 50802d4:	1004c03a 	cmpne	r2,r2,zero
 50802d8:	10803fcc 	andi	r2,r2,255
 50802dc:	e0bfff15 	stw	r2,-4(fp)
    return bMicBoost;
 50802e0:	e0bfff17 	ldw	r2,-4(fp)
}
 50802e4:	e037883a 	mov	sp,fp
 50802e8:	df000017 	ldw	fp,0(sp)
 50802ec:	dec00104 	addi	sp,sp,4
 50802f0:	f800283a 	ret

050802f4 <ui_is_dac_zero_cross>:

bool ui_is_dac_zero_cross(void){
 50802f4:	defffe04 	addi	sp,sp,-8
 50802f8:	df000115 	stw	fp,4(sp)
 50802fc:	df000104 	addi	fp,sp,4
    bool bZeroCross;
    bZeroCross = (IORD(PIO_SW_BASE, 0) & (0x01 << 2))?TRUE:FALSE;
 5080300:	00810034 	movhi	r2,1024
 5080304:	10801037 	ldwio	r2,64(r2)
 5080308:	1080010c 	andi	r2,r2,4
 508030c:	1004c03a 	cmpne	r2,r2,zero
 5080310:	10803fcc 	andi	r2,r2,255
 5080314:	e0bfff15 	stw	r2,-4(fp)
    return bZeroCross;
 5080318:	e0bfff17 	ldw	r2,-4(fp)
}
 508031c:	e037883a 	mov	sp,fp
 5080320:	df000017 	ldw	fp,0(sp)
 5080324:	dec00104 	addi	sp,sp,4
 5080328:	f800283a 	ret

0508032c <ui_get_sample_rate>:

int ui_get_sample_rate(void){
 508032c:	defffd04 	addi	sp,sp,-12
 5080330:	df000215 	stw	fp,8(sp)
 5080334:	df000204 	addi	fp,sp,8
    int sample_rate = 96000;
 5080338:	00800074 	movhi	r2,1
 508033c:	109dc004 	addi	r2,r2,30464
 5080340:	e0bfff15 	stw	r2,-4(fp)
    alt_u32 mask;
    mask = IORD(PIO_SW_BASE, 0);
 5080344:	00810034 	movhi	r2,1024
 5080348:	10801037 	ldwio	r2,64(r2)
 508034c:	e0bffe15 	stw	r2,-8(fp)
    mask = (mask >> 3) & 0x07;
 5080350:	e0bffe17 	ldw	r2,-8(fp)
 5080354:	1004d0fa 	srli	r2,r2,3
 5080358:	108001cc 	andi	r2,r2,7
 508035c:	e0bffe15 	stw	r2,-8(fp)
    if (mask == 1)
 5080360:	e0bffe17 	ldw	r2,-8(fp)
 5080364:	10800058 	cmpnei	r2,r2,1
 5080368:	1000031e 	bne	r2,zero,5080378 <ui_get_sample_rate+0x4c>
        sample_rate = 48000;
 508036c:	00aee014 	movui	r2,48000
 5080370:	e0bfff15 	stw	r2,-4(fp)
 5080374:	00001106 	br	50803bc <ui_get_sample_rate+0x90>
    else if (mask == 2)
 5080378:	e0bffe17 	ldw	r2,-8(fp)
 508037c:	10800098 	cmpnei	r2,r2,2
 5080380:	1000031e 	bne	r2,zero,5080390 <ui_get_sample_rate+0x64>
        sample_rate = 44100;
 5080384:	00ab1114 	movui	r2,44100
 5080388:	e0bfff15 	stw	r2,-4(fp)
 508038c:	00000b06 	br	50803bc <ui_get_sample_rate+0x90>
    else if (mask == 3)
 5080390:	e0bffe17 	ldw	r2,-8(fp)
 5080394:	108000d8 	cmpnei	r2,r2,3
 5080398:	1000031e 	bne	r2,zero,50803a8 <ui_get_sample_rate+0x7c>
        sample_rate = 32000;
 508039c:	009f4004 	movi	r2,32000
 50803a0:	e0bfff15 	stw	r2,-4(fp)
 50803a4:	00000506 	br	50803bc <ui_get_sample_rate+0x90>
    else if (mask == 4)
 50803a8:	e0bffe17 	ldw	r2,-8(fp)
 50803ac:	10800118 	cmpnei	r2,r2,4
 50803b0:	1000021e 	bne	r2,zero,50803bc <ui_get_sample_rate+0x90>
        sample_rate = 8000;
 50803b4:	0087d004 	movi	r2,8000
 50803b8:	e0bfff15 	stw	r2,-4(fp)
    return sample_rate;
 50803bc:	e0bfff17 	ldw	r2,-4(fp)
}
 50803c0:	e037883a 	mov	sp,fp
 50803c4:	df000017 	ldw	fp,0(sp)
 50803c8:	dec00104 	addi	sp,sp,4
 50803cc:	f800283a 	ret

050803d0 <button_monitor_isr>:

void button_monitor_isr(void* context, alt_u32 id){
 50803d0:	defffc04 	addi	sp,sp,-16
 50803d4:	df000315 	stw	fp,12(sp)
 50803d8:	df000304 	addi	fp,sp,12
 50803dc:	e13ffe15 	stw	r4,-8(fp)
 50803e0:	e17ffd15 	stw	r5,-12(fp)
    volatile alt_u32* pPressedMask = (volatile alt_u32*)context;
 50803e4:	e0bffe17 	ldw	r2,-8(fp)
 50803e8:	e0bfff15 	stw	r2,-4(fp)
    *pPressedMask |= IORD_ALTERA_AVALON_PIO_EDGE_CAP(PIO_KEY_BASE) & 0x0F;  // 4-button
 50803ec:	00810034 	movhi	r2,1024
 50803f0:	10801b37 	ldwio	r2,108(r2)
 50803f4:	10c003cc 	andi	r3,r2,15
 50803f8:	e0bfff17 	ldw	r2,-4(fp)
 50803fc:	10800017 	ldw	r2,0(r2)
 5080400:	10c6b03a 	or	r3,r2,r3
 5080404:	e0bfff17 	ldw	r2,-4(fp)
 5080408:	10c00015 	stw	r3,0(r2)

    IOWR_ALTERA_AVALON_PIO_EDGE_CAP(PIO_KEY_BASE,0);
 508040c:	0007883a 	mov	r3,zero
 5080410:	00810034 	movhi	r2,1024
 5080414:	10c01b35 	stwio	r3,108(r2)
}
 5080418:	0001883a 	nop
 508041c:	e037883a 	mov	sp,fp
 5080420:	df000017 	ldw	fp,0(sp)
 5080424:	dec00104 	addi	sp,sp,4
 5080428:	f800283a 	ret

0508042c <button_monitor_start>:

bool button_monitor_start(volatile alt_u32 *pPressedMask){
 508042c:	defffc04 	addi	sp,sp,-16
 5080430:	dfc00315 	stw	ra,12(sp)
 5080434:	df000215 	stw	fp,8(sp)
 5080438:	df000204 	addi	fp,sp,8
 508043c:	e13ffe15 	stw	r4,-8(fp)
    bool bSuccess = TRUE;
 5080440:	00800044 	movi	r2,1
 5080444:	e0bfff15 	stw	r2,-4(fp)
    // enable interrupt
    IOWR_ALTERA_AVALON_PIO_IRQ_MASK(PIO_KEY_BASE, 0x0F); // 4-button
 5080448:	00c003c4 	movi	r3,15
 508044c:	00810034 	movhi	r2,1024
 5080450:	10c01a35 	stwio	r3,104(r2)

    // Reset the edge catpure register
    IOWR_ALTERA_AVALON_PIO_EDGE_CAP(PIO_KEY_BASE,0);
 5080454:	0007883a 	mov	r3,zero
 5080458:	00810034 	movhi	r2,1024
 508045c:	10c01b35 	stwio	r3,108(r2)

    // register IRQ
    if (bSuccess && (alt_irq_register(PIO_KEY_IRQ, (void *)pPressedMask, button_monitor_isr) != 0)){
 5080460:	e0bfff17 	ldw	r2,-4(fp)
 5080464:	10000a26 	beq	r2,zero,5080490 <button_monitor_start+0x64>
 5080468:	01814234 	movhi	r6,1288
 508046c:	3180f404 	addi	r6,r6,976
 5080470:	e17ffe17 	ldw	r5,-8(fp)
 5080474:	01000084 	movi	r4,2
 5080478:	5092cb00 	call	5092cb0 <alt_irq_register>
 508047c:	10000426 	beq	r2,zero,5080490 <button_monitor_start+0x64>
        printf("[SW-MONITOR]register button IRQ fail\r\n");
 5080480:	01014274 	movhi	r4,1289
 5080484:	21156404 	addi	r4,r4,21904
 5080488:	50829f40 	call	50829f4 <puts>
        bSuccess = FALSE;
 508048c:	e03fff15 	stw	zero,-4(fp)
    }

    return bSuccess;
 5080490:	e0bfff17 	ldw	r2,-4(fp)
}
 5080494:	e037883a 	mov	sp,fp
 5080498:	dfc00117 	ldw	ra,4(sp)
 508049c:	df000017 	ldw	fp,0(sp)
 50804a0:	dec00204 	addi	sp,sp,8
 50804a4:	f800283a 	ret

050804a8 <init_audio>:




bool init_audio(AUDIO_FUNC audio_func){
 50804a8:	defffb04 	addi	sp,sp,-20
 50804ac:	dfc00415 	stw	ra,16(sp)
 50804b0:	df000315 	stw	fp,12(sp)
 50804b4:	df000304 	addi	fp,sp,12
 50804b8:	e13ffd15 	stw	r4,-12(fp)
    bool bSuccess = TRUE;
 50804bc:	00800044 	movi	r2,1
 50804c0:	e0bfff15 	stw	r2,-4(fp)
    AUDIO_InterfaceActive(FALSE);
 50804c4:	0009883a 	mov	r4,zero
 50804c8:	5080ecc0 	call	5080ecc <AUDIO_InterfaceActive>
    //
    if (audio_func == MIC_RECORD){
 50804cc:	e0bffd17 	ldw	r2,-12(fp)
 50804d0:	10000f1e 	bne	r2,zero,5080510 <init_audio+0x68>
        bool bMicBoost;
        bMicBoost = ui_is_mic_boost();
 50804d4:	50802bc0 	call	50802bc <ui_is_mic_boost>
 50804d8:	e0bffe15 	stw	r2,-8(fp)
        AUDIO_SetInputSource(SOURCE_MIC);
 50804dc:	0009883a 	mov	r4,zero
 50804e0:	50813740 	call	5081374 <AUDIO_SetInputSource>
        AUDIO_DacEnableSoftMute(TRUE);
 50804e4:	01000044 	movi	r4,1
 50804e8:	508118c0 	call	508118c <AUDIO_DacEnableSoftMute>
        AUDIO_AdcEnableHighPassFilter(FALSE);
 50804ec:	0009883a 	mov	r4,zero
 50804f0:	5080f880 	call	5080f88 <AUDIO_AdcEnableHighPassFilter>
        AUDIO_MicBoost(bMicBoost);
 50804f4:	e13ffe17 	ldw	r4,-8(fp)
 50804f8:	5080f140 	call	5080f14 <AUDIO_MicBoost>
        AUDIO_MicMute(FALSE);
 50804fc:	0009883a 	mov	r4,zero
 5080500:	50812140 	call	5081214 <AUDIO_MicMute>
        AUDIO_LineInMute(TRUE);
 5080504:	01000044 	movi	r4,1
 5080508:	508129c0 	call	508129c <AUDIO_LineInMute>
 508050c:	00002606 	br	50805a8 <init_audio+0x100>
    }else if (audio_func == LINEIN_RECORD){
 5080510:	e0bffd17 	ldw	r2,-12(fp)
 5080514:	10800058 	cmpnei	r2,r2,1
 5080518:	10000e1e 	bne	r2,zero,5080554 <init_audio+0xac>
        AUDIO_SetInputSource(SOURCE_LINEIN);
 508051c:	01000044 	movi	r4,1
 5080520:	50813740 	call	5081374 <AUDIO_SetInputSource>
        AUDIO_DacEnableSoftMute(TRUE);
 5080524:	01000044 	movi	r4,1
 5080528:	508118c0 	call	508118c <AUDIO_DacEnableSoftMute>
        AUDIO_AdcEnableHighPassFilter(FALSE);
 508052c:	0009883a 	mov	r4,zero
 5080530:	5080f880 	call	5080f88 <AUDIO_AdcEnableHighPassFilter>
        AUDIO_MicMute(TRUE);
 5080534:	01000044 	movi	r4,1
 5080538:	50812140 	call	5081214 <AUDIO_MicMute>
        AUDIO_LineInMute(FALSE);
 508053c:	0009883a 	mov	r4,zero
 5080540:	508129c0 	call	508129c <AUDIO_LineInMute>
        AUDIO_SetLineInVol(0x17, 0x17);  // max 0x1F, min:0; 0x17: 0dB (assume max input is 2.0v rms)
 5080544:	014005c4 	movi	r5,23
 5080548:	010005c4 	movi	r4,23
 508054c:	50814e00 	call	50814e0 <AUDIO_SetLineInVol>
 5080550:	00001506 	br	50805a8 <init_audio+0x100>
    }else if (audio_func == LINEOUT_PLAY){
 5080554:	e0bffd17 	ldw	r2,-12(fp)
 5080558:	10800098 	cmpnei	r2,r2,2
 508055c:	1000121e 	bne	r2,zero,50805a8 <init_audio+0x100>
        AUDIO_DacEnableSoftMute(TRUE);
 5080560:	01000044 	movi	r4,1
 5080564:	508118c0 	call	508118c <AUDIO_DacEnableSoftMute>
        AUDIO_MicBoost(FALSE);
 5080568:	0009883a 	mov	r4,zero
 508056c:	5080f140 	call	5080f14 <AUDIO_MicBoost>
        AUDIO_MicMute(TRUE);
 5080570:	01000044 	movi	r4,1
 5080574:	50812140 	call	5081214 <AUDIO_MicMute>
        AUDIO_LineInMute(FALSE);
 5080578:	0009883a 	mov	r4,zero
 508057c:	508129c0 	call	508129c <AUDIO_LineInMute>
        AUDIO_DacEnableSoftMute(FALSE);
 5080580:	0009883a 	mov	r4,zero
 5080584:	508118c0 	call	508118c <AUDIO_DacEnableSoftMute>
        //AUDIO_DacDeemphasisControl(DEEMPHASIS_48K);
        AUDIO_DacEnableZeroCross(ui_is_dac_zero_cross());
 5080588:	50802f40 	call	50802f4 <ui_is_dac_zero_cross>
 508058c:	1009883a 	mov	r4,r2
 5080590:	50810b40 	call	50810b4 <AUDIO_DacEnableZeroCross>
        AUDIO_SetLineOutVol(LINEOUT_DEFUALT_VOL, LINEOUT_DEFUALT_VOL); // max 7F, min: 30, 0x79: 0 db
 5080594:	01401e44 	movi	r5,121
 5080598:	01001e44 	movi	r4,121
 508059c:	50815f00 	call	50815f0 <AUDIO_SetLineOutVol>
        AUDIO_DacEnableSoftMute(FALSE);
 50805a0:	0009883a 	mov	r4,zero
 50805a4:	508118c0 	call	508118c <AUDIO_DacEnableSoftMute>
    }

    if (record_sample_rate == 8000)
 50805a8:	d0a70817 	ldw	r2,-25568(gp)
 50805ac:	1087d018 	cmpnei	r2,r2,8000
 50805b0:	1000031e 	bne	r2,zero,50805c0 <init_audio+0x118>
        AUDIO_SetSampleRate(RATE_ADC8K_DAC8K);
 50805b4:	010000c4 	movi	r4,3
 50805b8:	50814000 	call	5081400 <AUDIO_SetSampleRate>
 50805bc:	00001406 	br	5080610 <init_audio+0x168>
    else if (record_sample_rate == 32000)
 50805c0:	d0a70817 	ldw	r2,-25568(gp)
 50805c4:	109f4018 	cmpnei	r2,r2,32000
 50805c8:	1000031e 	bne	r2,zero,50805d8 <init_audio+0x130>
        AUDIO_SetSampleRate(RATE_ADC32K_DAC32K);
 50805cc:	01000104 	movi	r4,4
 50805d0:	50814000 	call	5081400 <AUDIO_SetSampleRate>
 50805d4:	00000e06 	br	5080610 <init_audio+0x168>
    else if (record_sample_rate == 48000)
 50805d8:	d0e70817 	ldw	r3,-25568(gp)
 50805dc:	00aee014 	movui	r2,48000
 50805e0:	1880031e 	bne	r3,r2,50805f0 <init_audio+0x148>
        AUDIO_SetSampleRate(RATE_ADC48K_DAC48K);
 50805e4:	0009883a 	mov	r4,zero
 50805e8:	50814000 	call	5081400 <AUDIO_SetSampleRate>
 50805ec:	00000806 	br	5080610 <init_audio+0x168>
    else if (record_sample_rate == 44100)
 50805f0:	d0e70817 	ldw	r3,-25568(gp)
 50805f4:	00ab1114 	movui	r2,44100
 50805f8:	1880031e 	bne	r3,r2,5080608 <init_audio+0x160>
        AUDIO_SetSampleRate(RATE_ADC44K1_DAC44K1);
 50805fc:	01000184 	movi	r4,6
 5080600:	50814000 	call	5081400 <AUDIO_SetSampleRate>
 5080604:	00000206 	br	5080610 <init_audio+0x168>
    else
        AUDIO_SetSampleRate(RATE_ADC96K_DAC96K);
 5080608:	01000144 	movi	r4,5
 508060c:	50814000 	call	5081400 <AUDIO_SetSampleRate>
    //
    AUDIO_InterfaceActive(TRUE);
 5080610:	01000044 	movi	r4,1
 5080614:	5080ecc0 	call	5080ecc <AUDIO_InterfaceActive>

    return bSuccess;
 5080618:	e0bfff17 	ldw	r2,-4(fp)
}
 508061c:	e037883a 	mov	sp,fp
 5080620:	dfc00117 	ldw	ra,4(sp)
 5080624:	df000017 	ldw	fp,0(sp)
 5080628:	dec00204 	addi	sp,sp,8
 508062c:	f800283a 	ret

05080630 <display_time_elapsed>:


void display_time_elapsed(alt_u32 sample_num){
 5080630:	defffc04 	addi	sp,sp,-16
 5080634:	dfc00315 	stw	ra,12(sp)
 5080638:	df000215 	stw	fp,8(sp)
 508063c:	df000204 	addi	fp,sp,8
 5080640:	e13ffe15 	stw	r4,-8(fp)
    // assume sample rate is 48K
    alt_u32 time;
    time = sample_num * 100 / record_sample_rate;
 5080644:	e0bffe17 	ldw	r2,-8(fp)
 5080648:	10801924 	muli	r2,r2,100
 508064c:	d0e70817 	ldw	r3,-25568(gp)
 5080650:	180b883a 	mov	r5,r3
 5080654:	1009883a 	mov	r4,r2
 5080658:	50828000 	call	5082800 <__udivsi3>
 508065c:	e0bfff15 	stw	r2,-4(fp)
    SEG7_Decimal(time, 0x04);
 5080660:	01400104 	movi	r5,4
 5080664:	e13fff17 	ldw	r4,-4(fp)
 5080668:	50824740 	call	5082474 <SEG7_Decimal>
}
 508066c:	0001883a 	nop
 5080670:	e037883a 	mov	sp,fp
 5080674:	dfc00117 	ldw	ra,4(sp)
 5080678:	df000017 	ldw	fp,0(sp)
 508067c:	dec00204 	addi	sp,sp,8
 5080680:	f800283a 	ret

05080684 <show_power>:

void show_power(short sample){
 5080684:	defffc04 	addi	sp,sp,-16
 5080688:	dfc00315 	stw	ra,12(sp)
 508068c:	df000215 	stw	fp,8(sp)
 5080690:	df000204 	addi	fp,sp,8
 5080694:	2005883a 	mov	r2,r4
 5080698:	e0bffe0d 	sth	r2,-8(fp)
    static alt_u32 sum = 0;
    static alt_u16   cnt = 0;
    alt_u16 power = 0;
 508069c:	e03fff8d 	sth	zero,-2(fp)
    sum += (sample >= 0)?sample:-sample;
 50806a0:	e0bffe0f 	ldh	r2,-8(fp)
 50806a4:	10000216 	blt	r2,zero,50806b0 <show_power+0x2c>
 50806a8:	e0bffe0f 	ldh	r2,-8(fp)
 50806ac:	00000206 	br	50806b8 <show_power+0x34>
 50806b0:	e0bffe0f 	ldh	r2,-8(fp)
 50806b4:	0085c83a 	sub	r2,zero,r2
 50806b8:	d0e70917 	ldw	r3,-25564(gp)
 50806bc:	10c5883a 	add	r2,r2,r3
 50806c0:	d0a70915 	stw	r2,-25564(gp)
    cnt++;
 50806c4:	d0a70a0b 	ldhu	r2,-25560(gp)
 50806c8:	10800044 	addi	r2,r2,1
 50806cc:	d0a70a0d 	sth	r2,-25560(gp)
    if (cnt == 32){
 50806d0:	d0a70a0b 	ldhu	r2,-25560(gp)
 50806d4:	10bfffcc 	andi	r2,r2,65535
 50806d8:	10800818 	cmpnei	r2,r2,32
 50806dc:	1000091e 	bne	r2,zero,5080704 <show_power+0x80>
        power = sum >> 13;
 50806e0:	d0a70917 	ldw	r2,-25564(gp)
 50806e4:	1004d37a 	srli	r2,r2,13
 50806e8:	e0bfff8d 	sth	r2,-2(fp)
        LED_LightCount(power);
 50806ec:	e0bfff8b 	ldhu	r2,-2(fp)
 50806f0:	10803fcc 	andi	r2,r2,255
 50806f4:	1009883a 	mov	r4,r2
 50806f8:	50822040 	call	5082204 <LED_LightCount>
        sum = 0;
 50806fc:	d0270915 	stw	zero,-25564(gp)
        cnt = 0;
 5080700:	d0270a0d 	sth	zero,-25560(gp)
    }
}
 5080704:	0001883a 	nop
 5080708:	e037883a 	mov	sp,fp
 508070c:	dfc00117 	ldw	ra,4(sp)
 5080710:	df000017 	ldw	fp,0(sp)
 5080714:	dec00204 	addi	sp,sp,8
 5080718:	f800283a 	ret

0508071c <init>:


bool init(void){
 508071c:	defffd04 	addi	sp,sp,-12
 5080720:	dfc00215 	stw	ra,8(sp)
 5080724:	df000115 	stw	fp,4(sp)
 5080728:	df000104 	addi	fp,sp,4
    bool bSuccess = TRUE;
 508072c:	00800044 	movi	r2,1
 5080730:	e0bfff15 	stw	r2,-4(fp)

    SEG7_Clear();
 5080734:	50822780 	call	5082278 <SEG7_Clear>


    SEG7_Decimal(0x00000000, 0x00);
 5080738:	000b883a 	mov	r5,zero
 508073c:	0009883a 	mov	r4,zero
 5080740:	50824740 	call	5082474 <SEG7_Decimal>

    // prepare
    if (!AUDIO_Init()){
 5080744:	5080d440 	call	5080d44 <AUDIO_Init>
 5080748:	1000041e 	bne	r2,zero,508075c <init+0x40>

        printf("Audio Init Error\r\n");
 508074c:	01014274 	movhi	r4,1289
 5080750:	21156e04 	addi	r4,r4,21944
 5080754:	50829f40 	call	50829f4 <puts>
        bSuccess = FALSE;
 5080758:	e03fff15 	stw	zero,-4(fp)
    }


    return bSuccess;
 508075c:	e0bfff17 	ldw	r2,-4(fp)
}
 5080760:	e037883a 	mov	sp,fp
 5080764:	dfc00117 	ldw	ra,4(sp)
 5080768:	df000017 	ldw	fp,0(sp)
 508076c:	dec00204 	addi	sp,sp,8
 5080770:	f800283a 	ret

05080774 <dump_record_data>:

void dump_record_data(alt_u32 *pData, alt_u32 len){
 5080774:	defff804 	addi	sp,sp,-32
 5080778:	dfc00715 	stw	ra,28(sp)
 508077c:	df000615 	stw	fp,24(sp)
 5080780:	df000604 	addi	fp,sp,24
 5080784:	e13ffb15 	stw	r4,-20(fp)
 5080788:	e17ffa15 	stw	r5,-24(fp)
    short sample_l, sample_r, sample_max = 0;
 508078c:	e03fff8d 	sth	zero,-2(fp)
    alt_u32 data;
    int i;
    //return ;
    for(i=0;i<len;i++){
 5080790:	e03ffe15 	stw	zero,-8(fp)
 5080794:	00002d06 	br	508084c <dump_record_data+0xd8>
        data = *pData++;
 5080798:	e0bffb17 	ldw	r2,-20(fp)
 508079c:	10c00104 	addi	r3,r2,4
 50807a0:	e0fffb15 	stw	r3,-20(fp)
 50807a4:	10800017 	ldw	r2,0(r2)
 50807a8:	e0bffd15 	stw	r2,-12(fp)
        sample_l = (short)((data >> 16) & 0xFFFF);
 50807ac:	e0bffd17 	ldw	r2,-12(fp)
 50807b0:	1004d43a 	srli	r2,r2,16
 50807b4:	e0bffc8d 	sth	r2,-14(fp)
        sample_r = (short)(data & 0xFFFF);
 50807b8:	e0bffd17 	ldw	r2,-12(fp)
 50807bc:	e0bffc0d 	sth	r2,-16(fp)
        //printf("[%d]%d/%d\n", i, sample_l, sample_r);
        if (sample_l > 0 && sample_max <  sample_l)
 50807c0:	e0bffc8f 	ldh	r2,-14(fp)
 50807c4:	0080050e 	bge	zero,r2,50807dc <dump_record_data+0x68>
 50807c8:	e0ffff8f 	ldh	r3,-2(fp)
 50807cc:	e0bffc8f 	ldh	r2,-14(fp)
 50807d0:	1880020e 	bge	r3,r2,50807dc <dump_record_data+0x68>
            sample_max = sample_l;
 50807d4:	e0bffc8b 	ldhu	r2,-14(fp)
 50807d8:	e0bfff8d 	sth	r2,-2(fp)
        if (sample_l < 0 && sample_max <  -sample_l)
 50807dc:	e0bffc8f 	ldh	r2,-14(fp)
 50807e0:	1000070e 	bge	r2,zero,5080800 <dump_record_data+0x8c>
 50807e4:	e0ffff8f 	ldh	r3,-2(fp)
 50807e8:	e0bffc8f 	ldh	r2,-14(fp)
 50807ec:	0085c83a 	sub	r2,zero,r2
 50807f0:	1880030e 	bge	r3,r2,5080800 <dump_record_data+0x8c>
            sample_max = -sample_l;
 50807f4:	e0bffc8b 	ldhu	r2,-14(fp)
 50807f8:	0085c83a 	sub	r2,zero,r2
 50807fc:	e0bfff8d 	sth	r2,-2(fp)
        if (sample_r > 0 && sample_max <  sample_r)
 5080800:	e0bffc0f 	ldh	r2,-16(fp)
 5080804:	0080050e 	bge	zero,r2,508081c <dump_record_data+0xa8>
 5080808:	e0ffff8f 	ldh	r3,-2(fp)
 508080c:	e0bffc0f 	ldh	r2,-16(fp)
 5080810:	1880020e 	bge	r3,r2,508081c <dump_record_data+0xa8>
            sample_max = sample_r;
 5080814:	e0bffc0b 	ldhu	r2,-16(fp)
 5080818:	e0bfff8d 	sth	r2,-2(fp)
        if (sample_r < 0 && sample_max <  -sample_r)
 508081c:	e0bffc0f 	ldh	r2,-16(fp)
 5080820:	1000070e 	bge	r2,zero,5080840 <dump_record_data+0xcc>
 5080824:	e0ffff8f 	ldh	r3,-2(fp)
 5080828:	e0bffc0f 	ldh	r2,-16(fp)
 508082c:	0085c83a 	sub	r2,zero,r2
 5080830:	1880030e 	bge	r3,r2,5080840 <dump_record_data+0xcc>
            sample_max = -sample_r;
 5080834:	e0bffc0b 	ldhu	r2,-16(fp)
 5080838:	0085c83a 	sub	r2,zero,r2
 508083c:	e0bfff8d 	sth	r2,-2(fp)
    for(i=0;i<len;i++){
 5080840:	e0bffe17 	ldw	r2,-8(fp)
 5080844:	10800044 	addi	r2,r2,1
 5080848:	e0bffe15 	stw	r2,-8(fp)
 508084c:	e0fffe17 	ldw	r3,-8(fp)
 5080850:	e0bffa17 	ldw	r2,-24(fp)
 5080854:	18bfd036 	bltu	r3,r2,5080798 <dump_record_data+0x24>
    }
    printf("max=%d\n", sample_max);
 5080858:	e0bfff8f 	ldh	r2,-2(fp)
 508085c:	100b883a 	mov	r5,r2
 5080860:	01014274 	movhi	r4,1289
 5080864:	21157304 	addi	r4,r4,21964
 5080868:	50828f00 	call	50828f0 <printf>
}
 508086c:	0001883a 	nop
 5080870:	e037883a 	mov	sp,fp
 5080874:	dfc00117 	ldw	ra,4(sp)
 5080878:	df000017 	ldw	fp,0(sp)
 508087c:	dec00204 	addi	sp,sp,8
 5080880:	f800283a 	ret

05080884 <show_menu>:
    "  LED:  Display audio singal strength.\n",
    "  SEG7: Display time elapsed for playing/recording.\n"
    "\n\n"
};

void show_menu(void){
 5080884:	defffd04 	addi	sp,sp,-12
 5080888:	dfc00215 	stw	ra,8(sp)
 508088c:	df000115 	stw	fp,4(sp)
 5080890:	df000104 	addi	fp,sp,4
    int i;
    for(i=0;i<sizeof(szMenu)/sizeof(szMenu[0]);i++)
 5080894:	e03fff15 	stw	zero,-4(fp)
 5080898:	00000a06 	br	50808c4 <show_menu+0x40>
        printf(szMenu[i]);
 508089c:	e0bfff17 	ldw	r2,-4(fp)
 50808a0:	100691fa 	slli	r3,r2,7
 50808a4:	00814274 	movhi	r2,1289
 50808a8:	10957504 	addi	r2,r2,21972
 50808ac:	1885883a 	add	r2,r3,r2
 50808b0:	1009883a 	mov	r4,r2
 50808b4:	50828f00 	call	50828f0 <printf>
    for(i=0;i<sizeof(szMenu)/sizeof(szMenu[0]);i++)
 50808b8:	e0bfff17 	ldw	r2,-4(fp)
 50808bc:	10800044 	addi	r2,r2,1
 50808c0:	e0bfff15 	stw	r2,-4(fp)
 50808c4:	e0bfff17 	ldw	r2,-4(fp)
 50808c8:	10800430 	cmpltui	r2,r2,16
 50808cc:	103ff31e 	bne	r2,zero,508089c <show_menu+0x18>
}
 50808d0:	0001883a 	nop
 50808d4:	0001883a 	nop
 50808d8:	e037883a 	mov	sp,fp
 50808dc:	dfc00117 	ldw	ra,4(sp)
 50808e0:	df000017 	ldw	fp,0(sp)
 50808e4:	dec00204 	addi	sp,sp,8
 50808e8:	f800283a 	ret

050808ec <main>:

int main()
{
 50808ec:	deffeb04 	addi	sp,sp,-84
 50808f0:	dfc01415 	stw	ra,80(sp)
 50808f4:	df001315 	stw	fp,76(sp)
 50808f8:	df001304 	addi	fp,sp,76
    typedef enum{
        ST_STANDY,
        ST_RECODING,
        ST_PLAYING
    }STATE;
    STATE state = ST_STANDY;
 50808fc:	e03fff15 	stw	zero,-4(fp)
    volatile alt_u32 button_mask=0;
 5080900:	e03fee15 	stw	zero,-72(fp)
    bool bRecordPressed, bPlayPressed, bError = FALSE;
 5080904:	e03ffe15 	stw	zero,-8(fp)
    alt_u32 *pBuf, *pPlaying, *pRecording, RecordLen, PlayLen, data, try_cnt, buf_sample_size;
    alt_u16 ch_right, ch_left;


    printf("\nHello World\n");
 5080908:	01014274 	movhi	r4,1289
 508090c:	21177504 	addi	r4,r4,24020
 5080910:	50829f40 	call	50829f4 <puts>

    show_menu();
 5080914:	50808840 	call	5080884 <show_menu>
    if (!init())
 5080918:	508071c0 	call	508071c <init>
 508091c:	1000021e 	bne	r2,zero,5080928 <main+0x3c>
        return 0;
 5080920:	0005883a 	mov	r2,zero
 5080924:	00010206 	br	5080d30 <main+0x444>


#ifdef USE_SDRAM_FOR_DATA
    pBuf = (alt_u32 *)SDRAM_BASE;
 5080928:	e03ff615 	stw	zero,-40(fp)
    buf_sample_size = SDRAM_SPAN/sizeof(alt_u32);
 508092c:	00804034 	movhi	r2,256
 5080930:	e0bff515 	stw	r2,-44(fp)
        LCD_TextOut("malloc fail\n\n");
        printf("malloc fail\r\n");
        return 0;
    }
#endif
    button_monitor_start(&button_mask);  // button IRQ
 5080934:	e0bfee04 	addi	r2,fp,-72
 5080938:	1009883a 	mov	r4,r2
 508093c:	508042c0 	call	508042c <button_monitor_start>
    printf("ready\n");
 5080940:	01014274 	movhi	r4,1289
 5080944:	21177904 	addi	r4,r4,24036
 5080948:	50829f40 	call	50829f4 <puts>


    // test
    record_sample_rate = ui_get_sample_rate();
 508094c:	508032c0 	call	508032c <ui_get_sample_rate>
 5080950:	d0a70815 	stw	r2,-25568(gp)
    RecordLen = buf_sample_size;
 5080954:	e0bff517 	ldw	r2,-44(fp)
 5080958:	e0bffb15 	stw	r2,-20(fp)
    //

    // infinite loop
    while(1){
        //
        bRecordPressed = (button_mask & RECORD_BUTTON)?TRUE:FALSE;
 508095c:	e0bfee17 	ldw	r2,-72(fp)
 5080960:	1080020c 	andi	r2,r2,8
 5080964:	1004c03a 	cmpne	r2,r2,zero
 5080968:	10803fcc 	andi	r2,r2,255
 508096c:	e0bff415 	stw	r2,-48(fp)
        bPlayPressed = (button_mask & PLAY_BUTTON)?TRUE:FALSE;
 5080970:	e0bfee17 	ldw	r2,-72(fp)
 5080974:	1080010c 	andi	r2,r2,4
 5080978:	1004c03a 	cmpne	r2,r2,zero
 508097c:	10803fcc 	andi	r2,r2,255
 5080980:	e0bff315 	stw	r2,-52(fp)
        if (bPlayPressed || bRecordPressed)
 5080984:	e0bff317 	ldw	r2,-52(fp)
 5080988:	1000021e 	bne	r2,zero,5080994 <main+0xa8>
 508098c:	e0bff417 	ldw	r2,-48(fp)
 5080990:	10000126 	beq	r2,zero,5080998 <main+0xac>
            button_mask = 0;
 5080994:	e03fee15 	stw	zero,-72(fp)
        if (state == ST_STANDY){
 5080998:	e0bfff17 	ldw	r2,-4(fp)
 508099c:	1000431e 	bne	r2,zero,5080aac <main+0x1c0>
            if (bRecordPressed){
 50809a0:	e0bff417 	ldw	r2,-48(fp)
 50809a4:	10002826 	beq	r2,zero,5080a48 <main+0x15c>
                bool bMicRecord;
                record_sample_rate = ui_get_sample_rate();
 50809a8:	508032c0 	call	508032c <ui_get_sample_rate>
 50809ac:	d0a70815 	stw	r2,-25568(gp)
                bMicRecord = ui_is_mic_record();
 50809b0:	50802840 	call	5080284 <ui_is_mic_record>
 50809b4:	e0bff015 	stw	r2,-64(fp)
                AUDIO_FifoClear();
 50809b8:	5081a100 	call	5081a10 <AUDIO_FifoClear>
                init_audio(bMicRecord?MIC_RECORD:LINEIN_RECORD);
 50809bc:	e0bff017 	ldw	r2,-64(fp)
 50809c0:	1005003a 	cmpeq	r2,r2,zero
 50809c4:	10803fcc 	andi	r2,r2,255
 50809c8:	1009883a 	mov	r4,r2
 50809cc:	50804a80 	call	50804a8 <init_audio>
                AUDIO_FifoClear();
 50809d0:	5081a100 	call	5081a10 <AUDIO_FifoClear>
                state = ST_RECODING;
 50809d4:	00800044 	movi	r2,1
 50809d8:	e0bfff15 	stw	r2,-4(fp)
                if (bMicRecord){
 50809dc:	e0bff017 	ldw	r2,-64(fp)
 50809e0:	10001026 	beq	r2,zero,5080a24 <main+0x138>
                    bool bMicBoost = ui_is_mic_boost();
 50809e4:	50802bc0 	call	50802bc <ui_is_mic_boost>
 50809e8:	e0bfef15 	stw	r2,-68(fp)
                    printf("MIC %srecording (sample rate = %d)...\r\n", bMicBoost?"Boost ":"", record_sample_rate);
 50809ec:	e0bfef17 	ldw	r2,-68(fp)
 50809f0:	10000326 	beq	r2,zero,5080a00 <main+0x114>
 50809f4:	00814274 	movhi	r2,1289
 50809f8:	10977b04 	addi	r2,r2,24044
 50809fc:	00000206 	br	5080a08 <main+0x11c>
 5080a00:	00814274 	movhi	r2,1289
 5080a04:	10977d04 	addi	r2,r2,24052
 5080a08:	d0e70817 	ldw	r3,-25568(gp)
 5080a0c:	180d883a 	mov	r6,r3
 5080a10:	100b883a 	mov	r5,r2
 5080a14:	01014274 	movhi	r4,1289
 5080a18:	21177e04 	addi	r4,r4,24056
 5080a1c:	50828f00 	call	50828f0 <printf>
 5080a20:	00000506 	br	5080a38 <main+0x14c>

                }else{
                    printf("LINE-IN recording (sample rate = %d)...\r\n", record_sample_rate);
 5080a24:	d0a70817 	ldw	r2,-25568(gp)
 5080a28:	100b883a 	mov	r5,r2
 5080a2c:	01014274 	movhi	r4,1289
 5080a30:	21178804 	addi	r4,r4,24096
 5080a34:	50828f00 	call	50828f0 <printf>


                }
                pRecording = pBuf;
 5080a38:	e0bff617 	ldw	r2,-40(fp)
 5080a3c:	e0bffc15 	stw	r2,-16(fp)
                RecordLen = 0;
 5080a40:	e03ffb15 	stw	zero,-20(fp)
 5080a44:	00001706 	br	5080aa4 <main+0x1b8>
            }else if (bPlayPressed){
 5080a48:	e0bff317 	ldw	r2,-52(fp)
 5080a4c:	10001526 	beq	r2,zero,5080aa4 <main+0x1b8>
                if (RecordLen == 0){
 5080a50:	e0bffb17 	ldw	r2,-20(fp)
 5080a54:	1000041e 	bne	r2,zero,5080a68 <main+0x17c>
                    printf("Please record before play audio\r\n");
 5080a58:	01014274 	movhi	r4,1289
 5080a5c:	21179304 	addi	r4,r4,24140
 5080a60:	50829f40 	call	50829f4 <puts>
 5080a64:	00000f06 	br	5080aa4 <main+0x1b8>

                }else{
                    bool bZeroCross = ui_is_dac_zero_cross();
 5080a68:	50802f40 	call	50802f4 <ui_is_dac_zero_cross>
 5080a6c:	e0bff115 	stw	r2,-60(fp)
                    AUDIO_FifoClear();
 5080a70:	5081a100 	call	5081a10 <AUDIO_FifoClear>
                    init_audio(LINEOUT_PLAY);
 5080a74:	01000084 	movi	r4,2
 5080a78:	50804a80 	call	50804a8 <init_audio>
                    state = ST_PLAYING;
 5080a7c:	00800084 	movi	r2,2
 5080a80:	e0bfff15 	stw	r2,-4(fp)
                    printf("playing (sample rate = %d)...\r\n", record_sample_rate);
 5080a84:	d0a70817 	ldw	r2,-25568(gp)
 5080a88:	100b883a 	mov	r5,r2
 5080a8c:	01014274 	movhi	r4,1289
 5080a90:	21179c04 	addi	r4,r4,24176
 5080a94:	50828f00 	call	50828f0 <printf>


                    pPlaying = pBuf;
 5080a98:	e0bff617 	ldw	r2,-40(fp)
 5080a9c:	e0bffd15 	stw	r2,-12(fp)
                    PlayLen = 0;
 5080aa0:	e03ffa15 	stw	zero,-24(fp)
                }
            }
            bError = FALSE;
 5080aa4:	e03ffe15 	stw	zero,-8(fp)
 5080aa8:	003fac06 	br	508095c <main+0x70>
        }else if (state == ST_RECODING){
 5080aac:	e0bfff17 	ldw	r2,-4(fp)
 5080ab0:	10800058 	cmpnei	r2,r2,1
 5080ab4:	10004a1e 	bne	r2,zero,5080be0 <main+0x2f4>
            if (bRecordPressed || (RecordLen >= buf_sample_size) || bError){
 5080ab8:	e0bff417 	ldw	r2,-48(fp)
 5080abc:	1000051e 	bne	r2,zero,5080ad4 <main+0x1e8>
 5080ac0:	e0fffb17 	ldw	r3,-20(fp)
 5080ac4:	e0bff517 	ldw	r2,-44(fp)
 5080ac8:	1880022e 	bgeu	r3,r2,5080ad4 <main+0x1e8>
 5080acc:	e0bffe17 	ldw	r2,-8(fp)
 5080ad0:	10000b26 	beq	r2,zero,5080b00 <main+0x214>
                // stop record
                printf("record %d samples\n", (int)RecordLen);
 5080ad4:	e0bffb17 	ldw	r2,-20(fp)
 5080ad8:	100b883a 	mov	r5,r2
 5080adc:	01014274 	movhi	r4,1289
 5080ae0:	2117a404 	addi	r4,r4,24208
 5080ae4:	50828f00 	call	50828f0 <printf>


                state = ST_STANDY;
 5080ae8:	e03fff15 	stw	zero,-4(fp)
                LED_AllOff();
 5080aec:	50821d40 	call	50821d4 <LED_AllOff>
                dump_record_data(pBuf, RecordLen);
 5080af0:	e17ffb17 	ldw	r5,-20(fp)
 5080af4:	e13ff617 	ldw	r4,-40(fp)
 5080af8:	50807740 	call	5080774 <dump_record_data>
 5080afc:	00008b06 	br	5080d2c <main+0x440>

            }else{
                // continue recoding
                int i = 0;
 5080b00:	e03ff815 	stw	zero,-32(fp)
                while ((i < RECORD_BLOCK_SIZE) && (RecordLen < buf_sample_size)){
 5080b04:	00002d06 	br	5080bbc <main+0x2d0>
                    try_cnt = 0;
 5080b08:	e03ff915 	stw	zero,-28(fp)
                    while (!AUDIO_AdcFifoNotEmpty() && try_cnt < MAX_TRY_CNT){ // wait while empty
 5080b0c:	00000306 	br	5080b1c <main+0x230>
                        try_cnt++;
 5080b10:	e0bff917 	ldw	r2,-28(fp)
 5080b14:	10800044 	addi	r2,r2,1
 5080b18:	e0bff915 	stw	r2,-28(fp)
                    while (!AUDIO_AdcFifoNotEmpty() && try_cnt < MAX_TRY_CNT){ // wait while empty
 5080b1c:	50819880 	call	5081988 <AUDIO_AdcFifoNotEmpty>
 5080b20:	1000031e 	bne	r2,zero,5080b30 <main+0x244>
 5080b24:	e0bff917 	ldw	r2,-28(fp)
 5080b28:	10810030 	cmpltui	r2,r2,1024
 5080b2c:	103ff81e 	bne	r2,zero,5080b10 <main+0x224>
                    }
                    if (try_cnt >= MAX_TRY_CNT){
 5080b30:	e0bff917 	ldw	r2,-28(fp)
 5080b34:	10810030 	cmpltui	r2,r2,1024
 5080b38:	1000031e 	bne	r2,zero,5080b48 <main+0x25c>
                        bError = TRUE;
 5080b3c:	00800044 	movi	r2,1
 5080b40:	e0bffe15 	stw	r2,-8(fp)
                        break;
 5080b44:	00002306 	br	5080bd4 <main+0x2e8>
                    }
                    AUDIO_AdcFifoGetData(&ch_left, &ch_right);
 5080b48:	e0ffed84 	addi	r3,fp,-74
 5080b4c:	e0bfed04 	addi	r2,fp,-76
 5080b50:	180b883a 	mov	r5,r3
 5080b54:	1009883a 	mov	r4,r2
 5080b58:	50819c00 	call	50819c0 <AUDIO_AdcFifoGetData>
                    data = (ch_left << 16) | ch_right;
 5080b5c:	e0bfed0b 	ldhu	r2,-76(fp)
 5080b60:	10bfffcc 	andi	r2,r2,65535
 5080b64:	1006943a 	slli	r3,r2,16
 5080b68:	e0bfed8b 	ldhu	r2,-74(fp)
 5080b6c:	10bfffcc 	andi	r2,r2,65535
 5080b70:	1884b03a 	or	r2,r3,r2
 5080b74:	e0bff215 	stw	r2,-56(fp)
                    *pRecording++ = data;
 5080b78:	e0bffc17 	ldw	r2,-16(fp)
 5080b7c:	10c00104 	addi	r3,r2,4
 5080b80:	e0fffc15 	stw	r3,-16(fp)
 5080b84:	e0fff217 	ldw	r3,-56(fp)
 5080b88:	10c00015 	stw	r3,0(r2)
                    RecordLen++;
 5080b8c:	e0bffb17 	ldw	r2,-20(fp)
 5080b90:	10800044 	addi	r2,r2,1
 5080b94:	e0bffb15 	stw	r2,-20(fp)
                    i++;
 5080b98:	e0bff817 	ldw	r2,-32(fp)
 5080b9c:	10800044 	addi	r2,r2,1
 5080ba0:	e0bff815 	stw	r2,-32(fp)
                    show_power(data & 0xFFFF);
 5080ba4:	e0bff217 	ldw	r2,-56(fp)
 5080ba8:	10bfffcc 	andi	r2,r2,65535
 5080bac:	10a0001c 	xori	r2,r2,32768
 5080bb0:	10a00004 	addi	r2,r2,-32768
 5080bb4:	1009883a 	mov	r4,r2
 5080bb8:	50806840 	call	5080684 <show_power>
                while ((i < RECORD_BLOCK_SIZE) && (RecordLen < buf_sample_size)){
 5080bbc:	e0bff817 	ldw	r2,-32(fp)
 5080bc0:	10803e88 	cmpgei	r2,r2,250
 5080bc4:	1000031e 	bne	r2,zero,5080bd4 <main+0x2e8>
 5080bc8:	e0fffb17 	ldw	r3,-20(fp)
 5080bcc:	e0bff517 	ldw	r2,-44(fp)
 5080bd0:	18bfcd36 	bltu	r3,r2,5080b08 <main+0x21c>
                }  // while
                display_time_elapsed(RecordLen);
 5080bd4:	e13ffb17 	ldw	r4,-20(fp)
 5080bd8:	50806300 	call	5080630 <display_time_elapsed>
 5080bdc:	003f5f06 	br	508095c <main+0x70>
            }
        }else if (state == ST_PLAYING){
 5080be0:	e0bfff17 	ldw	r2,-4(fp)
 5080be4:	10800098 	cmpnei	r2,r2,2
 5080be8:	103f5c1e 	bne	r2,zero,508095c <main+0x70>
            if (bPlayPressed || (PlayLen >= RecordLen) || bError){
 5080bec:	e0bff317 	ldw	r2,-52(fp)
 5080bf0:	1000051e 	bne	r2,zero,5080c08 <main+0x31c>
 5080bf4:	e0fffa17 	ldw	r3,-24(fp)
 5080bf8:	e0bffb17 	ldw	r2,-20(fp)
 5080bfc:	1880022e 	bgeu	r3,r2,5080c08 <main+0x31c>
 5080c00:	e0bffe17 	ldw	r2,-8(fp)
 5080c04:	10000e26 	beq	r2,zero,5080c40 <main+0x354>
                // stop playing
                printf("Play Stop %s\r\n", bError?"(Error)":"");
 5080c08:	e0bffe17 	ldw	r2,-8(fp)
 5080c0c:	10000326 	beq	r2,zero,5080c1c <main+0x330>
 5080c10:	00814274 	movhi	r2,1289
 5080c14:	1097a904 	addi	r2,r2,24228
 5080c18:	00000206 	br	5080c24 <main+0x338>
 5080c1c:	00814274 	movhi	r2,1289
 5080c20:	10977d04 	addi	r2,r2,24052
 5080c24:	100b883a 	mov	r5,r2
 5080c28:	01014274 	movhi	r4,1289
 5080c2c:	2117ab04 	addi	r4,r4,24236
 5080c30:	50828f00 	call	50828f0 <printf>

                state = ST_STANDY;
 5080c34:	e03fff15 	stw	zero,-4(fp)
                LED_AllOff();
 5080c38:	50821d40 	call	50821d4 <LED_AllOff>
 5080c3c:	00003b06 	br	5080d2c <main+0x440>
            }else{
                // continue playing
                int i = 0;
 5080c40:	e03ff715 	stw	zero,-36(fp)
                while ((i < PLAY_BLOCK_SIZE) && (PlayLen < RecordLen)){
 5080c44:	00003106 	br	5080d0c <main+0x420>
                    try_cnt = 0;
 5080c48:	e03ff915 	stw	zero,-28(fp)
                    while (!AUDIO_DacFifoNotFull() && try_cnt < MAX_TRY_CNT){  // wait while full
 5080c4c:	00000306 	br	5080c5c <main+0x370>
                        try_cnt++;
 5080c50:	e0bff917 	ldw	r2,-28(fp)
 5080c54:	10800044 	addi	r2,r2,1
 5080c58:	e0bff915 	stw	r2,-28(fp)
                    while (!AUDIO_DacFifoNotFull() && try_cnt < MAX_TRY_CNT){  // wait while full
 5080c5c:	50819040 	call	5081904 <AUDIO_DacFifoNotFull>
 5080c60:	1000031e 	bne	r2,zero,5080c70 <main+0x384>
 5080c64:	e0bff917 	ldw	r2,-28(fp)
 5080c68:	10810030 	cmpltui	r2,r2,1024
 5080c6c:	103ff81e 	bne	r2,zero,5080c50 <main+0x364>
                    }
                    if (try_cnt >= MAX_TRY_CNT){
 5080c70:	e0bff917 	ldw	r2,-28(fp)
 5080c74:	10810030 	cmpltui	r2,r2,1024
 5080c78:	1000031e 	bne	r2,zero,5080c88 <main+0x39c>
                        bError = TRUE;
 5080c7c:	00800044 	movi	r2,1
 5080c80:	e0bffe15 	stw	r2,-8(fp)
                        break;
 5080c84:	00002706 	br	5080d24 <main+0x438>
                    }
                    data = *pPlaying++;
 5080c88:	e0bffd17 	ldw	r2,-12(fp)
 5080c8c:	10c00104 	addi	r3,r2,4
 5080c90:	e0fffd15 	stw	r3,-12(fp)
 5080c94:	10800017 	ldw	r2,0(r2)
 5080c98:	e0bff215 	stw	r2,-56(fp)

                    //data = 0;
                    ch_left = data >> 16;
 5080c9c:	e0bff217 	ldw	r2,-56(fp)
 5080ca0:	1004d43a 	srli	r2,r2,16
 5080ca4:	e0bfed0d 	sth	r2,-76(fp)
                    ch_right = data & 0xFFFF;
 5080ca8:	e0bff217 	ldw	r2,-56(fp)
 5080cac:	e0bfed8d 	sth	r2,-74(fp)
                    AUDIO_DacFifoSetData(ch_left, ch_right);
 5080cb0:	e0bfed0b 	ldhu	r2,-76(fp)
 5080cb4:	10bfffcc 	andi	r2,r2,65535
 5080cb8:	10a0001c 	xori	r2,r2,32768
 5080cbc:	10a00004 	addi	r2,r2,-32768
 5080cc0:	e0ffed8b 	ldhu	r3,-74(fp)
 5080cc4:	18ffffcc 	andi	r3,r3,65535
 5080cc8:	18e0001c 	xori	r3,r3,32768
 5080ccc:	18e00004 	addi	r3,r3,-32768
 5080cd0:	180b883a 	mov	r5,r3
 5080cd4:	1009883a 	mov	r4,r2
 5080cd8:	508193c0 	call	508193c <AUDIO_DacFifoSetData>
                    i++;
 5080cdc:	e0bff717 	ldw	r2,-36(fp)
 5080ce0:	10800044 	addi	r2,r2,1
 5080ce4:	e0bff715 	stw	r2,-36(fp)
                    PlayLen++;
 5080ce8:	e0bffa17 	ldw	r2,-24(fp)
 5080cec:	10800044 	addi	r2,r2,1
 5080cf0:	e0bffa15 	stw	r2,-24(fp)
                    show_power(data & 0xFFFF);
 5080cf4:	e0bff217 	ldw	r2,-56(fp)
 5080cf8:	10bfffcc 	andi	r2,r2,65535
 5080cfc:	10a0001c 	xori	r2,r2,32768
 5080d00:	10a00004 	addi	r2,r2,-32768
 5080d04:	1009883a 	mov	r4,r2
 5080d08:	50806840 	call	5080684 <show_power>
                while ((i < PLAY_BLOCK_SIZE) && (PlayLen < RecordLen)){
 5080d0c:	e0bff717 	ldw	r2,-36(fp)
 5080d10:	10803e88 	cmpgei	r2,r2,250
 5080d14:	1000031e 	bne	r2,zero,5080d24 <main+0x438>
 5080d18:	e0fffa17 	ldw	r3,-24(fp)
 5080d1c:	e0bffb17 	ldw	r2,-20(fp)
 5080d20:	18bfc936 	bltu	r3,r2,5080c48 <main+0x35c>
                    //printf("[%d] %d/%d\n", PlayLen, (short)((data >> 16) & 0xFFFF), (short)(data & 0xFFFF));
                }
                display_time_elapsed(PlayLen);
 5080d24:	e13ffa17 	ldw	r4,-24(fp)
 5080d28:	50806300 	call	5080630 <display_time_elapsed>
        bRecordPressed = (button_mask & RECORD_BUTTON)?TRUE:FALSE;
 5080d2c:	003f0b06 	br	508095c <main+0x70>
            }
        }
    }

}
 5080d30:	e037883a 	mov	sp,fp
 5080d34:	dfc00117 	ldw	ra,4(sp)
 5080d38:	df000017 	ldw	fp,0(sp)
 5080d3c:	dec00204 	addi	sp,sp,8
 5080d40:	f800283a 	ret

05080d44 <AUDIO_Init>:

/////////////////////////////////////////////////////////////////////////
///////////// External function body ////////////////////////////////////
/////////////////////////////////////////////////////////////////////////

bool AUDIO_Init(void){
 5080d44:	defffd04 	addi	sp,sp,-12
 5080d48:	dfc00215 	stw	ra,8(sp)
 5080d4c:	df000115 	stw	fp,4(sp)
 5080d50:	df000104 	addi	fp,sp,4
   bool bSuccess = TRUE;
 5080d54:	00800044 	movi	r2,1
 5080d58:	e0bfff15 	stw	r2,-4(fp)
    AUDIO_DEBUG(("[AUDIO] AUDIO_Init...\r\n"));
 5080d5c:	01014274 	movhi	r4,1289
 5080d60:	2117af04 	addi	r4,r4,24252
 5080d64:	50825900 	call	5082590 <myprintf>

    if (bSuccess)
 5080d68:	e0bfff17 	ldw	r2,-4(fp)
 5080d6c:	10000426 	beq	r2,zero,5080d80 <AUDIO_Init+0x3c>
        bSuccess = aduio_RegWrite(15, 0x0000);  // reset
 5080d70:	000b883a 	mov	r5,zero
 5080d74:	010003c4 	movi	r4,15
 5080d78:	50818100 	call	5081810 <aduio_RegWrite>
 5080d7c:	e0bfff15 	stw	r2,-4(fp)
        
    if (bSuccess)
 5080d80:	e0bfff17 	ldw	r2,-4(fp)
 5080d84:	10000426 	beq	r2,zero,5080d98 <AUDIO_Init+0x54>
        bSuccess = aduio_RegWrite(9, 0x0000);  // inactive interface         
 5080d88:	000b883a 	mov	r5,zero
 5080d8c:	01000244 	movi	r4,9
 5080d90:	50818100 	call	5081810 <aduio_RegWrite>
 5080d94:	e0bfff15 	stw	r2,-4(fp)
       
    //usleep(20*1000);    
    if (bSuccess)
 5080d98:	e0bfff17 	ldw	r2,-4(fp)
 5080d9c:	10000426 	beq	r2,zero,5080db0 <AUDIO_Init+0x6c>
        bSuccess = aduio_RegWrite(0, 0x0017);  // Left Line In: set left line in volume
 5080da0:	014005c4 	movi	r5,23
 5080da4:	0009883a 	mov	r4,zero
 5080da8:	50818100 	call	5081810 <aduio_RegWrite>
 5080dac:	e0bfff15 	stw	r2,-4(fp)
        
    if (bSuccess)
 5080db0:	e0bfff17 	ldw	r2,-4(fp)
 5080db4:	10000426 	beq	r2,zero,5080dc8 <AUDIO_Init+0x84>
        bSuccess = aduio_RegWrite(1, 0x0017);  // Right Line In: set right line in volume
 5080db8:	014005c4 	movi	r5,23
 5080dbc:	01000044 	movi	r4,1
 5080dc0:	50818100 	call	5081810 <aduio_RegWrite>
 5080dc4:	e0bfff15 	stw	r2,-4(fp)
        
    if (bSuccess)
 5080dc8:	e0bfff17 	ldw	r2,-4(fp)
 5080dcc:	10000426 	beq	r2,zero,5080de0 <AUDIO_Init+0x9c>
        bSuccess = aduio_RegWrite(2, 0x005B);  // Left Headphone Out: set left line out volume
 5080dd0:	014016c4 	movi	r5,91
 5080dd4:	01000084 	movi	r4,2
 5080dd8:	50818100 	call	5081810 <aduio_RegWrite>
 5080ddc:	e0bfff15 	stw	r2,-4(fp)
        
    if (bSuccess)
 5080de0:	e0bfff17 	ldw	r2,-4(fp)
 5080de4:	10000426 	beq	r2,zero,5080df8 <AUDIO_Init+0xb4>
        bSuccess = aduio_RegWrite(3, 0x005B);  // Right Headphone Out: set right line out volume
 5080de8:	014016c4 	movi	r5,91
 5080dec:	010000c4 	movi	r4,3
 5080df0:	50818100 	call	5081810 <aduio_RegWrite>
 5080df4:	e0bfff15 	stw	r2,-4(fp)
        
    if (bSuccess)      
 5080df8:	e0bfff17 	ldw	r2,-4(fp)
 5080dfc:	10000426 	beq	r2,zero,5080e10 <AUDIO_Init+0xcc>
        bSuccess = aduio_RegWrite(4, 0x0015);  // Analogue Audio Path Control: set mic as input and boost it, and enable dac         
 5080e00:	01400544 	movi	r5,21
 5080e04:	01000104 	movi	r4,4
 5080e08:	50818100 	call	5081810 <aduio_RegWrite>
 5080e0c:	e0bfff15 	stw	r2,-4(fp)
                
    if (bSuccess)
 5080e10:	e0bfff17 	ldw	r2,-4(fp)
 5080e14:	10000426 	beq	r2,zero,5080e28 <AUDIO_Init+0xe4>
        bSuccess = aduio_RegWrite(5, 0x0000);  // Digital Audio Path Control: disable soft mute         
 5080e18:	000b883a 	mov	r5,zero
 5080e1c:	01000144 	movi	r4,5
 5080e20:	50818100 	call	5081810 <aduio_RegWrite>
 5080e24:	e0bfff15 	stw	r2,-4(fp)

    if (bSuccess)
 5080e28:	e0bfff17 	ldw	r2,-4(fp)
 5080e2c:	10000426 	beq	r2,zero,5080e40 <AUDIO_Init+0xfc>
        bSuccess = aduio_RegWrite(6, 0);  // power down control: power on all         
 5080e30:	000b883a 	mov	r5,zero
 5080e34:	01000184 	movi	r4,6
 5080e38:	50818100 	call	5081810 <aduio_RegWrite>
 5080e3c:	e0bfff15 	stw	r2,-4(fp)

    if (bSuccess)
 5080e40:	e0bfff17 	ldw	r2,-4(fp)
 5080e44:	10000426 	beq	r2,zero,5080e58 <AUDIO_Init+0x114>
        bSuccess = aduio_RegWrite(7, 0x0042);  // I2S, iwl=16-bits, Enable Master Mode         
 5080e48:	01401084 	movi	r5,66
 5080e4c:	010001c4 	movi	r4,7
 5080e50:	50818100 	call	5081810 <aduio_RegWrite>
 5080e54:	e0bfff15 	stw	r2,-4(fp)
//        bSuccess = aduio_RegWrite(7, 0x0041);  // MSB-First, left justified, iwl=16-bits, Enable Master Mode         

    if (bSuccess)
 5080e58:	e0bfff17 	ldw	r2,-4(fp)
 5080e5c:	10000426 	beq	r2,zero,5080e70 <AUDIO_Init+0x12c>
        bSuccess = aduio_RegWrite(8, 0x0002);  // Normal, Base OVer-Sampleing Rate 384 fs (BOSR=1)         
 5080e60:	01400084 	movi	r5,2
 5080e64:	01000204 	movi	r4,8
 5080e68:	50818100 	call	5081810 <aduio_RegWrite>
 5080e6c:	e0bfff15 	stw	r2,-4(fp)


    if (bSuccess)
 5080e70:	e0bfff17 	ldw	r2,-4(fp)
 5080e74:	10000426 	beq	r2,zero,5080e88 <AUDIO_Init+0x144>
        bSuccess = aduio_RegWrite(9, 0x0001);  // active interface
 5080e78:	01400044 	movi	r5,1
 5080e7c:	01000244 	movi	r4,9
 5080e80:	50818100 	call	5081810 <aduio_RegWrite>
 5080e84:	e0bfff15 	stw	r2,-4(fp)
        
        
         
    AUDIO_DEBUG(("[AUDIO] AUDIO_Init %s\r\n", bSuccess?"success":"fail"));        
 5080e88:	e0bfff17 	ldw	r2,-4(fp)
 5080e8c:	10000326 	beq	r2,zero,5080e9c <AUDIO_Init+0x158>
 5080e90:	00814274 	movhi	r2,1289
 5080e94:	1097b504 	addi	r2,r2,24276
 5080e98:	00000206 	br	5080ea4 <AUDIO_Init+0x160>
 5080e9c:	00814274 	movhi	r2,1289
 5080ea0:	1097b704 	addi	r2,r2,24284
 5080ea4:	100b883a 	mov	r5,r2
 5080ea8:	01014274 	movhi	r4,1289
 5080eac:	2117b904 	addi	r4,r4,24292
 5080eb0:	50825900 	call	5082590 <myprintf>
    
    return bSuccess;        
 5080eb4:	e0bfff17 	ldw	r2,-4(fp)
         
}
 5080eb8:	e037883a 	mov	sp,fp
 5080ebc:	dfc00117 	ldw	ra,4(sp)
 5080ec0:	df000017 	ldw	fp,0(sp)
 5080ec4:	dec00204 	addi	sp,sp,8
 5080ec8:	f800283a 	ret

05080ecc <AUDIO_InterfaceActive>:

bool AUDIO_InterfaceActive(bool bActive){
 5080ecc:	defffc04 	addi	sp,sp,-16
 5080ed0:	dfc00315 	stw	ra,12(sp)
 5080ed4:	df000215 	stw	fp,8(sp)
 5080ed8:	df000204 	addi	fp,sp,8
 5080edc:	e13ffe15 	stw	r4,-8(fp)
    bool bSuccess;
    bSuccess = aduio_RegWrite(9, bActive?0x0001:0x0000); 
 5080ee0:	e0bffe17 	ldw	r2,-8(fp)
 5080ee4:	1004c03a 	cmpne	r2,r2,zero
 5080ee8:	10803fcc 	andi	r2,r2,255
 5080eec:	100b883a 	mov	r5,r2
 5080ef0:	01000244 	movi	r4,9
 5080ef4:	50818100 	call	5081810 <aduio_RegWrite>
 5080ef8:	e0bfff15 	stw	r2,-4(fp)
    return bSuccess;
 5080efc:	e0bfff17 	ldw	r2,-4(fp)
}
 5080f00:	e037883a 	mov	sp,fp
 5080f04:	dfc00117 	ldw	ra,4(sp)
 5080f08:	df000017 	ldw	fp,0(sp)
 5080f0c:	dec00204 	addi	sp,sp,8
 5080f10:	f800283a 	ret

05080f14 <AUDIO_MicBoost>:

bool AUDIO_MicBoost(bool bBoost){
 5080f14:	defffb04 	addi	sp,sp,-20
 5080f18:	dfc00415 	stw	ra,16(sp)
 5080f1c:	df000315 	stw	fp,12(sp)
 5080f20:	df000304 	addi	fp,sp,12
 5080f24:	e13ffd15 	stw	r4,-12(fp)
    bool bSuccess;
    alt_u16 control;
    control = reg_file[4];
 5080f28:	008142b4 	movhi	r2,1290
 5080f2c:	10a7b10b 	ldhu	r2,-24892(r2)
 5080f30:	e0bfff8d 	sth	r2,-2(fp)
    if (bBoost)
 5080f34:	e0bffd17 	ldw	r2,-12(fp)
 5080f38:	10000426 	beq	r2,zero,5080f4c <AUDIO_MicBoost+0x38>
        control |= 0x0001;
 5080f3c:	e0bfff8b 	ldhu	r2,-2(fp)
 5080f40:	10800054 	ori	r2,r2,1
 5080f44:	e0bfff8d 	sth	r2,-2(fp)
 5080f48:	00000406 	br	5080f5c <AUDIO_MicBoost+0x48>
    else        
        control &= 0xFFFE;
 5080f4c:	e0ffff8b 	ldhu	r3,-2(fp)
 5080f50:	00bfff84 	movi	r2,-2
 5080f54:	1884703a 	and	r2,r3,r2
 5080f58:	e0bfff8d 	sth	r2,-2(fp)
    bSuccess = aduio_RegWrite(4, control);  // Left Line In: set left line in volume
 5080f5c:	e0bfff8b 	ldhu	r2,-2(fp)
 5080f60:	100b883a 	mov	r5,r2
 5080f64:	01000104 	movi	r4,4
 5080f68:	50818100 	call	5081810 <aduio_RegWrite>
 5080f6c:	e0bffe15 	stw	r2,-8(fp)
    return bSuccess;
 5080f70:	e0bffe17 	ldw	r2,-8(fp)
}
 5080f74:	e037883a 	mov	sp,fp
 5080f78:	dfc00117 	ldw	ra,4(sp)
 5080f7c:	df000017 	ldw	fp,0(sp)
 5080f80:	dec00204 	addi	sp,sp,8
 5080f84:	f800283a 	ret

05080f88 <AUDIO_AdcEnableHighPassFilter>:

bool AUDIO_AdcEnableHighPassFilter(bool bEnable){
 5080f88:	defffb04 	addi	sp,sp,-20
 5080f8c:	dfc00415 	stw	ra,16(sp)
 5080f90:	df000315 	stw	fp,12(sp)
 5080f94:	df000304 	addi	fp,sp,12
 5080f98:	e13ffd15 	stw	r4,-12(fp)
    bool bSuccess;
    alt_u16 control;
    control = reg_file[5];
 5080f9c:	008142b4 	movhi	r2,1290
 5080fa0:	10a7b18b 	ldhu	r2,-24890(r2)
 5080fa4:	e0bfff8d 	sth	r2,-2(fp)
    if (bEnable)
 5080fa8:	e0bffd17 	ldw	r2,-12(fp)
 5080fac:	10000526 	beq	r2,zero,5080fc4 <AUDIO_AdcEnableHighPassFilter+0x3c>
        control &= 0xFFFE;
 5080fb0:	e0ffff8b 	ldhu	r3,-2(fp)
 5080fb4:	00bfff84 	movi	r2,-2
 5080fb8:	1884703a 	and	r2,r3,r2
 5080fbc:	e0bfff8d 	sth	r2,-2(fp)
 5080fc0:	00000306 	br	5080fd0 <AUDIO_AdcEnableHighPassFilter+0x48>
    else        
        control |= 0x0001;
 5080fc4:	e0bfff8b 	ldhu	r2,-2(fp)
 5080fc8:	10800054 	ori	r2,r2,1
 5080fcc:	e0bfff8d 	sth	r2,-2(fp)
    bSuccess = aduio_RegWrite(5, control);  // Left Line In: set left line in volume
 5080fd0:	e0bfff8b 	ldhu	r2,-2(fp)
 5080fd4:	100b883a 	mov	r5,r2
 5080fd8:	01000144 	movi	r4,5
 5080fdc:	50818100 	call	5081810 <aduio_RegWrite>
 5080fe0:	e0bffe15 	stw	r2,-8(fp)
    return bSuccess;    
 5080fe4:	e0bffe17 	ldw	r2,-8(fp)
}
 5080fe8:	e037883a 	mov	sp,fp
 5080fec:	dfc00117 	ldw	ra,4(sp)
 5080ff0:	df000017 	ldw	fp,0(sp)
 5080ff4:	dec00204 	addi	sp,sp,8
 5080ff8:	f800283a 	ret

05080ffc <AUDIO_DacDeemphasisControl>:



bool AUDIO_DacDeemphasisControl(alt_u8 deemphasis_type){
 5080ffc:	defffb04 	addi	sp,sp,-20
 5081000:	dfc00415 	stw	ra,16(sp)
 5081004:	df000315 	stw	fp,12(sp)
 5081008:	df000304 	addi	fp,sp,12
 508100c:	2005883a 	mov	r2,r4
 5081010:	e0bffd05 	stb	r2,-12(fp)
    bool bSuccess;
    alt_u16 control;
    control = reg_file[5];
 5081014:	008142b4 	movhi	r2,1290
 5081018:	10a7b18b 	ldhu	r2,-24890(r2)
 508101c:	e0bfff8d 	sth	r2,-2(fp)
    control &= 0xFFF9;
 5081020:	e0ffff8b 	ldhu	r3,-2(fp)
 5081024:	00bffe44 	movi	r2,-7
 5081028:	1884703a 	and	r2,r3,r2
 508102c:	e0bfff8d 	sth	r2,-2(fp)
    switch(deemphasis_type){
 5081030:	e0bffd03 	ldbu	r2,-12(fp)
 5081034:	10c000e0 	cmpeqi	r3,r2,3
 5081038:	18000f1e 	bne	r3,zero,5081078 <AUDIO_DacDeemphasisControl+0x7c>
 508103c:	10c00108 	cmpgei	r3,r2,4
 5081040:	1800111e 	bne	r3,zero,5081088 <AUDIO_DacDeemphasisControl+0x8c>
 5081044:	10c00060 	cmpeqi	r3,r2,1
 5081048:	1800031e 	bne	r3,zero,5081058 <AUDIO_DacDeemphasisControl+0x5c>
 508104c:	108000a0 	cmpeqi	r2,r2,2
 5081050:	1000051e 	bne	r2,zero,5081068 <AUDIO_DacDeemphasisControl+0x6c>
 5081054:	00000c06 	br	5081088 <AUDIO_DacDeemphasisControl+0x8c>
        case DEEMPHASIS_48K: control |= ((0x03) << 1); break;
 5081058:	e0bfff8b 	ldhu	r2,-2(fp)
 508105c:	10800194 	ori	r2,r2,6
 5081060:	e0bfff8d 	sth	r2,-2(fp)
 5081064:	00000806 	br	5081088 <AUDIO_DacDeemphasisControl+0x8c>
        case DEEMPHASIS_44K1: control |= ((0x02) << 1); break;
 5081068:	e0bfff8b 	ldhu	r2,-2(fp)
 508106c:	10800114 	ori	r2,r2,4
 5081070:	e0bfff8d 	sth	r2,-2(fp)
 5081074:	00000406 	br	5081088 <AUDIO_DacDeemphasisControl+0x8c>
        case DEEMPHASIS_32K: control |= ((0x01) << 1); break;
 5081078:	e0bfff8b 	ldhu	r2,-2(fp)
 508107c:	10800094 	ori	r2,r2,2
 5081080:	e0bfff8d 	sth	r2,-2(fp)
 5081084:	0001883a 	nop
    }
    bSuccess = aduio_RegWrite(5, control);  // Left Line In: set left line in volume
 5081088:	e0bfff8b 	ldhu	r2,-2(fp)
 508108c:	100b883a 	mov	r5,r2
 5081090:	01000144 	movi	r4,5
 5081094:	50818100 	call	5081810 <aduio_RegWrite>
 5081098:	e0bffe15 	stw	r2,-8(fp)
    return bSuccess;       
 508109c:	e0bffe17 	ldw	r2,-8(fp)
}
 50810a0:	e037883a 	mov	sp,fp
 50810a4:	dfc00117 	ldw	ra,4(sp)
 50810a8:	df000017 	ldw	fp,0(sp)
 50810ac:	dec00204 	addi	sp,sp,8
 50810b0:	f800283a 	ret

050810b4 <AUDIO_DacEnableZeroCross>:

bool AUDIO_DacEnableZeroCross(bool bEnable){
 50810b4:	defffa04 	addi	sp,sp,-24
 50810b8:	dfc00515 	stw	ra,20(sp)
 50810bc:	df000415 	stw	fp,16(sp)
 50810c0:	df000404 	addi	fp,sp,16
 50810c4:	e13ffc15 	stw	r4,-16(fp)
    bool bSuccess;
    alt_u16 control_l, control_r;
    alt_u16 mask;
    control_l = reg_file[2];
 50810c8:	008142b4 	movhi	r2,1290
 50810cc:	10a7b00b 	ldhu	r2,-24896(r2)
 50810d0:	e0bffe8d 	sth	r2,-6(fp)
    control_r = reg_file[3];
 50810d4:	008142b4 	movhi	r2,1290
 50810d8:	10a7b08b 	ldhu	r2,-24894(r2)
 50810dc:	e0bffe0d 	sth	r2,-8(fp)
    mask = 0x01 << 7;
 50810e0:	00802004 	movi	r2,128
 50810e4:	e0bffd8d 	sth	r2,-10(fp)
    if (bEnable){
 50810e8:	e0bffc17 	ldw	r2,-16(fp)
 50810ec:	10000926 	beq	r2,zero,5081114 <AUDIO_DacEnableZeroCross+0x60>
        control_l |= mask;
 50810f0:	e0fffe8b 	ldhu	r3,-6(fp)
 50810f4:	e0bffd8b 	ldhu	r2,-10(fp)
 50810f8:	1884b03a 	or	r2,r3,r2
 50810fc:	e0bffe8d 	sth	r2,-6(fp)
        control_r |= mask;
 5081100:	e0fffe0b 	ldhu	r3,-8(fp)
 5081104:	e0bffd8b 	ldhu	r2,-10(fp)
 5081108:	1884b03a 	or	r2,r3,r2
 508110c:	e0bffe0d 	sth	r2,-8(fp)
 5081110:	00000c06 	br	5081144 <AUDIO_DacEnableZeroCross+0x90>
    }else{        
        control_l &= ~mask;
 5081114:	e0bffd8b 	ldhu	r2,-10(fp)
 5081118:	0084303a 	nor	r2,zero,r2
 508111c:	1007883a 	mov	r3,r2
 5081120:	e0bffe8b 	ldhu	r2,-6(fp)
 5081124:	1884703a 	and	r2,r3,r2
 5081128:	e0bffe8d 	sth	r2,-6(fp)
        control_r &= ~mask;
 508112c:	e0bffd8b 	ldhu	r2,-10(fp)
 5081130:	0084303a 	nor	r2,zero,r2
 5081134:	1007883a 	mov	r3,r2
 5081138:	e0bffe0b 	ldhu	r2,-8(fp)
 508113c:	1884703a 	and	r2,r3,r2
 5081140:	e0bffe0d 	sth	r2,-8(fp)
    }        
    bSuccess = aduio_RegWrite(2, control_l);  // Left Line In: set left line in volume
 5081144:	e0bffe8b 	ldhu	r2,-6(fp)
 5081148:	100b883a 	mov	r5,r2
 508114c:	01000084 	movi	r4,2
 5081150:	50818100 	call	5081810 <aduio_RegWrite>
 5081154:	e0bfff15 	stw	r2,-4(fp)
    if (bSuccess)
 5081158:	e0bfff17 	ldw	r2,-4(fp)
 508115c:	10000526 	beq	r2,zero,5081174 <AUDIO_DacEnableZeroCross+0xc0>
        bSuccess = aduio_RegWrite(3, control_r);  // Left Line In: set left line in volume
 5081160:	e0bffe0b 	ldhu	r2,-8(fp)
 5081164:	100b883a 	mov	r5,r2
 5081168:	010000c4 	movi	r4,3
 508116c:	50818100 	call	5081810 <aduio_RegWrite>
 5081170:	e0bfff15 	stw	r2,-4(fp)
    return bSuccess;      
 5081174:	e0bfff17 	ldw	r2,-4(fp)
}
 5081178:	e037883a 	mov	sp,fp
 508117c:	dfc00117 	ldw	ra,4(sp)
 5081180:	df000017 	ldw	fp,0(sp)
 5081184:	dec00204 	addi	sp,sp,8
 5081188:	f800283a 	ret

0508118c <AUDIO_DacEnableSoftMute>:

bool AUDIO_DacEnableSoftMute(bool bEnable){
 508118c:	defffb04 	addi	sp,sp,-20
 5081190:	dfc00415 	stw	ra,16(sp)
 5081194:	df000315 	stw	fp,12(sp)
 5081198:	df000304 	addi	fp,sp,12
 508119c:	e13ffd15 	stw	r4,-12(fp)
    bool bSuccess;
    alt_u16 control;
    alt_u16 mask;
    control = reg_file[5];
 50811a0:	008142b4 	movhi	r2,1290
 50811a4:	10a7b18b 	ldhu	r2,-24890(r2)
 50811a8:	e0bfff8d 	sth	r2,-2(fp)
    mask = 0x01 << 3;
 50811ac:	00800204 	movi	r2,8
 50811b0:	e0bfff0d 	sth	r2,-4(fp)
    if (bEnable)
 50811b4:	e0bffd17 	ldw	r2,-12(fp)
 50811b8:	10000526 	beq	r2,zero,50811d0 <AUDIO_DacEnableSoftMute+0x44>
        control |= mask;
 50811bc:	e0ffff8b 	ldhu	r3,-2(fp)
 50811c0:	e0bfff0b 	ldhu	r2,-4(fp)
 50811c4:	1884b03a 	or	r2,r3,r2
 50811c8:	e0bfff8d 	sth	r2,-2(fp)
 50811cc:	00000606 	br	50811e8 <AUDIO_DacEnableSoftMute+0x5c>
    else        
        control &= ~mask;
 50811d0:	e0bfff0b 	ldhu	r2,-4(fp)
 50811d4:	0084303a 	nor	r2,zero,r2
 50811d8:	1007883a 	mov	r3,r2
 50811dc:	e0bfff8b 	ldhu	r2,-2(fp)
 50811e0:	1884703a 	and	r2,r3,r2
 50811e4:	e0bfff8d 	sth	r2,-2(fp)
    bSuccess = aduio_RegWrite(5, control);  // Left Line In: set left line in volume
 50811e8:	e0bfff8b 	ldhu	r2,-2(fp)
 50811ec:	100b883a 	mov	r5,r2
 50811f0:	01000144 	movi	r4,5
 50811f4:	50818100 	call	5081810 <aduio_RegWrite>
 50811f8:	e0bffe15 	stw	r2,-8(fp)
    return bSuccess;      
 50811fc:	e0bffe17 	ldw	r2,-8(fp)
}
 5081200:	e037883a 	mov	sp,fp
 5081204:	dfc00117 	ldw	ra,4(sp)
 5081208:	df000017 	ldw	fp,0(sp)
 508120c:	dec00204 	addi	sp,sp,8
 5081210:	f800283a 	ret

05081214 <AUDIO_MicMute>:

bool AUDIO_MicMute(bool bMute){
 5081214:	defffb04 	addi	sp,sp,-20
 5081218:	dfc00415 	stw	ra,16(sp)
 508121c:	df000315 	stw	fp,12(sp)
 5081220:	df000304 	addi	fp,sp,12
 5081224:	e13ffd15 	stw	r4,-12(fp)
    bool bSuccess;
    alt_u16 control;
    alt_u16 mask;
    control = reg_file[4];
 5081228:	008142b4 	movhi	r2,1290
 508122c:	10a7b10b 	ldhu	r2,-24892(r2)
 5081230:	e0bfff8d 	sth	r2,-2(fp)
    mask = 0x01 << 1;
 5081234:	00800084 	movi	r2,2
 5081238:	e0bfff0d 	sth	r2,-4(fp)
    if (bMute)
 508123c:	e0bffd17 	ldw	r2,-12(fp)
 5081240:	10000526 	beq	r2,zero,5081258 <AUDIO_MicMute+0x44>
        control |= mask;
 5081244:	e0ffff8b 	ldhu	r3,-2(fp)
 5081248:	e0bfff0b 	ldhu	r2,-4(fp)
 508124c:	1884b03a 	or	r2,r3,r2
 5081250:	e0bfff8d 	sth	r2,-2(fp)
 5081254:	00000606 	br	5081270 <AUDIO_MicMute+0x5c>
    else        
        control &= ~mask;
 5081258:	e0bfff0b 	ldhu	r2,-4(fp)
 508125c:	0084303a 	nor	r2,zero,r2
 5081260:	1007883a 	mov	r3,r2
 5081264:	e0bfff8b 	ldhu	r2,-2(fp)
 5081268:	1884703a 	and	r2,r3,r2
 508126c:	e0bfff8d 	sth	r2,-2(fp)
    bSuccess = aduio_RegWrite(4, control);  // Left Line In: set left line in volume
 5081270:	e0bfff8b 	ldhu	r2,-2(fp)
 5081274:	100b883a 	mov	r5,r2
 5081278:	01000104 	movi	r4,4
 508127c:	50818100 	call	5081810 <aduio_RegWrite>
 5081280:	e0bffe15 	stw	r2,-8(fp)
    return bSuccess;        
 5081284:	e0bffe17 	ldw	r2,-8(fp)
}
 5081288:	e037883a 	mov	sp,fp
 508128c:	dfc00117 	ldw	ra,4(sp)
 5081290:	df000017 	ldw	fp,0(sp)
 5081294:	dec00204 	addi	sp,sp,8
 5081298:	f800283a 	ret

0508129c <AUDIO_LineInMute>:

bool AUDIO_LineInMute(bool bMute){
 508129c:	defffa04 	addi	sp,sp,-24
 50812a0:	dfc00515 	stw	ra,20(sp)
 50812a4:	df000415 	stw	fp,16(sp)
 50812a8:	df000404 	addi	fp,sp,16
 50812ac:	e13ffc15 	stw	r4,-16(fp)
    bool bSuccess;
    alt_u16 control_l, control_r;
    alt_u16 mask;
    control_l = reg_file[0];
 50812b0:	008142b4 	movhi	r2,1290
 50812b4:	10a7af0b 	ldhu	r2,-24900(r2)
 50812b8:	e0bffe8d 	sth	r2,-6(fp)
    control_r = reg_file[1];
 50812bc:	008142b4 	movhi	r2,1290
 50812c0:	10a7af8b 	ldhu	r2,-24898(r2)
 50812c4:	e0bffe0d 	sth	r2,-8(fp)
    mask = 0x01 << 7;
 50812c8:	00802004 	movi	r2,128
 50812cc:	e0bffd8d 	sth	r2,-10(fp)
    if (bMute){
 50812d0:	e0bffc17 	ldw	r2,-16(fp)
 50812d4:	10000926 	beq	r2,zero,50812fc <AUDIO_LineInMute+0x60>
        control_l |= mask;
 50812d8:	e0fffe8b 	ldhu	r3,-6(fp)
 50812dc:	e0bffd8b 	ldhu	r2,-10(fp)
 50812e0:	1884b03a 	or	r2,r3,r2
 50812e4:	e0bffe8d 	sth	r2,-6(fp)
        control_r |= mask;
 50812e8:	e0fffe0b 	ldhu	r3,-8(fp)
 50812ec:	e0bffd8b 	ldhu	r2,-10(fp)
 50812f0:	1884b03a 	or	r2,r3,r2
 50812f4:	e0bffe0d 	sth	r2,-8(fp)
 50812f8:	00000c06 	br	508132c <AUDIO_LineInMute+0x90>
    }else{        
        control_l &= ~mask;
 50812fc:	e0bffd8b 	ldhu	r2,-10(fp)
 5081300:	0084303a 	nor	r2,zero,r2
 5081304:	1007883a 	mov	r3,r2
 5081308:	e0bffe8b 	ldhu	r2,-6(fp)
 508130c:	1884703a 	and	r2,r3,r2
 5081310:	e0bffe8d 	sth	r2,-6(fp)
        control_r &= ~mask;
 5081314:	e0bffd8b 	ldhu	r2,-10(fp)
 5081318:	0084303a 	nor	r2,zero,r2
 508131c:	1007883a 	mov	r3,r2
 5081320:	e0bffe0b 	ldhu	r2,-8(fp)
 5081324:	1884703a 	and	r2,r3,r2
 5081328:	e0bffe0d 	sth	r2,-8(fp)
    }        
    bSuccess = aduio_RegWrite(0, control_l);  // Left Line In: set left line in volume
 508132c:	e0bffe8b 	ldhu	r2,-6(fp)
 5081330:	100b883a 	mov	r5,r2
 5081334:	0009883a 	mov	r4,zero
 5081338:	50818100 	call	5081810 <aduio_RegWrite>
 508133c:	e0bfff15 	stw	r2,-4(fp)
    if (bSuccess)
 5081340:	e0bfff17 	ldw	r2,-4(fp)
 5081344:	10000526 	beq	r2,zero,508135c <AUDIO_LineInMute+0xc0>
        bSuccess = aduio_RegWrite(1, control_r);  // Left Line In: set left line in volume
 5081348:	e0bffe0b 	ldhu	r2,-8(fp)
 508134c:	100b883a 	mov	r5,r2
 5081350:	01000044 	movi	r4,1
 5081354:	50818100 	call	5081810 <aduio_RegWrite>
 5081358:	e0bfff15 	stw	r2,-4(fp)
    return bSuccess;        
 508135c:	e0bfff17 	ldw	r2,-4(fp)
}
 5081360:	e037883a 	mov	sp,fp
 5081364:	dfc00117 	ldw	ra,4(sp)
 5081368:	df000017 	ldw	fp,0(sp)
 508136c:	dec00204 	addi	sp,sp,8
 5081370:	f800283a 	ret

05081374 <AUDIO_SetInputSource>:



bool AUDIO_SetInputSource(alt_u8 InputSource){
 5081374:	defffb04 	addi	sp,sp,-20
 5081378:	dfc00415 	stw	ra,16(sp)
 508137c:	df000315 	stw	fp,12(sp)
 5081380:	df000304 	addi	fp,sp,12
 5081384:	2005883a 	mov	r2,r4
 5081388:	e0bffd05 	stb	r2,-12(fp)
    bool bSuccess;
    alt_u16 control;
    alt_u16 mask;
    control = reg_file[4];
 508138c:	008142b4 	movhi	r2,1290
 5081390:	10a7b10b 	ldhu	r2,-24892(r2)
 5081394:	e0bfff8d 	sth	r2,-2(fp)
    mask = 0x01 << 2;
 5081398:	00800104 	movi	r2,4
 508139c:	e0bfff0d 	sth	r2,-4(fp)
    if (InputSource == SOURCE_MIC)
 50813a0:	e0bffd03 	ldbu	r2,-12(fp)
 50813a4:	1000051e 	bne	r2,zero,50813bc <AUDIO_SetInputSource+0x48>
        control |= mask;
 50813a8:	e0ffff8b 	ldhu	r3,-2(fp)
 50813ac:	e0bfff0b 	ldhu	r2,-4(fp)
 50813b0:	1884b03a 	or	r2,r3,r2
 50813b4:	e0bfff8d 	sth	r2,-2(fp)
 50813b8:	00000606 	br	50813d4 <AUDIO_SetInputSource+0x60>
    else        
        control &= ~mask;
 50813bc:	e0bfff0b 	ldhu	r2,-4(fp)
 50813c0:	0084303a 	nor	r2,zero,r2
 50813c4:	1007883a 	mov	r3,r2
 50813c8:	e0bfff8b 	ldhu	r2,-2(fp)
 50813cc:	1884703a 	and	r2,r3,r2
 50813d0:	e0bfff8d 	sth	r2,-2(fp)
    bSuccess = aduio_RegWrite(4, control);  // Left Line In: set left line in volume
 50813d4:	e0bfff8b 	ldhu	r2,-2(fp)
 50813d8:	100b883a 	mov	r5,r2
 50813dc:	01000104 	movi	r4,4
 50813e0:	50818100 	call	5081810 <aduio_RegWrite>
 50813e4:	e0bffe15 	stw	r2,-8(fp)
    return bSuccess;       
 50813e8:	e0bffe17 	ldw	r2,-8(fp)
}
 50813ec:	e037883a 	mov	sp,fp
 50813f0:	dfc00117 	ldw	ra,4(sp)
 50813f4:	df000017 	ldw	fp,0(sp)
 50813f8:	dec00204 	addi	sp,sp,8
 50813fc:	f800283a 	ret

05081400 <AUDIO_SetSampleRate>:

// See datasheet page 39
bool AUDIO_SetSampleRate(alt_u8 SampleRate){
 5081400:	defffb04 	addi	sp,sp,-20
 5081404:	dfc00415 	stw	ra,16(sp)
 5081408:	df000315 	stw	fp,12(sp)
 508140c:	df000304 	addi	fp,sp,12
 5081410:	2005883a 	mov	r2,r4
 5081414:	e0bffd05 	stb	r2,-12(fp)
    bool bSuccess;
    alt_u16 control;
    control = 0;
 5081418:	e03fff8d 	sth	zero,-2(fp)

    switch(SampleRate){
 508141c:	e0bffd03 	ldbu	r2,-12(fp)
 5081420:	10c001e8 	cmpgeui	r3,r2,7
 5081424:	1800201e 	bne	r3,zero,50814a8 <AUDIO_SetSampleRate+0xa8>
 5081428:	100690ba 	slli	r3,r2,2
 508142c:	00814234 	movhi	r2,1288
 5081430:	1885883a 	add	r2,r3,r2
 5081434:	10850f17 	ldw	r2,5180(r2)
 5081438:	1000683a 	jmp	r2
 508143c:	05081458 	cmpnei	r20,zero,8273
 5081440:	05081460 	cmpeqi	r20,zero,8273
 5081444:	0508146c 	andhi	r20,zero,8273
 5081448:	05081478 	rdprs	r20,zero,8273
 508144c:	05081484 	movi	r20,8274
 5081450:	05081490 	cmplti	r20,zero,8274
 5081454:	0508149c 	xori	r20,zero,8274
         // MCLK = 18.432
        case RATE_ADC48K_DAC48K: control = (0x0) << 2; break;
 5081458:	e03fff8d 	sth	zero,-2(fp)
 508145c:	00001206 	br	50814a8 <AUDIO_SetSampleRate+0xa8>
        case RATE_ADC48K_DAC8K: control = (0x1) << 2; break;
 5081460:	00800104 	movi	r2,4
 5081464:	e0bfff8d 	sth	r2,-2(fp)
 5081468:	00000f06 	br	50814a8 <AUDIO_SetSampleRate+0xa8>
        case RATE_ADC8K_DAC48K: control = (0x2) << 2; break;
 508146c:	00800204 	movi	r2,8
 5081470:	e0bfff8d 	sth	r2,-2(fp)
 5081474:	00000c06 	br	50814a8 <AUDIO_SetSampleRate+0xa8>
        case RATE_ADC8K_DAC8K: control = (0x3) << 2; break;
 5081478:	00800304 	movi	r2,12
 508147c:	e0bfff8d 	sth	r2,-2(fp)
 5081480:	00000906 	br	50814a8 <AUDIO_SetSampleRate+0xa8>
        case RATE_ADC32K_DAC32K: control = (0x6) << 2; break;
 5081484:	00800604 	movi	r2,24
 5081488:	e0bfff8d 	sth	r2,-2(fp)
 508148c:	00000606 	br	50814a8 <AUDIO_SetSampleRate+0xa8>
        case RATE_ADC96K_DAC96K: control = (0x7) << 2; break;
 5081490:	00800704 	movi	r2,28
 5081494:	e0bfff8d 	sth	r2,-2(fp)
 5081498:	00000306 	br	50814a8 <AUDIO_SetSampleRate+0xa8>
        case RATE_ADC44K1_DAC44K1: control = (0x8) << 2; break;
 508149c:	00800804 	movi	r2,32
 50814a0:	e0bfff8d 	sth	r2,-2(fp)
 50814a4:	0001883a 	nop
        // MCLK = 11.2896
      //  case RATE_ADC44K1_DAC8K: control = (0x9) << 2; break;
      //  case RATE_ADC8K_DAC44K1: control = (0xA) << 2; break;
    }
    control |= 0x02; // BOSR=1 (384fs = 384*48k = 18.432M)
 50814a8:	e0bfff8b 	ldhu	r2,-2(fp)
 50814ac:	10800094 	ori	r2,r2,2
 50814b0:	e0bfff8d 	sth	r2,-2(fp)
        
    bSuccess = aduio_RegWrite(8, control);  // Left Line In: set left line in volume
 50814b4:	e0bfff8b 	ldhu	r2,-2(fp)
 50814b8:	100b883a 	mov	r5,r2
 50814bc:	01000204 	movi	r4,8
 50814c0:	50818100 	call	5081810 <aduio_RegWrite>
 50814c4:	e0bffe15 	stw	r2,-8(fp)
    return bSuccess;      
 50814c8:	e0bffe17 	ldw	r2,-8(fp)
}
 50814cc:	e037883a 	mov	sp,fp
 50814d0:	dfc00117 	ldw	ra,4(sp)
 50814d4:	df000017 	ldw	fp,0(sp)
 50814d8:	dec00204 	addi	sp,sp,8
 50814dc:	f800283a 	ret

050814e0 <AUDIO_SetLineInVol>:





bool AUDIO_SetLineInVol(alt_u16 l_vol, alt_u16 r_vol){
 50814e0:	defffa04 	addi	sp,sp,-24
 50814e4:	dfc00515 	stw	ra,20(sp)
 50814e8:	df000415 	stw	fp,16(sp)
 50814ec:	df000404 	addi	fp,sp,16
 50814f0:	2005883a 	mov	r2,r4
 50814f4:	2807883a 	mov	r3,r5
 50814f8:	e0bffd0d 	sth	r2,-12(fp)
 50814fc:	1805883a 	mov	r2,r3
 5081500:	e0bffc0d 	sth	r2,-16(fp)
    bool bSuccess;
    alt_u16 control;
    
    // left
    control = reg_file[0];
 5081504:	008142b4 	movhi	r2,1290
 5081508:	10a7af0b 	ldhu	r2,-24900(r2)
 508150c:	e0bffe8d 	sth	r2,-6(fp)
    control &= 0xFFE0;
 5081510:	e0fffe8b 	ldhu	r3,-6(fp)
 5081514:	00bff804 	movi	r2,-32
 5081518:	1884703a 	and	r2,r3,r2
 508151c:	e0bffe8d 	sth	r2,-6(fp)
    control += l_vol & 0x1F;
 5081520:	e0bffd0b 	ldhu	r2,-12(fp)
 5081524:	108007cc 	andi	r2,r2,31
 5081528:	1007883a 	mov	r3,r2
 508152c:	e0bffe8b 	ldhu	r2,-6(fp)
 5081530:	10c5883a 	add	r2,r2,r3
 5081534:	e0bffe8d 	sth	r2,-6(fp)
    bSuccess = aduio_RegWrite(0, control);
 5081538:	e0bffe8b 	ldhu	r2,-6(fp)
 508153c:	100b883a 	mov	r5,r2
 5081540:	0009883a 	mov	r4,zero
 5081544:	50818100 	call	5081810 <aduio_RegWrite>
 5081548:	e0bfff15 	stw	r2,-4(fp)
    
    if (bSuccess){
 508154c:	e0bfff17 	ldw	r2,-4(fp)
 5081550:	10001226 	beq	r2,zero,508159c <AUDIO_SetLineInVol+0xbc>
        // right
        control = reg_file[1];
 5081554:	008142b4 	movhi	r2,1290
 5081558:	10a7af8b 	ldhu	r2,-24898(r2)
 508155c:	e0bffe8d 	sth	r2,-6(fp)
        control &= 0xFFE0;
 5081560:	e0fffe8b 	ldhu	r3,-6(fp)
 5081564:	00bff804 	movi	r2,-32
 5081568:	1884703a 	and	r2,r3,r2
 508156c:	e0bffe8d 	sth	r2,-6(fp)
        control += r_vol & 0x1F;
 5081570:	e0bffc0b 	ldhu	r2,-16(fp)
 5081574:	108007cc 	andi	r2,r2,31
 5081578:	1007883a 	mov	r3,r2
 508157c:	e0bffe8b 	ldhu	r2,-6(fp)
 5081580:	10c5883a 	add	r2,r2,r3
 5081584:	e0bffe8d 	sth	r2,-6(fp)
        bSuccess = aduio_RegWrite(1, control);        
 5081588:	e0bffe8b 	ldhu	r2,-6(fp)
 508158c:	100b883a 	mov	r5,r2
 5081590:	01000044 	movi	r4,1
 5081594:	50818100 	call	5081810 <aduio_RegWrite>
 5081598:	e0bfff15 	stw	r2,-4(fp)
    }
    
    AUDIO_DEBUG(("[AUDIO] set Line-In vol(%d,%d) %s\r\n", l_vol, r_vol, bSuccess?"success":"fail"));        
 508159c:	e0fffd0b 	ldhu	r3,-12(fp)
 50815a0:	e13ffc0b 	ldhu	r4,-16(fp)
 50815a4:	e0bfff17 	ldw	r2,-4(fp)
 50815a8:	10000326 	beq	r2,zero,50815b8 <AUDIO_SetLineInVol+0xd8>
 50815ac:	00814274 	movhi	r2,1289
 50815b0:	1097b504 	addi	r2,r2,24276
 50815b4:	00000206 	br	50815c0 <AUDIO_SetLineInVol+0xe0>
 50815b8:	00814274 	movhi	r2,1289
 50815bc:	1097b704 	addi	r2,r2,24284
 50815c0:	100f883a 	mov	r7,r2
 50815c4:	200d883a 	mov	r6,r4
 50815c8:	180b883a 	mov	r5,r3
 50815cc:	01014274 	movhi	r4,1289
 50815d0:	2117bf04 	addi	r4,r4,24316
 50815d4:	50825900 	call	5082590 <myprintf>
    return bSuccess;
 50815d8:	e0bfff17 	ldw	r2,-4(fp)
}
 50815dc:	e037883a 	mov	sp,fp
 50815e0:	dfc00117 	ldw	ra,4(sp)
 50815e4:	df000017 	ldw	fp,0(sp)
 50815e8:	dec00204 	addi	sp,sp,8
 50815ec:	f800283a 	ret

050815f0 <AUDIO_SetLineOutVol>:

bool AUDIO_SetLineOutVol(alt_u16 l_vol, alt_u16 r_vol){
 50815f0:	defffa04 	addi	sp,sp,-24
 50815f4:	dfc00515 	stw	ra,20(sp)
 50815f8:	df000415 	stw	fp,16(sp)
 50815fc:	df000404 	addi	fp,sp,16
 5081600:	2005883a 	mov	r2,r4
 5081604:	2807883a 	mov	r3,r5
 5081608:	e0bffd0d 	sth	r2,-12(fp)
 508160c:	1805883a 	mov	r2,r3
 5081610:	e0bffc0d 	sth	r2,-16(fp)
    bool bSuccess;
    alt_u16 control;

 
    // left
    control = reg_file[2];
 5081614:	008142b4 	movhi	r2,1290
 5081618:	10a7b00b 	ldhu	r2,-24896(r2)
 508161c:	e0bffe8d 	sth	r2,-6(fp)
    control &= 0xFF80;
 5081620:	e0fffe8b 	ldhu	r3,-6(fp)
 5081624:	00bfe004 	movi	r2,-128
 5081628:	1884703a 	and	r2,r3,r2
 508162c:	e0bffe8d 	sth	r2,-6(fp)
    control += l_vol & 0x7F;
 5081630:	e0bffd0b 	ldhu	r2,-12(fp)
 5081634:	10801fcc 	andi	r2,r2,127
 5081638:	1007883a 	mov	r3,r2
 508163c:	e0bffe8b 	ldhu	r2,-6(fp)
 5081640:	10c5883a 	add	r2,r2,r3
 5081644:	e0bffe8d 	sth	r2,-6(fp)
    bSuccess = aduio_RegWrite(2, control);
 5081648:	e0bffe8b 	ldhu	r2,-6(fp)
 508164c:	100b883a 	mov	r5,r2
 5081650:	01000084 	movi	r4,2
 5081654:	50818100 	call	5081810 <aduio_RegWrite>
 5081658:	e0bfff15 	stw	r2,-4(fp)
    
    if (bSuccess){
 508165c:	e0bfff17 	ldw	r2,-4(fp)
 5081660:	10001226 	beq	r2,zero,50816ac <AUDIO_SetLineOutVol+0xbc>
        // right
        control = reg_file[3];
 5081664:	008142b4 	movhi	r2,1290
 5081668:	10a7b08b 	ldhu	r2,-24894(r2)
 508166c:	e0bffe8d 	sth	r2,-6(fp)
        control &= 0xFF80;
 5081670:	e0fffe8b 	ldhu	r3,-6(fp)
 5081674:	00bfe004 	movi	r2,-128
 5081678:	1884703a 	and	r2,r3,r2
 508167c:	e0bffe8d 	sth	r2,-6(fp)
        control += r_vol & 0x7F;
 5081680:	e0bffc0b 	ldhu	r2,-16(fp)
 5081684:	10801fcc 	andi	r2,r2,127
 5081688:	1007883a 	mov	r3,r2
 508168c:	e0bffe8b 	ldhu	r2,-6(fp)
 5081690:	10c5883a 	add	r2,r2,r3
 5081694:	e0bffe8d 	sth	r2,-6(fp)
        bSuccess = aduio_RegWrite(3, control);        
 5081698:	e0bffe8b 	ldhu	r2,-6(fp)
 508169c:	100b883a 	mov	r5,r2
 50816a0:	010000c4 	movi	r4,3
 50816a4:	50818100 	call	5081810 <aduio_RegWrite>
 50816a8:	e0bfff15 	stw	r2,-4(fp)
    }    
    
    AUDIO_DEBUG(("[AUDIO] set Line-Out vol(%d,%d) %s\r\n", l_vol, r_vol, bSuccess?"success":"fail"));
 50816ac:	e0fffd0b 	ldhu	r3,-12(fp)
 50816b0:	e13ffc0b 	ldhu	r4,-16(fp)
 50816b4:	e0bfff17 	ldw	r2,-4(fp)
 50816b8:	10000326 	beq	r2,zero,50816c8 <AUDIO_SetLineOutVol+0xd8>
 50816bc:	00814274 	movhi	r2,1289
 50816c0:	1097b504 	addi	r2,r2,24276
 50816c4:	00000206 	br	50816d0 <AUDIO_SetLineOutVol+0xe0>
 50816c8:	00814274 	movhi	r2,1289
 50816cc:	1097b704 	addi	r2,r2,24284
 50816d0:	100f883a 	mov	r7,r2
 50816d4:	200d883a 	mov	r6,r4
 50816d8:	180b883a 	mov	r5,r3
 50816dc:	01014274 	movhi	r4,1289
 50816e0:	2117c804 	addi	r4,r4,24352
 50816e4:	50825900 	call	5082590 <myprintf>
    
    return bSuccess;
 50816e8:	e0bfff17 	ldw	r2,-4(fp)
}
 50816ec:	e037883a 	mov	sp,fp
 50816f0:	dfc00117 	ldw	ra,4(sp)
 50816f4:	df000017 	ldw	fp,0(sp)
 50816f8:	dec00204 	addi	sp,sp,8
 50816fc:	f800283a 	ret

05081700 <AUDIO_EnableByPass>:


bool AUDIO_EnableByPass(bool bEnable){
 5081700:	defffb04 	addi	sp,sp,-20
 5081704:	dfc00415 	stw	ra,16(sp)
 5081708:	df000315 	stw	fp,12(sp)
 508170c:	df000304 	addi	fp,sp,12
 5081710:	e13ffd15 	stw	r4,-12(fp)
    bool bSuccess;
    alt_u16 control;
    alt_u16 mask;
    control = reg_file[4];
 5081714:	008142b4 	movhi	r2,1290
 5081718:	10a7b10b 	ldhu	r2,-24892(r2)
 508171c:	e0bfff8d 	sth	r2,-2(fp)
    mask = 0x01 << 3;
 5081720:	00800204 	movi	r2,8
 5081724:	e0bfff0d 	sth	r2,-4(fp)
    if (bEnable)
 5081728:	e0bffd17 	ldw	r2,-12(fp)
 508172c:	10000526 	beq	r2,zero,5081744 <AUDIO_EnableByPass+0x44>
        control |= mask;
 5081730:	e0ffff8b 	ldhu	r3,-2(fp)
 5081734:	e0bfff0b 	ldhu	r2,-4(fp)
 5081738:	1884b03a 	or	r2,r3,r2
 508173c:	e0bfff8d 	sth	r2,-2(fp)
 5081740:	00000606 	br	508175c <AUDIO_EnableByPass+0x5c>
    else        
        control &= ~mask;
 5081744:	e0bfff0b 	ldhu	r2,-4(fp)
 5081748:	0084303a 	nor	r2,zero,r2
 508174c:	1007883a 	mov	r3,r2
 5081750:	e0bfff8b 	ldhu	r2,-2(fp)
 5081754:	1884703a 	and	r2,r3,r2
 5081758:	e0bfff8d 	sth	r2,-2(fp)
    bSuccess = aduio_RegWrite(4, control); 
 508175c:	e0bfff8b 	ldhu	r2,-2(fp)
 5081760:	100b883a 	mov	r5,r2
 5081764:	01000104 	movi	r4,4
 5081768:	50818100 	call	5081810 <aduio_RegWrite>
 508176c:	e0bffe15 	stw	r2,-8(fp)
    return bSuccess;  	
 5081770:	e0bffe17 	ldw	r2,-8(fp)
}
 5081774:	e037883a 	mov	sp,fp
 5081778:	dfc00117 	ldw	ra,4(sp)
 508177c:	df000017 	ldw	fp,0(sp)
 5081780:	dec00204 	addi	sp,sp,8
 5081784:	f800283a 	ret

05081788 <AUDIO_EnableSiteTone>:

bool AUDIO_EnableSiteTone(bool bEnable){
 5081788:	defffb04 	addi	sp,sp,-20
 508178c:	dfc00415 	stw	ra,16(sp)
 5081790:	df000315 	stw	fp,12(sp)
 5081794:	df000304 	addi	fp,sp,12
 5081798:	e13ffd15 	stw	r4,-12(fp)
    bool bSuccess;
    alt_u16 control;
    alt_u16 mask;
    control = reg_file[4];
 508179c:	008142b4 	movhi	r2,1290
 50817a0:	10a7b10b 	ldhu	r2,-24892(r2)
 50817a4:	e0bfff8d 	sth	r2,-2(fp)
    mask = 0x01 << 5;
 50817a8:	00800804 	movi	r2,32
 50817ac:	e0bfff0d 	sth	r2,-4(fp)
    if (bEnable)
 50817b0:	e0bffd17 	ldw	r2,-12(fp)
 50817b4:	10000526 	beq	r2,zero,50817cc <AUDIO_EnableSiteTone+0x44>
        control |= mask;
 50817b8:	e0ffff8b 	ldhu	r3,-2(fp)
 50817bc:	e0bfff0b 	ldhu	r2,-4(fp)
 50817c0:	1884b03a 	or	r2,r3,r2
 50817c4:	e0bfff8d 	sth	r2,-2(fp)
 50817c8:	00000606 	br	50817e4 <AUDIO_EnableSiteTone+0x5c>
    else        
        control &= ~mask;
 50817cc:	e0bfff0b 	ldhu	r2,-4(fp)
 50817d0:	0084303a 	nor	r2,zero,r2
 50817d4:	1007883a 	mov	r3,r2
 50817d8:	e0bfff8b 	ldhu	r2,-2(fp)
 50817dc:	1884703a 	and	r2,r3,r2
 50817e0:	e0bfff8d 	sth	r2,-2(fp)
    bSuccess = aduio_RegWrite(4, control); 
 50817e4:	e0bfff8b 	ldhu	r2,-2(fp)
 50817e8:	100b883a 	mov	r5,r2
 50817ec:	01000104 	movi	r4,4
 50817f0:	50818100 	call	5081810 <aduio_RegWrite>
 50817f4:	e0bffe15 	stw	r2,-8(fp)
    return bSuccess;        
 50817f8:	e0bffe17 	ldw	r2,-8(fp)
}
 50817fc:	e037883a 	mov	sp,fp
 5081800:	dfc00117 	ldw	ra,4(sp)
 5081804:	df000017 	ldw	fp,0(sp)
 5081808:	dec00204 	addi	sp,sp,8
 508180c:	f800283a 	ret

05081810 <aduio_RegWrite>:

/////////////////////////////////////////////////////////////////////////
///////////// Interla function body ////////////////////////////////////
/////////////////////////////////////////////////////////////////////////

bool aduio_RegWrite(alt_u8 reg_index, alt_u16 data16){
 5081810:	defff904 	addi	sp,sp,-28
 5081814:	dfc00615 	stw	ra,24(sp)
 5081818:	df000515 	stw	fp,20(sp)
 508181c:	df000504 	addi	fp,sp,20
 5081820:	2005883a 	mov	r2,r4
 5081824:	2807883a 	mov	r3,r5
 5081828:	e0bffd05 	stb	r2,-12(fp)
 508182c:	1805883a 	mov	r2,r3
 5081830:	e0bffc0d 	sth	r2,-16(fp)
    bool bSuccess;
    alt_u8 data, control;
    if (reg_index <= 10)
 5081834:	e0bffd03 	ldbu	r2,-12(fp)
 5081838:	108002e8 	cmpgeui	r2,r2,11
 508183c:	1000061e 	bne	r2,zero,5081858 <aduio_RegWrite+0x48>
        reg_file[reg_index] = data16;
 5081840:	e0bffd03 	ldbu	r2,-12(fp)
 5081844:	1089883a 	add	r4,r2,r2
 5081848:	e0fffc0b 	ldhu	r3,-16(fp)
 508184c:	008142b4 	movhi	r2,1290
 5081850:	2085883a 	add	r2,r4,r2
 5081854:	10e7af0d 	sth	r3,-24900(r2)
    data = data16 & 0xFF;
 5081858:	e0bffc0b 	ldhu	r2,-16(fp)
 508185c:	e0bfffc5 	stb	r2,-1(fp)
    control = (reg_index << 1) & 0xFE;
 5081860:	e0bffd03 	ldbu	r2,-12(fp)
 5081864:	1085883a 	add	r2,r2,r2
 5081868:	e0bfff85 	stb	r2,-2(fp)
    control |= ((data16 >> 8) & 0x01);
 508186c:	e0bffc0b 	ldhu	r2,-16(fp)
 5081870:	1004d23a 	srli	r2,r2,8
 5081874:	1080004c 	andi	r2,r2,1
 5081878:	1007883a 	mov	r3,r2
 508187c:	e0bfff83 	ldbu	r2,-2(fp)
 5081880:	1884b03a 	or	r2,r3,r2
 5081884:	e0bfff85 	stb	r2,-2(fp)
    AUDIO_DEBUG(("[AUDIO] set audio reg[%02d] = %04Xh\r\n", reg_index, data16));
 5081888:	e0bffd03 	ldbu	r2,-12(fp)
 508188c:	e0fffc0b 	ldhu	r3,-16(fp)
 5081890:	180d883a 	mov	r6,r3
 5081894:	100b883a 	mov	r5,r2
 5081898:	01014274 	movhi	r4,1289
 508189c:	2117d204 	addi	r4,r4,24392
 50818a0:	50825900 	call	5082590 <myprintf>
    bSuccess = I2C_Write(I2C_SCL_BASE, I2C_SDA_BASE, I2C_AUDIO_ADDR, control, data);
 50818a4:	e0ffff83 	ldbu	r3,-2(fp)
 50818a8:	e0bfffc3 	ldbu	r2,-1(fp)
 50818ac:	d8800015 	stw	r2,0(sp)
 50818b0:	180f883a 	mov	r7,r3
 50818b4:	01800d04 	movi	r6,52
 50818b8:	01410034 	movhi	r5,1024
 50818bc:	29400804 	addi	r5,r5,32
 50818c0:	01010034 	movhi	r4,1024
 50818c4:	21000c04 	addi	r4,r4,48
 50818c8:	5081a3c0 	call	5081a3c <I2C_Write>
 50818cc:	e0bffe15 	stw	r2,-8(fp)
    if (!bSuccess) 
 50818d0:	e0bffe17 	ldw	r2,-8(fp)
 50818d4:	1000031e 	bne	r2,zero,50818e4 <aduio_RegWrite+0xd4>
        AUDIO_DEBUG(("[AUDIO] write reg fail!!!!\r\n"));
 50818d8:	01014274 	movhi	r4,1289
 50818dc:	2117dc04 	addi	r4,r4,24432
 50818e0:	50825900 	call	5082590 <myprintf>
    usleep(50*1000);  // wait audio chip read        
 50818e4:	0130d414 	movui	r4,50000
 50818e8:	50935800 	call	5093580 <usleep>
    return bSuccess;        
 50818ec:	e0bffe17 	ldw	r2,-8(fp)
}
 50818f0:	e037883a 	mov	sp,fp
 50818f4:	dfc00117 	ldw	ra,4(sp)
 50818f8:	df000017 	ldw	fp,0(sp)
 50818fc:	dec00204 	addi	sp,sp,8
 5081900:	f800283a 	ret

05081904 <AUDIO_DacFifoNotFull>:

/////////////////////////////////////////////////////////////////////////
///////////// Audio Play & Recor ////////////////////////////////////////
/////////////////////////////////////////////////////////////////////////
// check whether the dac-fifo is full.
bool AUDIO_DacFifoNotFull(void){
 5081904:	defffe04 	addi	sp,sp,-8
 5081908:	df000115 	stw	fp,4(sp)
 508190c:	df000104 	addi	fp,sp,4
    bool bReady;
    bReady = AUDIO_DAC_FULL()?FALSE:TRUE;
 5081910:	00814434 	movhi	r2,1296
 5081914:	10840537 	ldwio	r2,4116(r2)
 5081918:	1080004c 	andi	r2,r2,1
 508191c:	1005003a 	cmpeq	r2,r2,zero
 5081920:	10803fcc 	andi	r2,r2,255
 5081924:	e0bfff15 	stw	r2,-4(fp)
    return bReady;
 5081928:	e0bfff17 	ldw	r2,-4(fp)
}
 508192c:	e037883a 	mov	sp,fp
 5081930:	df000017 	ldw	fp,0(sp)
 5081934:	dec00104 	addi	sp,sp,4
 5081938:	f800283a 	ret

0508193c <AUDIO_DacFifoSetData>:

// call AUDIO_PlayIsReady to make sure the fifo is not full before call this function 
void AUDIO_DacFifoSetData(short ch_left, short ch_right){
 508193c:	defffd04 	addi	sp,sp,-12
 5081940:	df000215 	stw	fp,8(sp)
 5081944:	df000204 	addi	fp,sp,8
 5081948:	2005883a 	mov	r2,r4
 508194c:	2807883a 	mov	r3,r5
 5081950:	e0bfff0d 	sth	r2,-4(fp)
 5081954:	1805883a 	mov	r2,r3
 5081958:	e0bffe0d 	sth	r2,-8(fp)
    AUDIO_DAC_WRITE_L(ch_left);
 508195c:	e0ffff0f 	ldh	r3,-4(fp)
 5081960:	00814434 	movhi	r2,1296
 5081964:	10c40035 	stwio	r3,4096(r2)
    AUDIO_DAC_WRITE_R(ch_right);
 5081968:	e0fffe0f 	ldh	r3,-8(fp)
 508196c:	00814434 	movhi	r2,1296
 5081970:	10c40135 	stwio	r3,4100(r2)
}
 5081974:	0001883a 	nop
 5081978:	e037883a 	mov	sp,fp
 508197c:	df000017 	ldw	fp,0(sp)
 5081980:	dec00104 	addi	sp,sp,4
 5081984:	f800283a 	ret

05081988 <AUDIO_AdcFifoNotEmpty>:

// wheck whether there is data available in adc-fifo
bool AUDIO_AdcFifoNotEmpty(void){
 5081988:	defffe04 	addi	sp,sp,-8
 508198c:	df000115 	stw	fp,4(sp)
 5081990:	df000104 	addi	fp,sp,4
    bool bReady;
    bReady = AUDIO_ADC_EMPTY()?FALSE:TRUE;
 5081994:	00814434 	movhi	r2,1296
 5081998:	10840537 	ldwio	r2,4116(r2)
 508199c:	1080008c 	andi	r2,r2,2
 50819a0:	1005003a 	cmpeq	r2,r2,zero
 50819a4:	10803fcc 	andi	r2,r2,255
 50819a8:	e0bfff15 	stw	r2,-4(fp)
    return bReady;
 50819ac:	e0bfff17 	ldw	r2,-4(fp)
}
 50819b0:	e037883a 	mov	sp,fp
 50819b4:	df000017 	ldw	fp,0(sp)
 50819b8:	dec00104 	addi	sp,sp,4
 50819bc:	f800283a 	ret

050819c0 <AUDIO_AdcFifoGetData>:


// make sure the data is available before call this fucntion
void AUDIO_AdcFifoGetData(short *pch_left, short *pch_right){
 50819c0:	defffd04 	addi	sp,sp,-12
 50819c4:	df000215 	stw	fp,8(sp)
 50819c8:	df000204 	addi	fp,sp,8
 50819cc:	e13fff15 	stw	r4,-4(fp)
 50819d0:	e17ffe15 	stw	r5,-8(fp)
    *pch_left = AUDIO_ADC_READ_L();
 50819d4:	00814434 	movhi	r2,1296
 50819d8:	10840237 	ldwio	r2,4104(r2)
 50819dc:	1007883a 	mov	r3,r2
 50819e0:	e0bfff17 	ldw	r2,-4(fp)
 50819e4:	10c0000d 	sth	r3,0(r2)
    *pch_right = AUDIO_ADC_READ_R();
 50819e8:	00814434 	movhi	r2,1296
 50819ec:	10840337 	ldwio	r2,4108(r2)
 50819f0:	1007883a 	mov	r3,r2
 50819f4:	e0bffe17 	ldw	r2,-8(fp)
 50819f8:	10c0000d 	sth	r3,0(r2)
    
}
 50819fc:	0001883a 	nop
 5081a00:	e037883a 	mov	sp,fp
 5081a04:	df000017 	ldw	fp,0(sp)
 5081a08:	dec00104 	addi	sp,sp,4
 5081a0c:	f800283a 	ret

05081a10 <AUDIO_FifoClear>:

void AUDIO_FifoClear(void){
 5081a10:	deffff04 	addi	sp,sp,-4
 5081a14:	df000015 	stw	fp,0(sp)
 5081a18:	d839883a 	mov	fp,sp
    AUDIO_FIFO_CLEAR();
 5081a1c:	00c00044 	movi	r3,1
 5081a20:	00814434 	movhi	r2,1296
 5081a24:	10c40435 	stwio	r3,4112(r2)
}
 5081a28:	0001883a 	nop
 5081a2c:	e037883a 	mov	sp,fp
 5081a30:	df000017 	ldw	fp,0(sp)
 5081a34:	dec00104 	addi	sp,sp,4
 5081a38:	f800283a 	ret

05081a3c <I2C_Write>:
bool i2c_write(alt_u32 clk_base, alt_u32 data_base, alt_u8 Data);
void i2c_read(alt_u32 clk_base, alt_u32 data_base, alt_u8 *pData, bool bAck);



bool I2C_Write(alt_u32 clk_base, alt_u32 data_base, alt_8 DeviceAddr, alt_u8 ControlAddr, alt_u8 ControlData){
 5081a3c:	defff804 	addi	sp,sp,-32
 5081a40:	dfc00715 	stw	ra,28(sp)
 5081a44:	df000615 	stw	fp,24(sp)
 5081a48:	df000604 	addi	fp,sp,24
 5081a4c:	e13ffe15 	stw	r4,-8(fp)
 5081a50:	e17ffd15 	stw	r5,-12(fp)
 5081a54:	3007883a 	mov	r3,r6
 5081a58:	3809883a 	mov	r4,r7
 5081a5c:	e0800217 	ldw	r2,8(fp)
 5081a60:	e0fffc05 	stb	r3,-16(fp)
 5081a64:	2007883a 	mov	r3,r4
 5081a68:	e0fffb05 	stb	r3,-20(fp)
 5081a6c:	e0bffa05 	stb	r2,-24(fp)
    bool bSuccess = TRUE;
 5081a70:	00800044 	movi	r2,1
 5081a74:	e0bfff15 	stw	r2,-4(fp)
    //alt_u8 DeviceAddr;
    
    // device id
    //DeviceAddr = HMB_E2_I2C_ID;

    i2c_start(clk_base, data_base);
 5081a78:	e17ffd17 	ldw	r5,-12(fp)
 5081a7c:	e13ffe17 	ldw	r4,-8(fp)
 5081a80:	5081de00 	call	5081de0 <i2c_start>
    if (!i2c_write(clk_base, data_base, DeviceAddr)){  // send ID
 5081a84:	e0bffc03 	ldbu	r2,-16(fp)
 5081a88:	10803fcc 	andi	r2,r2,255
 5081a8c:	100d883a 	mov	r6,r2
 5081a90:	e17ffd17 	ldw	r5,-12(fp)
 5081a94:	e13ffe17 	ldw	r4,-8(fp)
 5081a98:	5081ee40 	call	5081ee4 <i2c_write>
 5081a9c:	1000041e 	bne	r2,zero,5081ab0 <I2C_Write+0x74>
        bSuccess = FALSE;
 5081aa0:	e03fff15 	stw	zero,-4(fp)
        I2C_DEBUG(("I2C HMB_E2 Fail: Address NACK!\n"));
 5081aa4:	01014274 	movhi	r4,1289
 5081aa8:	2117e404 	addi	r4,r4,24464
 5081aac:	50825900 	call	5082590 <myprintf>
    }
    if (bSuccess && !i2c_write(clk_base, data_base, ControlAddr)){ // send sub-address
 5081ab0:	e0bfff17 	ldw	r2,-4(fp)
 5081ab4:	10000a26 	beq	r2,zero,5081ae0 <I2C_Write+0xa4>
 5081ab8:	e0bffb03 	ldbu	r2,-20(fp)
 5081abc:	100d883a 	mov	r6,r2
 5081ac0:	e17ffd17 	ldw	r5,-12(fp)
 5081ac4:	e13ffe17 	ldw	r4,-8(fp)
 5081ac8:	5081ee40 	call	5081ee4 <i2c_write>
 5081acc:	1000041e 	bne	r2,zero,5081ae0 <I2C_Write+0xa4>
        bSuccess = FALSE;
 5081ad0:	e03fff15 	stw	zero,-4(fp)
        I2C_DEBUG(("I2C HMB_E2 Fail: SubAddress NACK!\n"));
 5081ad4:	01014274 	movhi	r4,1289
 5081ad8:	2117ec04 	addi	r4,r4,24496
 5081adc:	50825900 	call	5082590 <myprintf>
    }            
    if (bSuccess && !i2c_write(clk_base, data_base, ControlData)){  
 5081ae0:	e0bfff17 	ldw	r2,-4(fp)
 5081ae4:	10000a26 	beq	r2,zero,5081b10 <I2C_Write+0xd4>
 5081ae8:	e0bffa03 	ldbu	r2,-24(fp)
 5081aec:	100d883a 	mov	r6,r2
 5081af0:	e17ffd17 	ldw	r5,-12(fp)
 5081af4:	e13ffe17 	ldw	r4,-8(fp)
 5081af8:	5081ee40 	call	5081ee4 <i2c_write>
 5081afc:	1000041e 	bne	r2,zero,5081b10 <I2C_Write+0xd4>
        bSuccess = FALSE;
 5081b00:	e03fff15 	stw	zero,-4(fp)
        I2C_DEBUG(("I2C HMB_E2 Fail: write NACK!\n"));
 5081b04:	01014274 	movhi	r4,1289
 5081b08:	2117f504 	addi	r4,r4,24532
 5081b0c:	50825900 	call	5082590 <myprintf>
    }
    i2c_stop(clk_base, data_base);
 5081b10:	e17ffd17 	ldw	r5,-12(fp)
 5081b14:	e13ffe17 	ldw	r4,-8(fp)
 5081b18:	5081e6c0 	call	5081e6c <i2c_stop>
    
    usleep(7*1000); // delay to wait EE2 ready (at least 5 ms delay is required)
 5081b1c:	0106d604 	movi	r4,7000
 5081b20:	50935800 	call	5093580 <usleep>
    
    return bSuccess;
 5081b24:	e0bfff17 	ldw	r2,-4(fp)

    
}
 5081b28:	e037883a 	mov	sp,fp
 5081b2c:	dfc00117 	ldw	ra,4(sp)
 5081b30:	df000017 	ldw	fp,0(sp)
 5081b34:	dec00204 	addi	sp,sp,8
 5081b38:	f800283a 	ret

05081b3c <I2C_Read>:

bool I2C_Read(alt_u32 clk_base, alt_u32 data_base, alt_8 DeviceAddr, alt_u8 ControlAddr, alt_u8 *pControlData){
 5081b3c:	defff904 	addi	sp,sp,-28
 5081b40:	dfc00615 	stw	ra,24(sp)
 5081b44:	df000515 	stw	fp,20(sp)
 5081b48:	df000504 	addi	fp,sp,20
 5081b4c:	e13ffe15 	stw	r4,-8(fp)
 5081b50:	e17ffd15 	stw	r5,-12(fp)
 5081b54:	3005883a 	mov	r2,r6
 5081b58:	3807883a 	mov	r3,r7
 5081b5c:	e0bffc05 	stb	r2,-16(fp)
 5081b60:	1805883a 	mov	r2,r3
 5081b64:	e0bffb05 	stb	r2,-20(fp)
    bool bSuccess = TRUE;
 5081b68:	00800044 	movi	r2,1
 5081b6c:	e0bfff15 	stw	r2,-4(fp)
    //alt_u8 DeviceAddr;
   
    // device id
    //DeviceAddr = HMB_E2_I2C_ID;

    i2c_start(clk_base, data_base);
 5081b70:	e17ffd17 	ldw	r5,-12(fp)
 5081b74:	e13ffe17 	ldw	r4,-8(fp)
 5081b78:	5081de00 	call	5081de0 <i2c_start>
    if (!i2c_write(clk_base, data_base, DeviceAddr)){  // send ID
 5081b7c:	e0bffc03 	ldbu	r2,-16(fp)
 5081b80:	10803fcc 	andi	r2,r2,255
 5081b84:	100d883a 	mov	r6,r2
 5081b88:	e17ffd17 	ldw	r5,-12(fp)
 5081b8c:	e13ffe17 	ldw	r4,-8(fp)
 5081b90:	5081ee40 	call	5081ee4 <i2c_write>
 5081b94:	1000041e 	bne	r2,zero,5081ba8 <I2C_Read+0x6c>
        bSuccess = FALSE;
 5081b98:	e03fff15 	stw	zero,-4(fp)
        I2C_DEBUG(("I2C HMB_E2 Fail: Address NACK!\n"));
 5081b9c:	01014274 	movhi	r4,1289
 5081ba0:	2117e404 	addi	r4,r4,24464
 5081ba4:	50825900 	call	5082590 <myprintf>
    }
    if (bSuccess && !i2c_write(clk_base, data_base, ControlAddr)){ // send sub-address
 5081ba8:	e0bfff17 	ldw	r2,-4(fp)
 5081bac:	10000a26 	beq	r2,zero,5081bd8 <I2C_Read+0x9c>
 5081bb0:	e0bffb03 	ldbu	r2,-20(fp)
 5081bb4:	100d883a 	mov	r6,r2
 5081bb8:	e17ffd17 	ldw	r5,-12(fp)
 5081bbc:	e13ffe17 	ldw	r4,-8(fp)
 5081bc0:	5081ee40 	call	5081ee4 <i2c_write>
 5081bc4:	1000041e 	bne	r2,zero,5081bd8 <I2C_Read+0x9c>
        bSuccess = FALSE;
 5081bc8:	e03fff15 	stw	zero,-4(fp)
        I2C_DEBUG(("I2C HMB_E2 Fail: SubAddress NACK!\n"));
 5081bcc:	01014274 	movhi	r4,1289
 5081bd0:	2117ec04 	addi	r4,r4,24496
 5081bd4:	50825900 	call	5082590 <myprintf>
    }            
    i2c_start(clk_base, data_base);  // restart
 5081bd8:	e17ffd17 	ldw	r5,-12(fp)
 5081bdc:	e13ffe17 	ldw	r4,-8(fp)
 5081be0:	5081de00 	call	5081de0 <i2c_start>
    DeviceAddr |= 1; // Read
 5081be4:	e0bffc03 	ldbu	r2,-16(fp)
 5081be8:	10800054 	ori	r2,r2,1
 5081bec:	e0bffc05 	stb	r2,-16(fp)
    if (bSuccess && !i2c_write(clk_base, data_base, DeviceAddr)){  // send id
 5081bf0:	e0bfff17 	ldw	r2,-4(fp)
 5081bf4:	10000b26 	beq	r2,zero,5081c24 <I2C_Read+0xe8>
 5081bf8:	e0bffc03 	ldbu	r2,-16(fp)
 5081bfc:	10803fcc 	andi	r2,r2,255
 5081c00:	100d883a 	mov	r6,r2
 5081c04:	e17ffd17 	ldw	r5,-12(fp)
 5081c08:	e13ffe17 	ldw	r4,-8(fp)
 5081c0c:	5081ee40 	call	5081ee4 <i2c_write>
 5081c10:	1000041e 	bne	r2,zero,5081c24 <I2C_Read+0xe8>
        bSuccess = FALSE;
 5081c14:	e03fff15 	stw	zero,-4(fp)
        I2C_DEBUG(("I2C HMB_E2 Fail: Address+1 NACK!\n"));
 5081c18:	01014274 	movhi	r4,1289
 5081c1c:	2117fd04 	addi	r4,r4,24564
 5081c20:	50825900 	call	5082590 <myprintf>
    }
    
    if (bSuccess){
 5081c24:	e0bfff17 	ldw	r2,-4(fp)
 5081c28:	10000526 	beq	r2,zero,5081c40 <I2C_Read+0x104>
        i2c_read(clk_base, data_base, pControlData, FALSE);  // read
 5081c2c:	000f883a 	mov	r7,zero
 5081c30:	e1800217 	ldw	r6,8(fp)
 5081c34:	e17ffd17 	ldw	r5,-12(fp)
 5081c38:	e13ffe17 	ldw	r4,-8(fp)
 5081c3c:	50820140 	call	5082014 <i2c_read>
    }        
    i2c_stop(clk_base, data_base);
 5081c40:	e17ffd17 	ldw	r5,-12(fp)
 5081c44:	e13ffe17 	ldw	r4,-8(fp)
 5081c48:	5081e6c0 	call	5081e6c <i2c_stop>
    
    return bSuccess;
 5081c4c:	e0bfff17 	ldw	r2,-4(fp)
}
 5081c50:	e037883a 	mov	sp,fp
 5081c54:	dfc00117 	ldw	ra,4(sp)
 5081c58:	df000017 	ldw	fp,0(sp)
 5081c5c:	dec00204 	addi	sp,sp,8
 5081c60:	f800283a 	ret

05081c64 <I2C_MultipleRead>:

bool I2C_MultipleRead(alt_u32 clk_base, alt_u32 data_base, alt_8 DeviceAddr, alt_u8 szData[], alt_u16 len){
 5081c64:	defff604 	addi	sp,sp,-40
 5081c68:	dfc00915 	stw	ra,36(sp)
 5081c6c:	df000815 	stw	fp,32(sp)
 5081c70:	df000804 	addi	fp,sp,32
 5081c74:	e13ffc15 	stw	r4,-16(fp)
 5081c78:	e17ffb15 	stw	r5,-20(fp)
 5081c7c:	3007883a 	mov	r3,r6
 5081c80:	e1fff915 	stw	r7,-28(fp)
 5081c84:	e0800217 	ldw	r2,8(fp)
 5081c88:	e0fffa05 	stb	r3,-24(fp)
 5081c8c:	e0bff80d 	sth	r2,-32(fp)
    int i;
    bool bSuccess = TRUE;
 5081c90:	00800044 	movi	r2,1
 5081c94:	e0bffe15 	stw	r2,-8(fp)
    //alt_u8 DeviceAddr, 
    alt_u8 ControlAddr = 0;
 5081c98:	e03ffdc5 	stb	zero,-9(fp)
    
   
    // device id
    //DeviceAddr = HMB_E2_I2C_ID;

    i2c_start(clk_base, data_base);
 5081c9c:	e17ffb17 	ldw	r5,-20(fp)
 5081ca0:	e13ffc17 	ldw	r4,-16(fp)
 5081ca4:	5081de00 	call	5081de0 <i2c_start>
    if (!i2c_write(clk_base, data_base, DeviceAddr)){  // send ID
 5081ca8:	e0bffa03 	ldbu	r2,-24(fp)
 5081cac:	10803fcc 	andi	r2,r2,255
 5081cb0:	100d883a 	mov	r6,r2
 5081cb4:	e17ffb17 	ldw	r5,-20(fp)
 5081cb8:	e13ffc17 	ldw	r4,-16(fp)
 5081cbc:	5081ee40 	call	5081ee4 <i2c_write>
 5081cc0:	1000041e 	bne	r2,zero,5081cd4 <I2C_MultipleRead+0x70>
        bSuccess = FALSE;
 5081cc4:	e03ffe15 	stw	zero,-8(fp)
        I2C_DEBUG(("I2C HMB_E2 Fail: Address NACK!\n"));
 5081cc8:	01014274 	movhi	r4,1289
 5081ccc:	2117e404 	addi	r4,r4,24464
 5081cd0:	50825900 	call	5082590 <myprintf>
    }
    if (bSuccess && !i2c_write(clk_base, data_base, ControlAddr)){ // send sub-address
 5081cd4:	e0bffe17 	ldw	r2,-8(fp)
 5081cd8:	10000a26 	beq	r2,zero,5081d04 <I2C_MultipleRead+0xa0>
 5081cdc:	e0bffdc3 	ldbu	r2,-9(fp)
 5081ce0:	100d883a 	mov	r6,r2
 5081ce4:	e17ffb17 	ldw	r5,-20(fp)
 5081ce8:	e13ffc17 	ldw	r4,-16(fp)
 5081cec:	5081ee40 	call	5081ee4 <i2c_write>
 5081cf0:	1000041e 	bne	r2,zero,5081d04 <I2C_MultipleRead+0xa0>
        bSuccess = FALSE;
 5081cf4:	e03ffe15 	stw	zero,-8(fp)
        I2C_DEBUG(("I2C HMB_E2 Fail: SubAddress NACK!\n"));
 5081cf8:	01014274 	movhi	r4,1289
 5081cfc:	2117ec04 	addi	r4,r4,24496
 5081d00:	50825900 	call	5082590 <myprintf>
    }    
    if (bSuccess)        
 5081d04:	e0bffe17 	ldw	r2,-8(fp)
 5081d08:	10000326 	beq	r2,zero,5081d18 <I2C_MultipleRead+0xb4>
        i2c_start(clk_base, data_base);  // restart
 5081d0c:	e17ffb17 	ldw	r5,-20(fp)
 5081d10:	e13ffc17 	ldw	r4,-16(fp)
 5081d14:	5081de00 	call	5081de0 <i2c_start>
    DeviceAddr |= 1; // Read
 5081d18:	e0bffa03 	ldbu	r2,-24(fp)
 5081d1c:	10800054 	ori	r2,r2,1
 5081d20:	e0bffa05 	stb	r2,-24(fp)
    if (bSuccess && !i2c_write(clk_base, data_base, DeviceAddr)){  // send id
 5081d24:	e0bffe17 	ldw	r2,-8(fp)
 5081d28:	10000b26 	beq	r2,zero,5081d58 <I2C_MultipleRead+0xf4>
 5081d2c:	e0bffa03 	ldbu	r2,-24(fp)
 5081d30:	10803fcc 	andi	r2,r2,255
 5081d34:	100d883a 	mov	r6,r2
 5081d38:	e17ffb17 	ldw	r5,-20(fp)
 5081d3c:	e13ffc17 	ldw	r4,-16(fp)
 5081d40:	5081ee40 	call	5081ee4 <i2c_write>
 5081d44:	1000041e 	bne	r2,zero,5081d58 <I2C_MultipleRead+0xf4>
        bSuccess = FALSE;
 5081d48:	e03ffe15 	stw	zero,-8(fp)
        I2C_DEBUG(("I2C HMB_E2 Fail: Address+1 NACK!\n"));
 5081d4c:	01014274 	movhi	r4,1289
 5081d50:	2117fd04 	addi	r4,r4,24564
 5081d54:	50825900 	call	5082590 <myprintf>
    }
    
    if (bSuccess){
 5081d58:	e0bffe17 	ldw	r2,-8(fp)
 5081d5c:	10001726 	beq	r2,zero,5081dbc <I2C_MultipleRead+0x158>
        for(i=0;i<len && bSuccess;i++){
 5081d60:	e03fff15 	stw	zero,-4(fp)
 5081d64:	00001006 	br	5081da8 <I2C_MultipleRead+0x144>
            i2c_read(clk_base, data_base, &szData[i], (i==(len-1))?FALSE:TRUE);  // read
 5081d68:	e0bfff17 	ldw	r2,-4(fp)
 5081d6c:	e0fff917 	ldw	r3,-28(fp)
 5081d70:	1889883a 	add	r4,r3,r2
 5081d74:	e0bff80b 	ldhu	r2,-32(fp)
 5081d78:	10bfffc4 	addi	r2,r2,-1
 5081d7c:	e0ffff17 	ldw	r3,-4(fp)
 5081d80:	1884c03a 	cmpne	r2,r3,r2
 5081d84:	10803fcc 	andi	r2,r2,255
 5081d88:	100f883a 	mov	r7,r2
 5081d8c:	200d883a 	mov	r6,r4
 5081d90:	e17ffb17 	ldw	r5,-20(fp)
 5081d94:	e13ffc17 	ldw	r4,-16(fp)
 5081d98:	50820140 	call	5082014 <i2c_read>
        for(i=0;i<len && bSuccess;i++){
 5081d9c:	e0bfff17 	ldw	r2,-4(fp)
 5081da0:	10800044 	addi	r2,r2,1
 5081da4:	e0bfff15 	stw	r2,-4(fp)
 5081da8:	e0bff80b 	ldhu	r2,-32(fp)
 5081dac:	e0ffff17 	ldw	r3,-4(fp)
 5081db0:	1880020e 	bge	r3,r2,5081dbc <I2C_MultipleRead+0x158>
 5081db4:	e0bffe17 	ldw	r2,-8(fp)
 5081db8:	103feb1e 	bne	r2,zero,5081d68 <I2C_MultipleRead+0x104>
        }            
    }        
    i2c_stop(clk_base, data_base);
 5081dbc:	e17ffb17 	ldw	r5,-20(fp)
 5081dc0:	e13ffc17 	ldw	r4,-16(fp)
 5081dc4:	5081e6c0 	call	5081e6c <i2c_stop>
    
    return bSuccess;    
 5081dc8:	e0bffe17 	ldw	r2,-8(fp)
    
}
 5081dcc:	e037883a 	mov	sp,fp
 5081dd0:	dfc00117 	ldw	ra,4(sp)
 5081dd4:	df000017 	ldw	fp,0(sp)
 5081dd8:	dec00204 	addi	sp,sp,8
 5081ddc:	f800283a 	ret

05081de0 <i2c_start>:
///////////// Interncal function (i2cXXX) body //////////////////////////////////////////////
/////////////////////////////////////////////////////////////////////////////////////////////


//SDA 1->0 while SCL=1
void i2c_start(alt_u32 clk_base, alt_u32 data_base){
 5081de0:	defffc04 	addi	sp,sp,-16
 5081de4:	dfc00315 	stw	ra,12(sp)
 5081de8:	df000215 	stw	fp,8(sp)
 5081dec:	df000204 	addi	fp,sp,8
 5081df0:	e13fff15 	stw	r4,-4(fp)
 5081df4:	e17ffe15 	stw	r5,-8(fp)
    
    // make sure it is in normal state
    SDA_DIR_OUT(data_base);  // data output enabled
 5081df8:	e0bffe17 	ldw	r2,-8(fp)
 5081dfc:	10800104 	addi	r2,r2,4
 5081e00:	1007883a 	mov	r3,r2
 5081e04:	00800044 	movi	r2,1
 5081e08:	18800035 	stwio	r2,0(r3)
    
    
    
    // start condition 
    SDA_HIGH(data_base); // data high
 5081e0c:	e0bffe17 	ldw	r2,-8(fp)
 5081e10:	00c00044 	movi	r3,1
 5081e14:	10c00035 	stwio	r3,0(r2)
    SCL_HIGH(clk_base);
 5081e18:	e0bfff17 	ldw	r2,-4(fp)
 5081e1c:	00c00044 	movi	r3,1
 5081e20:	10c00035 	stwio	r3,0(r2)
    SCL_DELAY;
 5081e24:	01000044 	movi	r4,1
 5081e28:	50935800 	call	5093580 <usleep>
     
    SDA_LOW(data_base); // data low
 5081e2c:	e0bffe17 	ldw	r2,-8(fp)
 5081e30:	0007883a 	mov	r3,zero
 5081e34:	10c00035 	stwio	r3,0(r2)
    SCL_DELAY; 
 5081e38:	01000044 	movi	r4,1
 5081e3c:	50935800 	call	5093580 <usleep>
    SCL_LOW(clk_base); // clock low
 5081e40:	e0bfff17 	ldw	r2,-4(fp)
 5081e44:	0007883a 	mov	r3,zero
 5081e48:	10c00035 	stwio	r3,0(r2)
    SCL_DELAY;
 5081e4c:	01000044 	movi	r4,1
 5081e50:	50935800 	call	5093580 <usleep>
}
 5081e54:	0001883a 	nop
 5081e58:	e037883a 	mov	sp,fp
 5081e5c:	dfc00117 	ldw	ra,4(sp)
 5081e60:	df000017 	ldw	fp,0(sp)
 5081e64:	dec00204 	addi	sp,sp,8
 5081e68:	f800283a 	ret

05081e6c <i2c_stop>:

// SDA 0->1 while SCL=1
void i2c_stop(alt_u32 clk_base, alt_u32 data_base){
 5081e6c:	defffc04 	addi	sp,sp,-16
 5081e70:	dfc00315 	stw	ra,12(sp)
 5081e74:	df000215 	stw	fp,8(sp)
 5081e78:	df000204 	addi	fp,sp,8
 5081e7c:	e13fff15 	stw	r4,-4(fp)
 5081e80:	e17ffe15 	stw	r5,-8(fp)
    // assume SCL = 0
    
    SDA_DIR_OUT(data_base);  // data output enabled
 5081e84:	e0bffe17 	ldw	r2,-8(fp)
 5081e88:	10800104 	addi	r2,r2,4
 5081e8c:	1007883a 	mov	r3,r2
 5081e90:	00800044 	movi	r2,1
 5081e94:	18800035 	stwio	r2,0(r3)
    SDA_LOW(data_base); // Data Low
 5081e98:	e0bffe17 	ldw	r2,-8(fp)
 5081e9c:	0007883a 	mov	r3,zero
 5081ea0:	10c00035 	stwio	r3,0(r2)
    //SCL_DELAY; 
    SCL_HIGH(clk_base);  // clock high
 5081ea4:	e0bfff17 	ldw	r2,-4(fp)
 5081ea8:	00c00044 	movi	r3,1
 5081eac:	10c00035 	stwio	r3,0(r2)
    SCL_DELAY; // clock high long delay
 5081eb0:	01000044 	movi	r4,1
 5081eb4:	50935800 	call	5093580 <usleep>
    SDA_HIGH(data_base); // data high
 5081eb8:	e0bffe17 	ldw	r2,-8(fp)
 5081ebc:	00c00044 	movi	r3,1
 5081ec0:	10c00035 	stwio	r3,0(r2)
    SCL_DELAY; // data high delay
 5081ec4:	01000044 	movi	r4,1
 5081ec8:	50935800 	call	5093580 <usleep>
}
 5081ecc:	0001883a 	nop
 5081ed0:	e037883a 	mov	sp,fp
 5081ed4:	dfc00117 	ldw	ra,4(sp)
 5081ed8:	df000017 	ldw	fp,0(sp)
 5081edc:	dec00204 	addi	sp,sp,8
 5081ee0:	f800283a 	ret

05081ee4 <i2c_write>:

bool i2c_write(alt_u32 clk_base, alt_u32 data_base, alt_u8 Data){ // return true if device response ack
 5081ee4:	defff804 	addi	sp,sp,-32
 5081ee8:	dfc00715 	stw	ra,28(sp)
 5081eec:	df000615 	stw	fp,24(sp)
 5081ef0:	df000604 	addi	fp,sp,24
 5081ef4:	e13ffc15 	stw	r4,-16(fp)
 5081ef8:	e17ffb15 	stw	r5,-20(fp)
 5081efc:	3005883a 	mov	r2,r6
 5081f00:	e0bffa05 	stb	r2,-24(fp)
    alt_u8 Mask = 0x80;
 5081f04:	00bfe004 	movi	r2,-128
 5081f08:	e0bfffc5 	stb	r2,-1(fp)
    bool bAck;
    int i;
    
    // assume, SCL = 0
    
    SDA_DIR_OUT(data_base);  // data write mode
 5081f0c:	e0bffb17 	ldw	r2,-20(fp)
 5081f10:	10800104 	addi	r2,r2,4
 5081f14:	1007883a 	mov	r3,r2
 5081f18:	00800044 	movi	r2,1
 5081f1c:	18800035 	stwio	r2,0(r3)
    
    for(i=0;i<8;i++){
 5081f20:	e03ffe15 	stw	zero,-8(fp)
 5081f24:	00001f06 	br	5081fa4 <i2c_write+0xc0>
        SCL_LOW(clk_base);  // new, make sure data change at clk low
 5081f28:	e0bffc17 	ldw	r2,-16(fp)
 5081f2c:	0007883a 	mov	r3,zero
 5081f30:	10c00035 	stwio	r3,0(r2)
        // output data on bus
        if (Data & Mask){ // there is a delay in this command
 5081f34:	e0fffa03 	ldbu	r3,-24(fp)
 5081f38:	e0bfffc3 	ldbu	r2,-1(fp)
 5081f3c:	1884703a 	and	r2,r3,r2
 5081f40:	10803fcc 	andi	r2,r2,255
 5081f44:	10000426 	beq	r2,zero,5081f58 <i2c_write+0x74>
            SDA_HIGH(data_base);
 5081f48:	e0bffb17 	ldw	r2,-20(fp)
 5081f4c:	00c00044 	movi	r3,1
 5081f50:	10c00035 	stwio	r3,0(r2)
 5081f54:	00000306 	br	5081f64 <i2c_write+0x80>
        }else{    
            SDA_LOW(data_base);
 5081f58:	e0bffb17 	ldw	r2,-20(fp)
 5081f5c:	0007883a 	mov	r3,zero
 5081f60:	10c00035 	stwio	r3,0(r2)
        }
        Mask >>= 1; // there is a delay in this command
 5081f64:	e0bfffc3 	ldbu	r2,-1(fp)
 5081f68:	1004d07a 	srli	r2,r2,1
 5081f6c:	e0bfffc5 	stb	r2,-1(fp)
        // clock high
        SCL_HIGH(clk_base);
 5081f70:	e0bffc17 	ldw	r2,-16(fp)
 5081f74:	00c00044 	movi	r3,1
 5081f78:	10c00035 	stwio	r3,0(r2)
        SCL_DELAY;
 5081f7c:	01000044 	movi	r4,1
 5081f80:	50935800 	call	5093580 <usleep>
        SCL_LOW(clk_base);
 5081f84:	e0bffc17 	ldw	r2,-16(fp)
 5081f88:	0007883a 	mov	r3,zero
 5081f8c:	10c00035 	stwio	r3,0(r2)
        SCL_DELAY;
 5081f90:	01000044 	movi	r4,1
 5081f94:	50935800 	call	5093580 <usleep>
    for(i=0;i<8;i++){
 5081f98:	e0bffe17 	ldw	r2,-8(fp)
 5081f9c:	10800044 	addi	r2,r2,1
 5081fa0:	e0bffe15 	stw	r2,-8(fp)
 5081fa4:	e0bffe17 	ldw	r2,-8(fp)
 5081fa8:	10800210 	cmplti	r2,r2,8
 5081fac:	103fde1e 	bne	r2,zero,5081f28 <i2c_write+0x44>
    }
    
    //===== get ack
    SDA_DIR_IN(data_base);  // data read mode
 5081fb0:	e0bffb17 	ldw	r2,-20(fp)
 5081fb4:	10800104 	addi	r2,r2,4
 5081fb8:	0007883a 	mov	r3,zero
 5081fbc:	10c00035 	stwio	r3,0(r2)
    //SCL_DELAY;
    // clock high
    SCL_HIGH(clk_base);  // clock high
 5081fc0:	e0bffc17 	ldw	r2,-16(fp)
 5081fc4:	00c00044 	movi	r3,1
 5081fc8:	10c00035 	stwio	r3,0(r2)
    SCL_DELAY;  // clock high delay
 5081fcc:	01000044 	movi	r4,1
 5081fd0:	50935800 	call	5093580 <usleep>
    bAck = SDA_READ(data_base)?FALSE:TRUE;  // get ack
 5081fd4:	e0bffb17 	ldw	r2,-20(fp)
 5081fd8:	10800037 	ldwio	r2,0(r2)
 5081fdc:	1005003a 	cmpeq	r2,r2,zero
 5081fe0:	10803fcc 	andi	r2,r2,255
 5081fe4:	e0bffd15 	stw	r2,-12(fp)
    //SCL_DELAY;
    //SDA_DIR_OUT;
    SCL_LOW(clk_base); // clock low         
 5081fe8:	e0bffc17 	ldw	r2,-16(fp)
 5081fec:	0007883a 	mov	r3,zero
 5081ff0:	10c00035 	stwio	r3,0(r2)
    SCL_DELAY; // clock low delay
 5081ff4:	01000044 	movi	r4,1
 5081ff8:	50935800 	call	5093580 <usleep>
    return bAck;
 5081ffc:	e0bffd17 	ldw	r2,-12(fp)
}    
 5082000:	e037883a 	mov	sp,fp
 5082004:	dfc00117 	ldw	ra,4(sp)
 5082008:	df000017 	ldw	fp,0(sp)
 508200c:	dec00204 	addi	sp,sp,8
 5082010:	f800283a 	ret

05082014 <i2c_read>:

void i2c_read(alt_u32 clk_base, alt_u32 data_base, alt_u8 *pData, bool bAck){ // return true if device response ack
 5082014:	defff804 	addi	sp,sp,-32
 5082018:	dfc00715 	stw	ra,28(sp)
 508201c:	df000615 	stw	fp,24(sp)
 5082020:	df000604 	addi	fp,sp,24
 5082024:	e13ffd15 	stw	r4,-12(fp)
 5082028:	e17ffc15 	stw	r5,-16(fp)
 508202c:	e1bffb15 	stw	r6,-20(fp)
 5082030:	e1fffa15 	stw	r7,-24(fp)
    alt_u8 Data=0;
 5082034:	e03fffc5 	stb	zero,-1(fp)
    int i;
    
    // assume SCL = low
    
    SDA_DIR_IN(data_base);  // set data read mode
 5082038:	e0bffc17 	ldw	r2,-16(fp)
 508203c:	10800104 	addi	r2,r2,4
 5082040:	0007883a 	mov	r3,zero
 5082044:	10c00035 	stwio	r3,0(r2)
    SCL_LOW(clk_base); // clock low
 5082048:	e0bffd17 	ldw	r2,-12(fp)
 508204c:	0007883a 	mov	r3,zero
 5082050:	10c00035 	stwio	r3,0(r2)
    SCL_DELAY; // clock low delay
 5082054:	01000044 	movi	r4,1
 5082058:	50935800 	call	5093580 <usleep>

    for(i=0;i<8;i++){
 508205c:	e03ffe15 	stw	zero,-8(fp)
 5082060:	00001606 	br	50820bc <i2c_read+0xa8>
        Data <<= 1;
 5082064:	e0bfffc3 	ldbu	r2,-1(fp)
 5082068:	1085883a 	add	r2,r2,r2
 508206c:	e0bfffc5 	stb	r2,-1(fp)
        SCL_HIGH(clk_base);  // clock high
 5082070:	e0bffd17 	ldw	r2,-12(fp)
 5082074:	00c00044 	movi	r3,1
 5082078:	10c00035 	stwio	r3,0(r2)
        SCL_DELAY;
 508207c:	01000044 	movi	r4,1
 5082080:	50935800 	call	5093580 <usleep>
        if (SDA_READ(data_base))  // read data   
 5082084:	e0bffc17 	ldw	r2,-16(fp)
 5082088:	10800037 	ldwio	r2,0(r2)
 508208c:	10000326 	beq	r2,zero,508209c <i2c_read+0x88>
            Data |= 0x01;
 5082090:	e0bfffc3 	ldbu	r2,-1(fp)
 5082094:	10800054 	ori	r2,r2,1
 5082098:	e0bfffc5 	stb	r2,-1(fp)
        SCL_LOW(clk_base);  // clock log  
 508209c:	e0bffd17 	ldw	r2,-12(fp)
 50820a0:	0007883a 	mov	r3,zero
 50820a4:	10c00035 	stwio	r3,0(r2)
        SCL_DELAY;
 50820a8:	01000044 	movi	r4,1
 50820ac:	50935800 	call	5093580 <usleep>
    for(i=0;i<8;i++){
 50820b0:	e0bffe17 	ldw	r2,-8(fp)
 50820b4:	10800044 	addi	r2,r2,1
 50820b8:	e0bffe15 	stw	r2,-8(fp)
 50820bc:	e0bffe17 	ldw	r2,-8(fp)
 50820c0:	10800210 	cmplti	r2,r2,8
 50820c4:	103fe71e 	bne	r2,zero,5082064 <i2c_read+0x50>
    }
    
    // send ACK
    SCL_LOW(clk_base);  // new, make sure data change at clk low
 50820c8:	e0bffd17 	ldw	r2,-12(fp)
 50820cc:	0007883a 	mov	r3,zero
 50820d0:	10c00035 	stwio	r3,0(r2)
    SDA_DIR_OUT(data_base);  // set data write mode
 50820d4:	e0bffc17 	ldw	r2,-16(fp)
 50820d8:	10800104 	addi	r2,r2,4
 50820dc:	1007883a 	mov	r3,r2
 50820e0:	00800044 	movi	r2,1
 50820e4:	18800035 	stwio	r2,0(r3)
    if (bAck)
 50820e8:	e0bffa17 	ldw	r2,-24(fp)
 50820ec:	10000426 	beq	r2,zero,5082100 <i2c_read+0xec>
        SDA_LOW(data_base);
 50820f0:	e0bffc17 	ldw	r2,-16(fp)
 50820f4:	0007883a 	mov	r3,zero
 50820f8:	10c00035 	stwio	r3,0(r2)
 50820fc:	00000306 	br	508210c <i2c_read+0xf8>
    else
        SDA_HIGH(data_base);
 5082100:	e0bffc17 	ldw	r2,-16(fp)
 5082104:	00c00044 	movi	r3,1
 5082108:	10c00035 	stwio	r3,0(r2)
    SCL_HIGH(clk_base); // clock high
 508210c:	e0bffd17 	ldw	r2,-12(fp)
 5082110:	00c00044 	movi	r3,1
 5082114:	10c00035 	stwio	r3,0(r2)
    SCL_DELAY; // clock high  delay
 5082118:	01000044 	movi	r4,1
 508211c:	50935800 	call	5093580 <usleep>
    SCL_LOW(clk_base); // clock low
 5082120:	e0bffd17 	ldw	r2,-12(fp)
 5082124:	0007883a 	mov	r3,zero
 5082128:	10c00035 	stwio	r3,0(r2)
    SCL_DELAY; // clock low delay
 508212c:	01000044 	movi	r4,1
 5082130:	50935800 	call	5093580 <usleep>
    SDA_LOW(data_base);  // data low
 5082134:	e0bffc17 	ldw	r2,-16(fp)
 5082138:	0007883a 	mov	r3,zero
 508213c:	10c00035 	stwio	r3,0(r2)
    SCL_DELAY; // data low delay
 5082140:	01000044 	movi	r4,1
 5082144:	50935800 	call	5093580 <usleep>
//    SDA_DIR_IN;  // set data read mode
    
    *pData = Data;
 5082148:	e0bffb17 	ldw	r2,-20(fp)
 508214c:	e0ffffc3 	ldbu	r3,-1(fp)
 5082150:	10c00005 	stb	r3,0(r2)
}
 5082154:	0001883a 	nop
 5082158:	e037883a 	mov	sp,fp
 508215c:	dfc00117 	ldw	ra,4(sp)
 5082160:	df000017 	ldw	fp,0(sp)
 5082164:	dec00204 	addi	sp,sp,8
 5082168:	f800283a 	ret

0508216c <LED_Display>:
#define LED_INIT_MASK   (0x01 << 24)

#define LED_SET(mask)   IOWR_ALTERA_AVALON_PIO_DATA(PIO_LED_BASE, mask)


void LED_Display(alt_u32 Mask){ // 1: light, 0:unlight
 508216c:	defffd04 	addi	sp,sp,-12
 5082170:	df000215 	stw	fp,8(sp)
 5082174:	df000204 	addi	fp,sp,8
 5082178:	e13ffe15 	stw	r4,-8(fp)
    alt_u32 ThisMask;
    ThisMask = Mask;//~(Mask & 0x7FFFFFF);
 508217c:	e0bffe17 	ldw	r2,-8(fp)
 5082180:	e0bfff15 	stw	r2,-4(fp)
    LED_SET(ThisMask);  //0:ligh, 1:unlight
 5082184:	e0ffff17 	ldw	r3,-4(fp)
 5082188:	00810034 	movhi	r2,1024
 508218c:	10c01435 	stwio	r3,80(r2)
    
}
 5082190:	0001883a 	nop
 5082194:	e037883a 	mov	sp,fp
 5082198:	df000017 	ldw	fp,0(sp)
 508219c:	dec00104 	addi	sp,sp,4
 50821a0:	f800283a 	ret

050821a4 <LED_AllOn>:


void LED_AllOn(void){
 50821a4:	defffe04 	addi	sp,sp,-8
 50821a8:	dfc00115 	stw	ra,4(sp)
 50821ac:	df000015 	stw	fp,0(sp)
 50821b0:	d839883a 	mov	fp,sp
    LED_Display(0xFFFFFFFF);       
 50821b4:	013fffc4 	movi	r4,-1
 50821b8:	508216c0 	call	508216c <LED_Display>
}
 50821bc:	0001883a 	nop
 50821c0:	e037883a 	mov	sp,fp
 50821c4:	dfc00117 	ldw	ra,4(sp)
 50821c8:	df000017 	ldw	fp,0(sp)
 50821cc:	dec00204 	addi	sp,sp,8
 50821d0:	f800283a 	ret

050821d4 <LED_AllOff>:

void LED_AllOff(void){
 50821d4:	defffe04 	addi	sp,sp,-8
 50821d8:	dfc00115 	stw	ra,4(sp)
 50821dc:	df000015 	stw	fp,0(sp)
 50821e0:	d839883a 	mov	fp,sp
    LED_Display(0x00);       
 50821e4:	0009883a 	mov	r4,zero
 50821e8:	508216c0 	call	508216c <LED_Display>
}
 50821ec:	0001883a 	nop
 50821f0:	e037883a 	mov	sp,fp
 50821f4:	dfc00117 	ldw	ra,4(sp)
 50821f8:	df000017 	ldw	fp,0(sp)
 50821fc:	dec00204 	addi	sp,sp,8
 5082200:	f800283a 	ret

05082204 <LED_LightCount>:


void LED_LightCount(alt_u8 LightCount){ // 1: light, 0:unlight
 5082204:	defffb04 	addi	sp,sp,-20
 5082208:	dfc00415 	stw	ra,16(sp)
 508220c:	df000315 	stw	fp,12(sp)
 5082210:	df000304 	addi	fp,sp,12
 5082214:	2005883a 	mov	r2,r4
 5082218:	e0bffd05 	stb	r2,-12(fp)
    alt_u32 Mask = 0;
 508221c:	e03fff15 	stw	zero,-4(fp)
    int i;
    for(i=0;i<LightCount;i++){
 5082220:	e03ffe15 	stw	zero,-8(fp)
 5082224:	00000906 	br	508224c <LED_LightCount+0x48>
        Mask <<= 1;
 5082228:	e0bfff17 	ldw	r2,-4(fp)
 508222c:	1085883a 	add	r2,r2,r2
 5082230:	e0bfff15 	stw	r2,-4(fp)
        Mask |= 0x01;
 5082234:	e0bfff17 	ldw	r2,-4(fp)
 5082238:	10800054 	ori	r2,r2,1
 508223c:	e0bfff15 	stw	r2,-4(fp)
    for(i=0;i<LightCount;i++){
 5082240:	e0bffe17 	ldw	r2,-8(fp)
 5082244:	10800044 	addi	r2,r2,1
 5082248:	e0bffe15 	stw	r2,-8(fp)
 508224c:	e0bffd03 	ldbu	r2,-12(fp)
 5082250:	e0fffe17 	ldw	r3,-8(fp)
 5082254:	18bff416 	blt	r3,r2,5082228 <LED_LightCount+0x24>
    }
    LED_Display(Mask);  //0:ligh, 1:unlight
 5082258:	e13fff17 	ldw	r4,-4(fp)
 508225c:	508216c0 	call	508216c <LED_Display>
    
}
 5082260:	0001883a 	nop
 5082264:	e037883a 	mov	sp,fp
 5082268:	dfc00117 	ldw	ra,4(sp)
 508226c:	df000017 	ldw	fp,0(sp)
 5082270:	dec00204 	addi	sp,sp,8
 5082274:	f800283a 	ret

05082278 <SEG7_Clear>:
static    unsigned char szMap[] = {
        63, 6, 91, 79, 102, 109, 125, 7, 
        127, 111, 119, 124, 57, 94, 121, 113
    };  // 0,1,2,....9, a, b, c, d, e, f
    
void SEG7_Clear(void){
 5082278:	defffe04 	addi	sp,sp,-8
 508227c:	df000115 	stw	fp,4(sp)
 5082280:	df000104 	addi	fp,sp,4
    int i;
    for(i=0;i<SEG7_NUM;i++){
 5082284:	e03fff15 	stw	zero,-4(fp)
 5082288:	00000a06 	br	50822b4 <SEG7_Clear+0x3c>
        SEG7_SET(i, 0x00);
 508228c:	e0bfff17 	ldw	r2,-4(fp)
 5082290:	100490ba 	slli	r2,r2,2
 5082294:	1007883a 	mov	r3,r2
 5082298:	00810034 	movhi	r2,1024
 508229c:	1885883a 	add	r2,r3,r2
 50822a0:	0007883a 	mov	r3,zero
 50822a4:	10c00035 	stwio	r3,0(r2)
    for(i=0;i<SEG7_NUM;i++){
 50822a8:	e0bfff17 	ldw	r2,-4(fp)
 50822ac:	10800044 	addi	r2,r2,1
 50822b0:	e0bfff15 	stw	r2,-4(fp)
 50822b4:	e0bfff17 	ldw	r2,-4(fp)
 50822b8:	10800190 	cmplti	r2,r2,6
 50822bc:	103ff31e 	bne	r2,zero,508228c <SEG7_Clear+0x14>
    }        
}
 50822c0:	0001883a 	nop
 50822c4:	0001883a 	nop
 50822c8:	e037883a 	mov	sp,fp
 50822cc:	df000017 	ldw	fp,0(sp)
 50822d0:	dec00104 	addi	sp,sp,4
 50822d4:	f800283a 	ret

050822d8 <SEG7_Full>:
void SEG7_Full(void){
 50822d8:	defffe04 	addi	sp,sp,-8
 50822dc:	df000115 	stw	fp,4(sp)
 50822e0:	df000104 	addi	fp,sp,4
    int i;
    for(i=0;i<SEG7_NUM;i++){
 50822e4:	e03fff15 	stw	zero,-4(fp)
 50822e8:	00000a06 	br	5082314 <SEG7_Full+0x3c>
        SEG7_SET(i, 0xFF);
 50822ec:	e0bfff17 	ldw	r2,-4(fp)
 50822f0:	100490ba 	slli	r2,r2,2
 50822f4:	1007883a 	mov	r3,r2
 50822f8:	00810034 	movhi	r2,1024
 50822fc:	1885883a 	add	r2,r3,r2
 5082300:	00c03fc4 	movi	r3,255
 5082304:	10c00035 	stwio	r3,0(r2)
    for(i=0;i<SEG7_NUM;i++){
 5082308:	e0bfff17 	ldw	r2,-4(fp)
 508230c:	10800044 	addi	r2,r2,1
 5082310:	e0bfff15 	stw	r2,-4(fp)
 5082314:	e0bfff17 	ldw	r2,-4(fp)
 5082318:	10800190 	cmplti	r2,r2,6
 508231c:	103ff31e 	bne	r2,zero,50822ec <SEG7_Full+0x14>
    }        
}
 5082320:	0001883a 	nop
 5082324:	0001883a 	nop
 5082328:	e037883a 	mov	sp,fp
 508232c:	df000017 	ldw	fp,0(sp)
 5082330:	dec00104 	addi	sp,sp,4
 5082334:	f800283a 	ret

05082338 <SEG7_Number>:

void SEG7_Number(void){
 5082338:	defffe04 	addi	sp,sp,-8
 508233c:	df000115 	stw	fp,4(sp)
 5082340:	df000104 	addi	fp,sp,4
    int i;
    for(i=0;i<SEG7_NUM;i++){
 5082344:	e03fff15 	stw	zero,-4(fp)
 5082348:	00000e06 	br	5082384 <SEG7_Number+0x4c>
        SEG7_SET(i, szMap[i]);
 508234c:	e0bfff17 	ldw	r2,-4(fp)
 5082350:	100490ba 	slli	r2,r2,2
 5082354:	1007883a 	mov	r3,r2
 5082358:	00810034 	movhi	r2,1024
 508235c:	1887883a 	add	r3,r3,r2
 5082360:	e13fff17 	ldw	r4,-4(fp)
 5082364:	00814274 	movhi	r2,1289
 5082368:	2085883a 	add	r2,r4,r2
 508236c:	1099ac03 	ldbu	r2,26288(r2)
 5082370:	10803fcc 	andi	r2,r2,255
 5082374:	18800035 	stwio	r2,0(r3)
    for(i=0;i<SEG7_NUM;i++){
 5082378:	e0bfff17 	ldw	r2,-4(fp)
 508237c:	10800044 	addi	r2,r2,1
 5082380:	e0bfff15 	stw	r2,-4(fp)
 5082384:	e0bfff17 	ldw	r2,-4(fp)
 5082388:	10800190 	cmplti	r2,r2,6
 508238c:	103fef1e 	bne	r2,zero,508234c <SEG7_Number+0x14>
    }        
}
 5082390:	0001883a 	nop
 5082394:	0001883a 	nop
 5082398:	e037883a 	mov	sp,fp
 508239c:	df000017 	ldw	fp,0(sp)
 50823a0:	dec00104 	addi	sp,sp,4
 50823a4:	f800283a 	ret

050823a8 <SEG7_Hex>:

void SEG7_Hex(alt_u32 Data, alt_u8 point_mask){
 50823a8:	defffb04 	addi	sp,sp,-20
 50823ac:	df000415 	stw	fp,16(sp)
 50823b0:	df000404 	addi	fp,sp,16
 50823b4:	e13ffd15 	stw	r4,-12(fp)
 50823b8:	2805883a 	mov	r2,r5
 50823bc:	e0bffc05 	stb	r2,-16(fp)
    alt_u8 mask = 0x01;
 50823c0:	00800044 	movi	r2,1
 50823c4:	e0bfffc5 	stb	r2,-1(fp)
    alt_u8 seg_mask;
    int i;
    
    //
    seg_mask = 0;
 50823c8:	e03fff85 	stb	zero,-2(fp)
    for(i=0;i<SEG7_NUM;i++){
 50823cc:	e03ffe15 	stw	zero,-8(fp)
 50823d0:	00001f06 	br	5082450 <SEG7_Hex+0xa8>
        seg_mask = szMap[Data & 0x0F];
 50823d4:	e0bffd17 	ldw	r2,-12(fp)
 50823d8:	10c003cc 	andi	r3,r2,15
 50823dc:	00814274 	movhi	r2,1289
 50823e0:	1885883a 	add	r2,r3,r2
 50823e4:	1099ac03 	ldbu	r2,26288(r2)
 50823e8:	e0bfff85 	stb	r2,-2(fp)
        Data >>= 4;
 50823ec:	e0bffd17 	ldw	r2,-12(fp)
 50823f0:	1004d13a 	srli	r2,r2,4
 50823f4:	e0bffd15 	stw	r2,-12(fp)
        if (point_mask & mask)
 50823f8:	e0fffc03 	ldbu	r3,-16(fp)
 50823fc:	e0bfffc3 	ldbu	r2,-1(fp)
 5082400:	1884703a 	and	r2,r3,r2
 5082404:	10803fcc 	andi	r2,r2,255
 5082408:	10000426 	beq	r2,zero,508241c <SEG7_Hex+0x74>
            seg_mask |= 0x80;
 508240c:	e0ffff83 	ldbu	r3,-2(fp)
 5082410:	00bfe004 	movi	r2,-128
 5082414:	1884b03a 	or	r2,r3,r2
 5082418:	e0bfff85 	stb	r2,-2(fp)
        mask <<= 1;     
 508241c:	e0bfffc3 	ldbu	r2,-1(fp)
 5082420:	1085883a 	add	r2,r2,r2
 5082424:	e0bfffc5 	stb	r2,-1(fp)
        SEG7_SET(i, seg_mask);
 5082428:	e0bffe17 	ldw	r2,-8(fp)
 508242c:	100490ba 	slli	r2,r2,2
 5082430:	1007883a 	mov	r3,r2
 5082434:	00810034 	movhi	r2,1024
 5082438:	1885883a 	add	r2,r3,r2
 508243c:	e0ffff83 	ldbu	r3,-2(fp)
 5082440:	10c00035 	stwio	r3,0(r2)
    for(i=0;i<SEG7_NUM;i++){
 5082444:	e0bffe17 	ldw	r2,-8(fp)
 5082448:	10800044 	addi	r2,r2,1
 508244c:	e0bffe15 	stw	r2,-8(fp)
 5082450:	e0bffe17 	ldw	r2,-8(fp)
 5082454:	10800190 	cmplti	r2,r2,6
 5082458:	103fde1e 	bne	r2,zero,50823d4 <SEG7_Hex+0x2c>
    }        
}
 508245c:	0001883a 	nop
 5082460:	0001883a 	nop
 5082464:	e037883a 	mov	sp,fp
 5082468:	df000017 	ldw	fp,0(sp)
 508246c:	dec00104 	addi	sp,sp,4
 5082470:	f800283a 	ret

05082474 <SEG7_Decimal>:

void SEG7_Decimal(alt_u32 Data, alt_u8 point_mask){
 5082474:	defffa04 	addi	sp,sp,-24
 5082478:	dfc00515 	stw	ra,20(sp)
 508247c:	df000415 	stw	fp,16(sp)
 5082480:	df000404 	addi	fp,sp,16
 5082484:	e13ffd15 	stw	r4,-12(fp)
 5082488:	2805883a 	mov	r2,r5
 508248c:	e0bffc05 	stb	r2,-16(fp)
    alt_u8 mask = 0x01;
 5082490:	00800044 	movi	r2,1
 5082494:	e0bfffc5 	stb	r2,-1(fp)
    alt_u8 seg_mask;
    int i;
    
    //
    seg_mask = 0;
 5082498:	e03fff85 	stb	zero,-2(fp)
    for(i=0;i<SEG7_NUM;i++){
 508249c:	e03ffe15 	stw	zero,-8(fp)
 50824a0:	00002406 	br	5082534 <SEG7_Decimal+0xc0>
        seg_mask = szMap[Data%10];
 50824a4:	e0bffd17 	ldw	r2,-12(fp)
 50824a8:	01400284 	movi	r5,10
 50824ac:	1009883a 	mov	r4,r2
 50824b0:	50828640 	call	5082864 <__umodsi3>
 50824b4:	1007883a 	mov	r3,r2
 50824b8:	00814274 	movhi	r2,1289
 50824bc:	1885883a 	add	r2,r3,r2
 50824c0:	1099ac03 	ldbu	r2,26288(r2)
 50824c4:	e0bfff85 	stb	r2,-2(fp)
        Data /= 10;
 50824c8:	e0bffd17 	ldw	r2,-12(fp)
 50824cc:	01400284 	movi	r5,10
 50824d0:	1009883a 	mov	r4,r2
 50824d4:	50828000 	call	5082800 <__udivsi3>
 50824d8:	e0bffd15 	stw	r2,-12(fp)
        if (point_mask & mask)
 50824dc:	e0fffc03 	ldbu	r3,-16(fp)
 50824e0:	e0bfffc3 	ldbu	r2,-1(fp)
 50824e4:	1884703a 	and	r2,r3,r2
 50824e8:	10803fcc 	andi	r2,r2,255
 50824ec:	10000426 	beq	r2,zero,5082500 <SEG7_Decimal+0x8c>
            seg_mask |= 0x80;
 50824f0:	e0ffff83 	ldbu	r3,-2(fp)
 50824f4:	00bfe004 	movi	r2,-128
 50824f8:	1884b03a 	or	r2,r3,r2
 50824fc:	e0bfff85 	stb	r2,-2(fp)
        mask <<= 1;   
 5082500:	e0bfffc3 	ldbu	r2,-1(fp)
 5082504:	1085883a 	add	r2,r2,r2
 5082508:	e0bfffc5 	stb	r2,-1(fp)
        SEG7_SET(i, seg_mask);
 508250c:	e0bffe17 	ldw	r2,-8(fp)
 5082510:	100490ba 	slli	r2,r2,2
 5082514:	1007883a 	mov	r3,r2
 5082518:	00810034 	movhi	r2,1024
 508251c:	1885883a 	add	r2,r3,r2
 5082520:	e0ffff83 	ldbu	r3,-2(fp)
 5082524:	10c00035 	stwio	r3,0(r2)
    for(i=0;i<SEG7_NUM;i++){
 5082528:	e0bffe17 	ldw	r2,-8(fp)
 508252c:	10800044 	addi	r2,r2,1
 5082530:	e0bffe15 	stw	r2,-8(fp)
 5082534:	e0bffe17 	ldw	r2,-8(fp)
 5082538:	10800190 	cmplti	r2,r2,6
 508253c:	103fd91e 	bne	r2,zero,50824a4 <SEG7_Decimal+0x30>
    }        
  
} 
 5082540:	0001883a 	nop
 5082544:	0001883a 	nop
 5082548:	e037883a 	mov	sp,fp
 508254c:	dfc00117 	ldw	ra,4(sp)
 5082550:	df000017 	ldw	fp,0(sp)
 5082554:	dec00204 	addi	sp,sp,8
 5082558:	f800283a 	ret

0508255c <debug_output>:
    if (!UART_IsOpened())
        UART_Open();
    UART_WriteString(pMessage);  // UART debug
}
#else
void debug_output(char *pMessage){
 508255c:	defffd04 	addi	sp,sp,-12
 5082560:	dfc00215 	stw	ra,8(sp)
 5082564:	df000115 	stw	fp,4(sp)
 5082568:	df000104 	addi	fp,sp,4
 508256c:	e13fff15 	stw	r4,-4(fp)
    printf(pMessage);
 5082570:	e13fff17 	ldw	r4,-4(fp)
 5082574:	50828f00 	call	50828f0 <printf>
}
 5082578:	0001883a 	nop
 508257c:	e037883a 	mov	sp,fp
 5082580:	dfc00117 	ldw	ra,4(sp)
 5082584:	df000017 	ldw	fp,0(sp)
 5082588:	dec00204 	addi	sp,sp,8
 508258c:	f800283a 	ret

05082590 <myprintf>:

#endif


int myprintf(char *format, ...){
 5082590:	deff7804 	addi	sp,sp,-544
 5082594:	dfc08415 	stw	ra,528(sp)
 5082598:	df008315 	stw	fp,524(sp)
 508259c:	df008304 	addi	fp,sp,524
 50825a0:	e13f7d15 	stw	r4,-524(fp)
 50825a4:	e1400215 	stw	r5,8(fp)
 50825a8:	e1800315 	stw	r6,12(fp)
 50825ac:	e1c00415 	stw	r7,16(fp)
    int rc;
    char szText[512];
    
    va_list paramList;
    va_start(paramList, format);
 50825b0:	e0800204 	addi	r2,fp,8
 50825b4:	e0bf7e15 	stw	r2,-520(fp)
    rc = vsnprintf(szText, 512, format, paramList);
 50825b8:	e0ff7e17 	ldw	r3,-520(fp)
 50825bc:	e0bf7f04 	addi	r2,fp,-516
 50825c0:	180f883a 	mov	r7,r3
 50825c4:	e1bf7d17 	ldw	r6,-524(fp)
 50825c8:	01408004 	movi	r5,512
 50825cc:	1009883a 	mov	r4,r2
 50825d0:	5086da40 	call	5086da4 <vsnprintf>
 50825d4:	e0bfff15 	stw	r2,-4(fp)
    va_end(paramList);
    
    debug_output(szText);
 50825d8:	e0bf7f04 	addi	r2,fp,-516
 50825dc:	1009883a 	mov	r4,r2
 50825e0:	508255c0 	call	508255c <debug_output>

    return rc;    
 50825e4:	e0bfff17 	ldw	r2,-4(fp)
}
 50825e8:	e037883a 	mov	sp,fp
 50825ec:	dfc00117 	ldw	ra,4(sp)
 50825f0:	df000017 	ldw	fp,0(sp)
 50825f4:	dec00504 	addi	sp,sp,20
 50825f8:	f800283a 	ret

050825fc <myprintf_hex_array>:


int myprintf_hex_array(unsigned char *pHex, int len){
 50825fc:	defff704 	addi	sp,sp,-36
 5082600:	dfc00815 	stw	ra,32(sp)
 5082604:	df000715 	stw	fp,28(sp)
 5082608:	df000704 	addi	fp,sp,28
 508260c:	e13ffa15 	stw	r4,-24(fp)
 5082610:	e17ff915 	stw	r5,-28(fp)
    int i;
    unsigned char szText[16];
    for(i=0;i<len;i++){
 5082614:	e03fff15 	stw	zero,-4(fp)
 5082618:	00001106 	br	5082660 <myprintf_hex_array+0x64>
        sprintf(szText, "[%02X]", *(pHex+i));
 508261c:	e0bfff17 	ldw	r2,-4(fp)
 5082620:	e0fffa17 	ldw	r3,-24(fp)
 5082624:	1885883a 	add	r2,r3,r2
 5082628:	10800003 	ldbu	r2,0(r2)
 508262c:	10c03fcc 	andi	r3,r2,255
 5082630:	e0bffb04 	addi	r2,fp,-20
 5082634:	180d883a 	mov	r6,r3
 5082638:	01414274 	movhi	r5,1289
 508263c:	29580604 	addi	r5,r5,24600
 5082640:	1009883a 	mov	r4,r2
 5082644:	5082a580 	call	5082a58 <sprintf>
        DEBUG((szText));
 5082648:	e0bffb04 	addi	r2,fp,-20
 508264c:	1009883a 	mov	r4,r2
 5082650:	50825900 	call	5082590 <myprintf>
    for(i=0;i<len;i++){
 5082654:	e0bfff17 	ldw	r2,-4(fp)
 5082658:	10800044 	addi	r2,r2,1
 508265c:	e0bfff15 	stw	r2,-4(fp)
 5082660:	e0ffff17 	ldw	r3,-4(fp)
 5082664:	e0bff917 	ldw	r2,-28(fp)
 5082668:	18bfec16 	blt	r3,r2,508261c <myprintf_hex_array+0x20>
    }
    return len;
 508266c:	e0bff917 	ldw	r2,-28(fp)
}
 5082670:	e037883a 	mov	sp,fp
 5082674:	dfc00117 	ldw	ra,4(sp)
 5082678:	df000017 	ldw	fp,0(sp)
 508267c:	dec00204 	addi	sp,sp,8
 5082680:	f800283a 	ret

05082684 <myprintf_dword_array>:

int  myprintf_dword_array(unsigned int *pArray, int nElementCount){
 5082684:	defff704 	addi	sp,sp,-36
 5082688:	dfc00815 	stw	ra,32(sp)
 508268c:	df000715 	stw	fp,28(sp)
 5082690:	df000704 	addi	fp,sp,28
 5082694:	e13ffa15 	stw	r4,-24(fp)
 5082698:	e17ff915 	stw	r5,-28(fp)
    int i;
    char szText[16];
    for(i=0;i<nElementCount;i++){
 508269c:	e03fff15 	stw	zero,-4(fp)
 50826a0:	00001106 	br	50826e8 <myprintf_dword_array+0x64>
        sprintf(szText, "[%08X]", *(pArray+i));
 50826a4:	e0bfff17 	ldw	r2,-4(fp)
 50826a8:	100490ba 	slli	r2,r2,2
 50826ac:	e0fffa17 	ldw	r3,-24(fp)
 50826b0:	1885883a 	add	r2,r3,r2
 50826b4:	10c00017 	ldw	r3,0(r2)
 50826b8:	e0bffb04 	addi	r2,fp,-20
 50826bc:	180d883a 	mov	r6,r3
 50826c0:	01414274 	movhi	r5,1289
 50826c4:	29580804 	addi	r5,r5,24608
 50826c8:	1009883a 	mov	r4,r2
 50826cc:	5082a580 	call	5082a58 <sprintf>
        DEBUG((szText));
 50826d0:	e0bffb04 	addi	r2,fp,-20
 50826d4:	1009883a 	mov	r4,r2
 50826d8:	50825900 	call	5082590 <myprintf>
    for(i=0;i<nElementCount;i++){
 50826dc:	e0bfff17 	ldw	r2,-4(fp)
 50826e0:	10800044 	addi	r2,r2,1
 50826e4:	e0bfff15 	stw	r2,-4(fp)
 50826e8:	e0ffff17 	ldw	r3,-4(fp)
 50826ec:	e0bff917 	ldw	r2,-28(fp)
 50826f0:	18bfec16 	blt	r3,r2,50826a4 <myprintf_dword_array+0x20>
    }
    return nElementCount;
 50826f4:	e0bff917 	ldw	r2,-28(fp)
}
 50826f8:	e037883a 	mov	sp,fp
 50826fc:	dfc00117 	ldw	ra,4(sp)
 5082700:	df000017 	ldw	fp,0(sp)
 5082704:	dec00204 	addi	sp,sp,8
 5082708:	f800283a 	ret

0508270c <__divsi3>:
 508270c:	20001a16 	blt	r4,zero,5082778 <__divsi3+0x6c>
 5082710:	000f883a 	mov	r7,zero
 5082714:	2800020e 	bge	r5,zero,5082720 <__divsi3+0x14>
 5082718:	014bc83a 	sub	r5,zero,r5
 508271c:	39c0005c 	xori	r7,r7,1
 5082720:	200d883a 	mov	r6,r4
 5082724:	00c00044 	movi	r3,1
 5082728:	2900092e 	bgeu	r5,r4,5082750 <__divsi3+0x44>
 508272c:	00800804 	movi	r2,32
 5082730:	00c00044 	movi	r3,1
 5082734:	00000106 	br	508273c <__divsi3+0x30>
 5082738:	10001226 	beq	r2,zero,5082784 <__divsi3+0x78>
 508273c:	294b883a 	add	r5,r5,r5
 5082740:	10bfffc4 	addi	r2,r2,-1
 5082744:	18c7883a 	add	r3,r3,r3
 5082748:	293ffb36 	bltu	r5,r4,5082738 <__divsi3+0x2c>
 508274c:	18000d26 	beq	r3,zero,5082784 <__divsi3+0x78>
 5082750:	0005883a 	mov	r2,zero
 5082754:	31400236 	bltu	r6,r5,5082760 <__divsi3+0x54>
 5082758:	314dc83a 	sub	r6,r6,r5
 508275c:	10c4b03a 	or	r2,r2,r3
 5082760:	1806d07a 	srli	r3,r3,1
 5082764:	280ad07a 	srli	r5,r5,1
 5082768:	183ffa1e 	bne	r3,zero,5082754 <__divsi3+0x48>
 508276c:	38000126 	beq	r7,zero,5082774 <__divsi3+0x68>
 5082770:	0085c83a 	sub	r2,zero,r2
 5082774:	f800283a 	ret
 5082778:	0109c83a 	sub	r4,zero,r4
 508277c:	01c00044 	movi	r7,1
 5082780:	003fe406 	br	5082714 <__divsi3+0x8>
 5082784:	0005883a 	mov	r2,zero
 5082788:	003ff806 	br	508276c <__divsi3+0x60>

0508278c <__modsi3>:
 508278c:	20001916 	blt	r4,zero,50827f4 <__modsi3+0x68>
 5082790:	000f883a 	mov	r7,zero
 5082794:	2005883a 	mov	r2,r4
 5082798:	2800010e 	bge	r5,zero,50827a0 <__modsi3+0x14>
 508279c:	014bc83a 	sub	r5,zero,r5
 50827a0:	00c00044 	movi	r3,1
 50827a4:	2900092e 	bgeu	r5,r4,50827cc <__modsi3+0x40>
 50827a8:	01800804 	movi	r6,32
 50827ac:	00c00044 	movi	r3,1
 50827b0:	00000106 	br	50827b8 <__modsi3+0x2c>
 50827b4:	30000d26 	beq	r6,zero,50827ec <__modsi3+0x60>
 50827b8:	294b883a 	add	r5,r5,r5
 50827bc:	31bfffc4 	addi	r6,r6,-1
 50827c0:	18c7883a 	add	r3,r3,r3
 50827c4:	293ffb36 	bltu	r5,r4,50827b4 <__modsi3+0x28>
 50827c8:	18000826 	beq	r3,zero,50827ec <__modsi3+0x60>
 50827cc:	1806d07a 	srli	r3,r3,1
 50827d0:	11400136 	bltu	r2,r5,50827d8 <__modsi3+0x4c>
 50827d4:	1145c83a 	sub	r2,r2,r5
 50827d8:	280ad07a 	srli	r5,r5,1
 50827dc:	183ffb1e 	bne	r3,zero,50827cc <__modsi3+0x40>
 50827e0:	38000126 	beq	r7,zero,50827e8 <__modsi3+0x5c>
 50827e4:	0085c83a 	sub	r2,zero,r2
 50827e8:	f800283a 	ret
 50827ec:	2005883a 	mov	r2,r4
 50827f0:	003ffb06 	br	50827e0 <__modsi3+0x54>
 50827f4:	0109c83a 	sub	r4,zero,r4
 50827f8:	01c00044 	movi	r7,1
 50827fc:	003fe506 	br	5082794 <__modsi3+0x8>

05082800 <__udivsi3>:
 5082800:	200d883a 	mov	r6,r4
 5082804:	2900152e 	bgeu	r5,r4,508285c <__udivsi3+0x5c>
 5082808:	28001416 	blt	r5,zero,508285c <__udivsi3+0x5c>
 508280c:	00800804 	movi	r2,32
 5082810:	00c00044 	movi	r3,1
 5082814:	00000206 	br	5082820 <__udivsi3+0x20>
 5082818:	10000e26 	beq	r2,zero,5082854 <__udivsi3+0x54>
 508281c:	28000516 	blt	r5,zero,5082834 <__udivsi3+0x34>
 5082820:	294b883a 	add	r5,r5,r5
 5082824:	10bfffc4 	addi	r2,r2,-1
 5082828:	18c7883a 	add	r3,r3,r3
 508282c:	293ffa36 	bltu	r5,r4,5082818 <__udivsi3+0x18>
 5082830:	18000826 	beq	r3,zero,5082854 <__udivsi3+0x54>
 5082834:	0005883a 	mov	r2,zero
 5082838:	31400236 	bltu	r6,r5,5082844 <__udivsi3+0x44>
 508283c:	314dc83a 	sub	r6,r6,r5
 5082840:	10c4b03a 	or	r2,r2,r3
 5082844:	1806d07a 	srli	r3,r3,1
 5082848:	280ad07a 	srli	r5,r5,1
 508284c:	183ffa1e 	bne	r3,zero,5082838 <__udivsi3+0x38>
 5082850:	f800283a 	ret
 5082854:	0005883a 	mov	r2,zero
 5082858:	f800283a 	ret
 508285c:	00c00044 	movi	r3,1
 5082860:	003ff406 	br	5082834 <__udivsi3+0x34>

05082864 <__umodsi3>:
 5082864:	2005883a 	mov	r2,r4
 5082868:	2900132e 	bgeu	r5,r4,50828b8 <__umodsi3+0x54>
 508286c:	28001216 	blt	r5,zero,50828b8 <__umodsi3+0x54>
 5082870:	01800804 	movi	r6,32
 5082874:	00c00044 	movi	r3,1
 5082878:	00000206 	br	5082884 <__umodsi3+0x20>
 508287c:	30000c26 	beq	r6,zero,50828b0 <__umodsi3+0x4c>
 5082880:	28000516 	blt	r5,zero,5082898 <__umodsi3+0x34>
 5082884:	294b883a 	add	r5,r5,r5
 5082888:	31bfffc4 	addi	r6,r6,-1
 508288c:	18c7883a 	add	r3,r3,r3
 5082890:	293ffa36 	bltu	r5,r4,508287c <__umodsi3+0x18>
 5082894:	18000626 	beq	r3,zero,50828b0 <__umodsi3+0x4c>
 5082898:	1806d07a 	srli	r3,r3,1
 508289c:	11400136 	bltu	r2,r5,50828a4 <__umodsi3+0x40>
 50828a0:	1145c83a 	sub	r2,r2,r5
 50828a4:	280ad07a 	srli	r5,r5,1
 50828a8:	183ffb1e 	bne	r3,zero,5082898 <__umodsi3+0x34>
 50828ac:	f800283a 	ret
 50828b0:	2005883a 	mov	r2,r4
 50828b4:	f800283a 	ret
 50828b8:	00c00044 	movi	r3,1
 50828bc:	003ff606 	br	5082898 <__umodsi3+0x34>

050828c0 <_printf_r>:
 50828c0:	defffd04 	addi	sp,sp,-12
 50828c4:	2805883a 	mov	r2,r5
 50828c8:	dfc00015 	stw	ra,0(sp)
 50828cc:	d9800115 	stw	r6,4(sp)
 50828d0:	d9c00215 	stw	r7,8(sp)
 50828d4:	21400217 	ldw	r5,8(r4)
 50828d8:	d9c00104 	addi	r7,sp,4
 50828dc:	100d883a 	mov	r6,r2
 50828e0:	5084bd40 	call	5084bd4 <___vfprintf_internal_r>
 50828e4:	dfc00017 	ldw	ra,0(sp)
 50828e8:	dec00304 	addi	sp,sp,12
 50828ec:	f800283a 	ret

050828f0 <printf>:
 50828f0:	defffc04 	addi	sp,sp,-16
 50828f4:	dfc00015 	stw	ra,0(sp)
 50828f8:	d9400115 	stw	r5,4(sp)
 50828fc:	d9800215 	stw	r6,8(sp)
 5082900:	d9c00315 	stw	r7,12(sp)
 5082904:	008142b4 	movhi	r2,1290
 5082908:	10a09917 	ldw	r2,-32156(r2)
 508290c:	200b883a 	mov	r5,r4
 5082910:	d9800104 	addi	r6,sp,4
 5082914:	11000217 	ldw	r4,8(r2)
 5082918:	5086cc80 	call	5086cc8 <__vfprintf_internal>
 508291c:	dfc00017 	ldw	ra,0(sp)
 5082920:	dec00404 	addi	sp,sp,16
 5082924:	f800283a 	ret

05082928 <_puts_r>:
 5082928:	defff504 	addi	sp,sp,-44
 508292c:	dc000815 	stw	r16,32(sp)
 5082930:	2021883a 	mov	r16,r4
 5082934:	2809883a 	mov	r4,r5
 5082938:	dc400915 	stw	r17,36(sp)
 508293c:	dfc00a15 	stw	ra,40(sp)
 5082940:	2823883a 	mov	r17,r5
 5082944:	5082abc0 	call	5082abc <strlen>
 5082948:	11000044 	addi	r4,r2,1
 508294c:	d8800515 	stw	r2,20(sp)
 5082950:	00800044 	movi	r2,1
 5082954:	00c14274 	movhi	r3,1289
 5082958:	d8800715 	stw	r2,28(sp)
 508295c:	d8800404 	addi	r2,sp,16
 5082960:	18d80a04 	addi	r3,r3,24616
 5082964:	d8800115 	stw	r2,4(sp)
 5082968:	00800084 	movi	r2,2
 508296c:	dc400415 	stw	r17,16(sp)
 5082970:	d8c00615 	stw	r3,24(sp)
 5082974:	d9000315 	stw	r4,12(sp)
 5082978:	d8800215 	stw	r2,8(sp)
 508297c:	81400217 	ldw	r5,8(r16)
 5082980:	80000226 	beq	r16,zero,508298c <_puts_r+0x64>
 5082984:	80800e17 	ldw	r2,56(r16)
 5082988:	10001326 	beq	r2,zero,50829d8 <_puts_r+0xb0>
 508298c:	2880030b 	ldhu	r2,12(r5)
 5082990:	10c8000c 	andi	r3,r2,8192
 5082994:	1800061e 	bne	r3,zero,50829b0 <_puts_r+0x88>
 5082998:	28c01917 	ldw	r3,100(r5)
 508299c:	0137ffc4 	movi	r4,-8193
 50829a0:	10880014 	ori	r2,r2,8192
 50829a4:	1906703a 	and	r3,r3,r4
 50829a8:	2880030d 	sth	r2,12(r5)
 50829ac:	28c01915 	stw	r3,100(r5)
 50829b0:	d9800104 	addi	r6,sp,4
 50829b4:	8009883a 	mov	r4,r16
 50829b8:	50894980 	call	5089498 <__sfvwrite_r>
 50829bc:	10000b1e 	bne	r2,zero,50829ec <_puts_r+0xc4>
 50829c0:	00800284 	movi	r2,10
 50829c4:	dfc00a17 	ldw	ra,40(sp)
 50829c8:	dc400917 	ldw	r17,36(sp)
 50829cc:	dc000817 	ldw	r16,32(sp)
 50829d0:	dec00b04 	addi	sp,sp,44
 50829d4:	f800283a 	ret
 50829d8:	8009883a 	mov	r4,r16
 50829dc:	d9400015 	stw	r5,0(sp)
 50829e0:	50890380 	call	5089038 <__sinit>
 50829e4:	d9400017 	ldw	r5,0(sp)
 50829e8:	003fe806 	br	508298c <_puts_r+0x64>
 50829ec:	00bfffc4 	movi	r2,-1
 50829f0:	003ff406 	br	50829c4 <_puts_r+0x9c>

050829f4 <puts>:
 50829f4:	008142b4 	movhi	r2,1290
 50829f8:	200b883a 	mov	r5,r4
 50829fc:	11209917 	ldw	r4,-32156(r2)
 5082a00:	50829281 	jmpi	5082928 <_puts_r>

05082a04 <_sprintf_r>:
 5082a04:	deffe404 	addi	sp,sp,-112
 5082a08:	2807883a 	mov	r3,r5
 5082a0c:	dfc01a15 	stw	ra,104(sp)
 5082a10:	d9c01b15 	stw	r7,108(sp)
 5082a14:	00a00034 	movhi	r2,32768
 5082a18:	023ffff4 	movhi	r8,65535
 5082a1c:	10bfffc4 	addi	r2,r2,-1
 5082a20:	42008204 	addi	r8,r8,520
 5082a24:	d9c01b04 	addi	r7,sp,108
 5082a28:	d80b883a 	mov	r5,sp
 5082a2c:	d8c00015 	stw	r3,0(sp)
 5082a30:	d8c00415 	stw	r3,16(sp)
 5082a34:	d8800515 	stw	r2,20(sp)
 5082a38:	d8800215 	stw	r2,8(sp)
 5082a3c:	da000315 	stw	r8,12(sp)
 5082a40:	5082b540 	call	5082b54 <___svfprintf_internal_r>
 5082a44:	d8c00017 	ldw	r3,0(sp)
 5082a48:	18000005 	stb	zero,0(r3)
 5082a4c:	dfc01a17 	ldw	ra,104(sp)
 5082a50:	dec01c04 	addi	sp,sp,112
 5082a54:	f800283a 	ret

05082a58 <sprintf>:
 5082a58:	deffe304 	addi	sp,sp,-116
 5082a5c:	2007883a 	mov	r3,r4
 5082a60:	dfc01a15 	stw	ra,104(sp)
 5082a64:	d9801b15 	stw	r6,108(sp)
 5082a68:	d9c01c15 	stw	r7,112(sp)
 5082a6c:	008142b4 	movhi	r2,1290
 5082a70:	11209917 	ldw	r4,-32156(r2)
 5082a74:	023ffff4 	movhi	r8,65535
 5082a78:	00a00034 	movhi	r2,32768
 5082a7c:	10bfffc4 	addi	r2,r2,-1
 5082a80:	42008204 	addi	r8,r8,520
 5082a84:	280d883a 	mov	r6,r5
 5082a88:	d9c01b04 	addi	r7,sp,108
 5082a8c:	d80b883a 	mov	r5,sp
 5082a90:	d8c00015 	stw	r3,0(sp)
 5082a94:	d8c00415 	stw	r3,16(sp)
 5082a98:	d8800515 	stw	r2,20(sp)
 5082a9c:	d8800215 	stw	r2,8(sp)
 5082aa0:	da000315 	stw	r8,12(sp)
 5082aa4:	5082b540 	call	5082b54 <___svfprintf_internal_r>
 5082aa8:	d8c00017 	ldw	r3,0(sp)
 5082aac:	18000005 	stb	zero,0(r3)
 5082ab0:	dfc01a17 	ldw	ra,104(sp)
 5082ab4:	dec01d04 	addi	sp,sp,116
 5082ab8:	f800283a 	ret

05082abc <strlen>:
 5082abc:	208000cc 	andi	r2,r4,3
 5082ac0:	10000926 	beq	r2,zero,5082ae8 <strlen+0x2c>
 5082ac4:	2005883a 	mov	r2,r4
 5082ac8:	00000306 	br	5082ad8 <strlen+0x1c>
 5082acc:	10800044 	addi	r2,r2,1
 5082ad0:	10c000cc 	andi	r3,r2,3
 5082ad4:	18000526 	beq	r3,zero,5082aec <strlen+0x30>
 5082ad8:	10c00007 	ldb	r3,0(r2)
 5082adc:	183ffb1e 	bne	r3,zero,5082acc <strlen+0x10>
 5082ae0:	1105c83a 	sub	r2,r2,r4
 5082ae4:	f800283a 	ret
 5082ae8:	2005883a 	mov	r2,r4
 5082aec:	11400017 	ldw	r5,0(r2)
 5082af0:	01ffbff4 	movhi	r7,65279
 5082af4:	39ffbfc4 	addi	r7,r7,-257
 5082af8:	29c7883a 	add	r3,r5,r7
 5082afc:	01a02074 	movhi	r6,32897
 5082b00:	014a303a 	nor	r5,zero,r5
 5082b04:	1946703a 	and	r3,r3,r5
 5082b08:	31a02004 	addi	r6,r6,-32640
 5082b0c:	1986703a 	and	r3,r3,r6
 5082b10:	1800071e 	bne	r3,zero,5082b30 <strlen+0x74>
 5082b14:	11400117 	ldw	r5,4(r2)
 5082b18:	10800104 	addi	r2,r2,4
 5082b1c:	29c7883a 	add	r3,r5,r7
 5082b20:	014a303a 	nor	r5,zero,r5
 5082b24:	1946703a 	and	r3,r3,r5
 5082b28:	1986703a 	and	r3,r3,r6
 5082b2c:	183ff926 	beq	r3,zero,5082b14 <strlen+0x58>
 5082b30:	10c00007 	ldb	r3,0(r2)
 5082b34:	183fea26 	beq	r3,zero,5082ae0 <strlen+0x24>
 5082b38:	10c00047 	ldb	r3,1(r2)
 5082b3c:	10800044 	addi	r2,r2,1
 5082b40:	183fe726 	beq	r3,zero,5082ae0 <strlen+0x24>
 5082b44:	10c00047 	ldb	r3,1(r2)
 5082b48:	10800044 	addi	r2,r2,1
 5082b4c:	183ffa1e 	bne	r3,zero,5082b38 <strlen+0x7c>
 5082b50:	003fe306 	br	5082ae0 <strlen+0x24>

05082b54 <___svfprintf_internal_r>:
 5082b54:	deffbf04 	addi	sp,sp,-260
 5082b58:	dfc04015 	stw	ra,256(sp)
 5082b5c:	dd803d15 	stw	r22,244(sp)
 5082b60:	dcc03a15 	stw	r19,232(sp)
 5082b64:	dc803915 	stw	r18,228(sp)
 5082b68:	2027883a 	mov	r19,r4
 5082b6c:	2825883a 	mov	r18,r5
 5082b70:	302d883a 	mov	r22,r6
 5082b74:	d9c00615 	stw	r7,24(sp)
 5082b78:	df003f15 	stw	fp,252(sp)
 5082b7c:	ddc03e15 	stw	r23,248(sp)
 5082b80:	dd403c15 	stw	r21,240(sp)
 5082b84:	dd003b15 	stw	r20,236(sp)
 5082b88:	dc403815 	stw	r17,224(sp)
 5082b8c:	dc003715 	stw	r16,220(sp)
 5082b90:	5089a980 	call	5089a98 <_localeconv_r>
 5082b94:	10800017 	ldw	r2,0(r2)
 5082b98:	1009883a 	mov	r4,r2
 5082b9c:	d8800d15 	stw	r2,52(sp)
 5082ba0:	5082abc0 	call	5082abc <strlen>
 5082ba4:	90c0030b 	ldhu	r3,12(r18)
 5082ba8:	d8800c15 	stw	r2,48(sp)
 5082bac:	18c0200c 	andi	r3,r3,128
 5082bb0:	18000226 	beq	r3,zero,5082bbc <___svfprintf_internal_r+0x68>
 5082bb4:	90800417 	ldw	r2,16(r18)
 5082bb8:	10051026 	beq	r2,zero,5083ffc <___svfprintf_internal_r+0x14a8>
 5082bbc:	d8802704 	addi	r2,sp,156
 5082bc0:	b02f883a 	mov	r23,r22
 5082bc4:	d8801a15 	stw	r2,104(sp)
 5082bc8:	d8001c15 	stw	zero,112(sp)
 5082bcc:	d8001b15 	stw	zero,108(sp)
 5082bd0:	d8000815 	stw	zero,32(sp)
 5082bd4:	d8000915 	stw	zero,36(sp)
 5082bd8:	d8000a15 	stw	zero,40(sp)
 5082bdc:	d8000b15 	stw	zero,44(sp)
 5082be0:	d8001015 	stw	zero,64(sp)
 5082be4:	d8000515 	stw	zero,20(sp)
 5082be8:	102d883a 	mov	r22,r2
 5082bec:	b8800007 	ldb	r2,0(r23)
 5082bf0:	1000d526 	beq	r2,zero,5082f48 <___svfprintf_internal_r+0x3f4>
 5082bf4:	b821883a 	mov	r16,r23
 5082bf8:	00000306 	br	5082c08 <___svfprintf_internal_r+0xb4>
 5082bfc:	80800047 	ldb	r2,1(r16)
 5082c00:	84000044 	addi	r16,r16,1
 5082c04:	10010626 	beq	r2,zero,5083020 <___svfprintf_internal_r+0x4cc>
 5082c08:	10800958 	cmpnei	r2,r2,37
 5082c0c:	103ffb1e 	bne	r2,zero,5082bfc <___svfprintf_internal_r+0xa8>
 5082c10:	85e3c83a 	sub	r17,r16,r23
 5082c14:	85c1041e 	bne	r16,r23,5083028 <___svfprintf_internal_r+0x4d4>
 5082c18:	80800003 	ldbu	r2,0(r16)
 5082c1c:	10803fcc 	andi	r2,r2,255
 5082c20:	1080201c 	xori	r2,r2,128
 5082c24:	10bfe004 	addi	r2,r2,-128
 5082c28:	1000c726 	beq	r2,zero,5082f48 <___svfprintf_internal_r+0x3f4>
 5082c2c:	82c00047 	ldb	r11,1(r16)
 5082c30:	85c00044 	addi	r23,r16,1
 5082c34:	d8001345 	stb	zero,77(sp)
 5082c38:	0009883a 	mov	r4,zero
 5082c3c:	000b883a 	mov	r5,zero
 5082c40:	023fffc4 	movi	r8,-1
 5082c44:	0021883a 	mov	r16,zero
 5082c48:	0019883a 	mov	r12,zero
 5082c4c:	bdc00044 	addi	r23,r23,1
 5082c50:	5839883a 	mov	fp,r11
 5082c54:	e0bff804 	addi	r2,fp,-32
 5082c58:	10c01668 	cmpgeui	r3,r2,89
 5082c5c:	18006a1e 	bne	r3,zero,5082e08 <___svfprintf_internal_r+0x2b4>
 5082c60:	100490ba 	slli	r2,r2,2
 5082c64:	00c14234 	movhi	r3,1288
 5082c68:	10c7883a 	add	r3,r2,r3
 5082c6c:	188b1d17 	ldw	r2,11380(r3)
 5082c70:	1000683a 	jmp	r2
 5082c74:	0508356c 	andhi	r20,zero,8405
 5082c78:	05082e08 	cmpgei	r20,zero,8376
 5082c7c:	05082e08 	cmpgei	r20,zero,8376
 5082c80:	05083560 	cmpeqi	r20,zero,8405
 5082c84:	05082e08 	cmpgei	r20,zero,8376
 5082c88:	05082e08 	cmpgei	r20,zero,8376
 5082c8c:	05082e08 	cmpgei	r20,zero,8376
 5082c90:	05082e08 	cmpgei	r20,zero,8376
 5082c94:	05082e08 	cmpgei	r20,zero,8376
 5082c98:	05082e08 	cmpgei	r20,zero,8376
 5082c9c:	05083538 	rdprs	r20,zero,8404
 5082ca0:	05083528 	cmpgeui	r20,zero,8404
 5082ca4:	05082e08 	cmpgei	r20,zero,8376
 5082ca8:	05083510 	cmplti	r20,zero,8404
 5082cac:	050834cc 	andi	r20,zero,8403
 5082cb0:	05082e08 	cmpgei	r20,zero,8376
 5082cb4:	050834c0 	call	50834c <__alt_mem_sdram+0x50834c>
 5082cb8:	05082dd8 	cmpnei	r20,zero,8375
 5082cbc:	05082dd8 	cmpnei	r20,zero,8375
 5082cc0:	05082dd8 	cmpnei	r20,zero,8375
 5082cc4:	05082dd8 	cmpnei	r20,zero,8375
 5082cc8:	05082dd8 	cmpnei	r20,zero,8375
 5082ccc:	05082dd8 	cmpnei	r20,zero,8375
 5082cd0:	05082dd8 	cmpnei	r20,zero,8375
 5082cd4:	05082dd8 	cmpnei	r20,zero,8375
 5082cd8:	05082dd8 	cmpnei	r20,zero,8375
 5082cdc:	05082e08 	cmpgei	r20,zero,8376
 5082ce0:	05082e08 	cmpgei	r20,zero,8376
 5082ce4:	05082e08 	cmpgei	r20,zero,8376
 5082ce8:	05082e08 	cmpgei	r20,zero,8376
 5082cec:	05082e08 	cmpgei	r20,zero,8376
 5082cf0:	05082e08 	cmpgei	r20,zero,8376
 5082cf4:	05082e08 	cmpgei	r20,zero,8376
 5082cf8:	05082e08 	cmpgei	r20,zero,8376
 5082cfc:	05082e08 	cmpgei	r20,zero,8376
 5082d00:	05082e08 	cmpgei	r20,zero,8376
 5082d04:	050833b4 	movhi	r20,8398
 5082d08:	05083084 	movi	r20,8386
 5082d0c:	05082e08 	cmpgei	r20,zero,8376
 5082d10:	05083084 	movi	r20,8386
 5082d14:	05082e08 	cmpgei	r20,zero,8376
 5082d18:	05082e08 	cmpgei	r20,zero,8376
 5082d1c:	05082e08 	cmpgei	r20,zero,8376
 5082d20:	05082e08 	cmpgei	r20,zero,8376
 5082d24:	050833a8 	cmpgeui	r20,zero,8398
 5082d28:	05082e08 	cmpgei	r20,zero,8376
 5082d2c:	05082e08 	cmpgei	r20,zero,8376
 5082d30:	05082fb8 	rdprs	r20,zero,8382
 5082d34:	05082e08 	cmpgei	r20,zero,8376
 5082d38:	05082e08 	cmpgei	r20,zero,8376
 5082d3c:	05082e08 	cmpgei	r20,zero,8376
 5082d40:	05082e08 	cmpgei	r20,zero,8376
 5082d44:	05082e08 	cmpgei	r20,zero,8376
 5082d48:	05082f90 	cmplti	r20,zero,8382
 5082d4c:	05082e08 	cmpgei	r20,zero,8376
 5082d50:	05082e08 	cmpgei	r20,zero,8376
 5082d54:	05083660 	cmpeqi	r20,zero,8409
 5082d58:	05082e08 	cmpgei	r20,zero,8376
 5082d5c:	05082e08 	cmpgei	r20,zero,8376
 5082d60:	05082e08 	cmpgei	r20,zero,8376
 5082d64:	05082e08 	cmpgei	r20,zero,8376
 5082d68:	05082e08 	cmpgei	r20,zero,8376
 5082d6c:	05082e08 	cmpgei	r20,zero,8376
 5082d70:	05082e08 	cmpgei	r20,zero,8376
 5082d74:	05082e08 	cmpgei	r20,zero,8376
 5082d78:	05082e08 	cmpgei	r20,zero,8376
 5082d7c:	05082e08 	cmpgei	r20,zero,8376
 5082d80:	05083638 	rdprs	r20,zero,8408
 5082d84:	0508328c 	andi	r20,zero,8394
 5082d88:	05083084 	movi	r20,8386
 5082d8c:	05083084 	movi	r20,8386
 5082d90:	05083084 	movi	r20,8386
 5082d94:	05083300 	call	508330 <__alt_mem_sdram+0x508330>
 5082d98:	0508328c 	andi	r20,zero,8394
 5082d9c:	05082e08 	cmpgei	r20,zero,8376
 5082da0:	05082e08 	cmpgei	r20,zero,8376
 5082da4:	05083394 	movui	r20,8398
 5082da8:	05082e08 	cmpgei	r20,zero,8376
 5082dac:	05083358 	cmpnei	r20,zero,8397
 5082db0:	05082fbc 	xorhi	r20,zero,8382
 5082db4:	05083318 	cmpnei	r20,zero,8396
 5082db8:	0508330c 	andi	r20,zero,8396
 5082dbc:	05082e08 	cmpgei	r20,zero,8376
 5082dc0:	050835e0 	cmpeqi	r20,zero,8407
 5082dc4:	05082e08 	cmpgei	r20,zero,8376
 5082dc8:	05082f94 	movui	r20,8382
 5082dcc:	05082e08 	cmpgei	r20,zero,8376
 5082dd0:	05082e08 	cmpgei	r20,zero,8376
 5082dd4:	05083598 	cmpnei	r20,zero,8406
 5082dd8:	0021883a 	mov	r16,zero
 5082ddc:	e0bff404 	addi	r2,fp,-48
 5082de0:	bf000007 	ldb	fp,0(r23)
 5082de4:	840002a4 	muli	r16,r16,10
 5082de8:	bdc00044 	addi	r23,r23,1
 5082dec:	1421883a 	add	r16,r2,r16
 5082df0:	e0bff404 	addi	r2,fp,-48
 5082df4:	10c002b0 	cmpltui	r3,r2,10
 5082df8:	183ff91e 	bne	r3,zero,5082de0 <___svfprintf_internal_r+0x28c>
 5082dfc:	e0bff804 	addi	r2,fp,-32
 5082e00:	10c01668 	cmpgeui	r3,r2,89
 5082e04:	183f9626 	beq	r3,zero,5082c60 <___svfprintf_internal_r+0x10c>
 5082e08:	21003fcc 	andi	r4,r4,255
 5082e0c:	2006911e 	bne	r4,zero,5084854 <___svfprintf_internal_r+0x1d00>
 5082e10:	e0004d26 	beq	fp,zero,5082f48 <___svfprintf_internal_r+0x3f4>
 5082e14:	df001d05 	stb	fp,116(sp)
 5082e18:	d8001345 	stb	zero,77(sp)
 5082e1c:	05000044 	movi	r20,1
 5082e20:	05400044 	movi	r21,1
 5082e24:	dc401d04 	addi	r17,sp,116
 5082e28:	db000415 	stw	r12,16(sp)
 5082e2c:	0011883a 	mov	r8,zero
 5082e30:	d8000715 	stw	zero,28(sp)
 5082e34:	d8800417 	ldw	r2,16(sp)
 5082e38:	1380008c 	andi	r14,r2,2
 5082e3c:	70000126 	beq	r14,zero,5082e44 <___svfprintf_internal_r+0x2f0>
 5082e40:	a5000084 	addi	r20,r20,2
 5082e44:	d8800417 	ldw	r2,16(sp)
 5082e48:	d8c01c17 	ldw	r3,112(sp)
 5082e4c:	1340210c 	andi	r13,r2,132
 5082e50:	6800021e 	bne	r13,zero,5082e5c <___svfprintf_internal_r+0x308>
 5082e54:	850fc83a 	sub	r7,r16,r20
 5082e58:	01c32916 	blt	zero,r7,5083b00 <___svfprintf_internal_r+0xfac>
 5082e5c:	d8801347 	ldb	r2,77(sp)
 5082e60:	10000c26 	beq	r2,zero,5082e94 <___svfprintf_internal_r+0x340>
 5082e64:	d8801b17 	ldw	r2,108(sp)
 5082e68:	d9001344 	addi	r4,sp,77
 5082e6c:	18c00044 	addi	r3,r3,1
 5082e70:	10800044 	addi	r2,r2,1
 5082e74:	b1000015 	stw	r4,0(r22)
 5082e78:	01000044 	movi	r4,1
 5082e7c:	d8801b15 	stw	r2,108(sp)
 5082e80:	b1000115 	stw	r4,4(r22)
 5082e84:	d8c01c15 	stw	r3,112(sp)
 5082e88:	10800208 	cmpgei	r2,r2,8
 5082e8c:	10035d1e 	bne	r2,zero,5083c04 <___svfprintf_internal_r+0x10b0>
 5082e90:	b5800204 	addi	r22,r22,8
 5082e94:	70000c26 	beq	r14,zero,5082ec8 <___svfprintf_internal_r+0x374>
 5082e98:	d8801b17 	ldw	r2,108(sp)
 5082e9c:	d9001384 	addi	r4,sp,78
 5082ea0:	18c00084 	addi	r3,r3,2
 5082ea4:	10800044 	addi	r2,r2,1
 5082ea8:	b1000015 	stw	r4,0(r22)
 5082eac:	01000084 	movi	r4,2
 5082eb0:	d8801b15 	stw	r2,108(sp)
 5082eb4:	b1000115 	stw	r4,4(r22)
 5082eb8:	d8c01c15 	stw	r3,112(sp)
 5082ebc:	10800208 	cmpgei	r2,r2,8
 5082ec0:	10035e1e 	bne	r2,zero,5083c3c <___svfprintf_internal_r+0x10e8>
 5082ec4:	b5800204 	addi	r22,r22,8
 5082ec8:	6b402018 	cmpnei	r13,r13,128
 5082ecc:	68023f26 	beq	r13,zero,50837cc <___svfprintf_internal_r+0xc78>
 5082ed0:	4551c83a 	sub	r8,r8,r21
 5082ed4:	02027716 	blt	zero,r8,50838b4 <___svfprintf_internal_r+0xd60>
 5082ed8:	d8800417 	ldw	r2,16(sp)
 5082edc:	1080400c 	andi	r2,r2,256
 5082ee0:	1001f11e 	bne	r2,zero,50836a8 <___svfprintf_internal_r+0xb54>
 5082ee4:	d8801b17 	ldw	r2,108(sp)
 5082ee8:	1d47883a 	add	r3,r3,r21
 5082eec:	b4400015 	stw	r17,0(r22)
 5082ef0:	10800044 	addi	r2,r2,1
 5082ef4:	b5400115 	stw	r21,4(r22)
 5082ef8:	d8801b15 	stw	r2,108(sp)
 5082efc:	d8c01c15 	stw	r3,112(sp)
 5082f00:	10800208 	cmpgei	r2,r2,8
 5082f04:	1002f41e 	bne	r2,zero,5083ad8 <___svfprintf_internal_r+0xf84>
 5082f08:	b5800204 	addi	r22,r22,8
 5082f0c:	d8800417 	ldw	r2,16(sp)
 5082f10:	1440010c 	andi	r17,r2,4
 5082f14:	88000226 	beq	r17,zero,5082f20 <___svfprintf_internal_r+0x3cc>
 5082f18:	8523c83a 	sub	r17,r16,r20
 5082f1c:	0440ac16 	blt	zero,r17,50831d0 <___svfprintf_internal_r+0x67c>
 5082f20:	8500010e 	bge	r16,r20,5082f28 <___svfprintf_internal_r+0x3d4>
 5082f24:	a021883a 	mov	r16,r20
 5082f28:	d8800517 	ldw	r2,20(sp)
 5082f2c:	1405883a 	add	r2,r2,r16
 5082f30:	d8800515 	stw	r2,20(sp)
 5082f34:	1802a61e 	bne	r3,zero,50839d0 <___svfprintf_internal_r+0xe7c>
 5082f38:	b8800007 	ldb	r2,0(r23)
 5082f3c:	d8001b15 	stw	zero,108(sp)
 5082f40:	dd802704 	addi	r22,sp,156
 5082f44:	103f2b1e 	bne	r2,zero,5082bf4 <___svfprintf_internal_r+0xa0>
 5082f48:	d8801c17 	ldw	r2,112(sp)
 5082f4c:	1006431e 	bne	r2,zero,508485c <___svfprintf_internal_r+0x1d08>
 5082f50:	9080030b 	ldhu	r2,12(r18)
 5082f54:	1080100c 	andi	r2,r2,64
 5082f58:	1006e41e 	bne	r2,zero,5084aec <___svfprintf_internal_r+0x1f98>
 5082f5c:	d8800517 	ldw	r2,20(sp)
 5082f60:	dfc04017 	ldw	ra,256(sp)
 5082f64:	df003f17 	ldw	fp,252(sp)
 5082f68:	ddc03e17 	ldw	r23,248(sp)
 5082f6c:	dd803d17 	ldw	r22,244(sp)
 5082f70:	dd403c17 	ldw	r21,240(sp)
 5082f74:	dd003b17 	ldw	r20,236(sp)
 5082f78:	dcc03a17 	ldw	r19,232(sp)
 5082f7c:	dc803917 	ldw	r18,228(sp)
 5082f80:	dc403817 	ldw	r17,224(sp)
 5082f84:	dc003717 	ldw	r16,220(sp)
 5082f88:	dec04104 	addi	sp,sp,260
 5082f8c:	f800283a 	ret
 5082f90:	63000414 	ori	r12,r12,16
 5082f94:	6080080c 	andi	r2,r12,32
 5082f98:	10008126 	beq	r2,zero,50831a0 <___svfprintf_internal_r+0x64c>
 5082f9c:	d8c00617 	ldw	r3,24(sp)
 5082fa0:	00800044 	movi	r2,1
 5082fa4:	1d000017 	ldw	r20,0(r3)
 5082fa8:	1d400117 	ldw	r21,4(r3)
 5082fac:	18c00204 	addi	r3,r3,8
 5082fb0:	d8c00615 	stw	r3,24(sp)
 5082fb4:	00000906 	br	5082fdc <___svfprintf_internal_r+0x488>
 5082fb8:	63000414 	ori	r12,r12,16
 5082fbc:	6080080c 	andi	r2,r12,32
 5082fc0:	10006b26 	beq	r2,zero,5083170 <___svfprintf_internal_r+0x61c>
 5082fc4:	d8c00617 	ldw	r3,24(sp)
 5082fc8:	0005883a 	mov	r2,zero
 5082fcc:	1d000017 	ldw	r20,0(r3)
 5082fd0:	1d400117 	ldw	r21,4(r3)
 5082fd4:	18c00204 	addi	r3,r3,8
 5082fd8:	d8c00615 	stw	r3,24(sp)
 5082fdc:	d8001345 	stb	zero,77(sp)
 5082fe0:	40ffffe0 	cmpeqi	r3,r8,-1
 5082fe4:	001b883a 	mov	r13,zero
 5082fe8:	18010d1e 	bne	r3,zero,5083420 <___svfprintf_internal_r+0x8cc>
 5082fec:	047fdfc4 	movi	r17,-129
 5082ff0:	6448703a 	and	r4,r12,r17
 5082ff4:	a546b03a 	or	r3,r20,r21
 5082ff8:	d9000415 	stw	r4,16(sp)
 5082ffc:	1802be1e 	bne	r3,zero,5083af8 <___svfprintf_internal_r+0xfa4>
 5083000:	40025d1e 	bne	r8,zero,5083978 <___svfprintf_internal_r+0xe24>
 5083004:	1003801e 	bne	r2,zero,5083e08 <___svfprintf_internal_r+0x12b4>
 5083008:	6540004c 	andi	r21,r12,1
 508300c:	a803bc26 	beq	r21,zero,5083f00 <___svfprintf_internal_r+0x13ac>
 5083010:	00800c04 	movi	r2,48
 5083014:	d88026c5 	stb	r2,155(sp)
 5083018:	dc4026c4 	addi	r17,sp,155
 508301c:	00011e06 	br	5083498 <___svfprintf_internal_r+0x944>
 5083020:	85e3c83a 	sub	r17,r16,r23
 5083024:	85ffc826 	beq	r16,r23,5082f48 <___svfprintf_internal_r+0x3f4>
 5083028:	d8c01c17 	ldw	r3,112(sp)
 508302c:	d8801b17 	ldw	r2,108(sp)
 5083030:	b5c00015 	stw	r23,0(r22)
 5083034:	1c47883a 	add	r3,r3,r17
 5083038:	10800044 	addi	r2,r2,1
 508303c:	d8801b15 	stw	r2,108(sp)
 5083040:	b4400115 	stw	r17,4(r22)
 5083044:	d8c01c15 	stw	r3,112(sp)
 5083048:	10800208 	cmpgei	r2,r2,8
 508304c:	1000061e 	bne	r2,zero,5083068 <___svfprintf_internal_r+0x514>
 5083050:	b5800204 	addi	r22,r22,8
 5083054:	d8c00517 	ldw	r3,20(sp)
 5083058:	80800003 	ldbu	r2,0(r16)
 508305c:	1c47883a 	add	r3,r3,r17
 5083060:	d8c00515 	stw	r3,20(sp)
 5083064:	003eed06 	br	5082c1c <___svfprintf_internal_r+0xc8>
 5083068:	d9801a04 	addi	r6,sp,104
 508306c:	900b883a 	mov	r5,r18
 5083070:	9809883a 	mov	r4,r19
 5083074:	508c1200 	call	508c120 <__ssprint_r>
 5083078:	103fb51e 	bne	r2,zero,5082f50 <___svfprintf_internal_r+0x3fc>
 508307c:	dd802704 	addi	r22,sp,156
 5083080:	003ff406 	br	5083054 <___svfprintf_internal_r+0x500>
 5083084:	21003fcc 	andi	r4,r4,255
 5083088:	2006621e 	bne	r4,zero,5084a14 <___svfprintf_internal_r+0x1ec0>
 508308c:	d8c00617 	ldw	r3,24(sp)
 5083090:	6080020c 	andi	r2,r12,8
 5083094:	19000204 	addi	r4,r3,8
 5083098:	d9000e15 	stw	r4,56(sp)
 508309c:	1003ae1e 	bne	r2,zero,5083f58 <___svfprintf_internal_r+0x1404>
 50830a0:	d8800617 	ldw	r2,24(sp)
 50830a4:	10c00017 	ldw	r3,0(r2)
 50830a8:	10800117 	ldw	r2,4(r2)
 50830ac:	d8c00915 	stw	r3,36(sp)
 50830b0:	d8800a15 	stw	r2,40(sp)
 50830b4:	dd400a17 	ldw	r21,40(sp)
 50830b8:	dd000917 	ldw	r20,36(sp)
 50830bc:	00a00034 	movhi	r2,32768
 50830c0:	10bfffc4 	addi	r2,r2,-1
 50830c4:	a8a2703a 	and	r17,r21,r2
 50830c8:	01dffc34 	movhi	r7,32752
 50830cc:	01bfffc4 	movi	r6,-1
 50830d0:	39ffffc4 	addi	r7,r7,-1
 50830d4:	a009883a 	mov	r4,r20
 50830d8:	880b883a 	mov	r5,r17
 50830dc:	da000615 	stw	r8,24(sp)
 50830e0:	db000415 	stw	r12,16(sp)
 50830e4:	50927c40 	call	50927c4 <__unorddf2>
 50830e8:	db000417 	ldw	r12,16(sp)
 50830ec:	da000617 	ldw	r8,24(sp)
 50830f0:	1004601e 	bne	r2,zero,5084274 <___svfprintf_internal_r+0x1720>
 50830f4:	01dffc34 	movhi	r7,32752
 50830f8:	01bfffc4 	movi	r6,-1
 50830fc:	39ffffc4 	addi	r7,r7,-1
 5083100:	a009883a 	mov	r4,r20
 5083104:	880b883a 	mov	r5,r17
 5083108:	50917b40 	call	50917b4 <__ledf2>
 508310c:	db000417 	ldw	r12,16(sp)
 5083110:	da000617 	ldw	r8,24(sp)
 5083114:	0084570e 	bge	zero,r2,5084274 <___svfprintf_internal_r+0x1720>
 5083118:	000d883a 	mov	r6,zero
 508311c:	000f883a 	mov	r7,zero
 5083120:	a009883a 	mov	r4,r20
 5083124:	a80b883a 	mov	r5,r21
 5083128:	50917b40 	call	50917b4 <__ledf2>
 508312c:	db000417 	ldw	r12,16(sp)
 5083130:	1005aa16 	blt	r2,zero,50847dc <___svfprintf_internal_r+0x1c88>
 5083134:	db401343 	ldbu	r13,77(sp)
 5083138:	e0801210 	cmplti	r2,fp,72
 508313c:	1005031e 	bne	r2,zero,508454c <___svfprintf_internal_r+0x19f8>
 5083140:	04414274 	movhi	r17,1289
 5083144:	8c580c04 	addi	r17,r17,24624
 5083148:	00bfdfc4 	movi	r2,-129
 508314c:	6084703a 	and	r2,r12,r2
 5083150:	d8800415 	stw	r2,16(sp)
 5083154:	d8800e17 	ldw	r2,56(sp)
 5083158:	050000c4 	movi	r20,3
 508315c:	054000c4 	movi	r21,3
 5083160:	d8800615 	stw	r2,24(sp)
 5083164:	0011883a 	mov	r8,zero
 5083168:	d8000715 	stw	zero,28(sp)
 508316c:	0000ce06 	br	50834a8 <___svfprintf_internal_r+0x954>
 5083170:	d9000617 	ldw	r4,24(sp)
 5083174:	6080040c 	andi	r2,r12,16
 5083178:	20c00104 	addi	r3,r4,4
 508317c:	1003621e 	bne	r2,zero,5083f08 <___svfprintf_internal_r+0x13b4>
 5083180:	6080100c 	andi	r2,r12,64
 5083184:	10053a26 	beq	r2,zero,5084670 <___svfprintf_internal_r+0x1b1c>
 5083188:	d8800617 	ldw	r2,24(sp)
 508318c:	002b883a 	mov	r21,zero
 5083190:	d8c00615 	stw	r3,24(sp)
 5083194:	1500000b 	ldhu	r20,0(r2)
 5083198:	0005883a 	mov	r2,zero
 508319c:	003f8f06 	br	5082fdc <___svfprintf_internal_r+0x488>
 50831a0:	d9000617 	ldw	r4,24(sp)
 50831a4:	6080040c 	andi	r2,r12,16
 50831a8:	20c00104 	addi	r3,r4,4
 50831ac:	1003601e 	bne	r2,zero,5083f30 <___svfprintf_internal_r+0x13dc>
 50831b0:	6080100c 	andi	r2,r12,64
 50831b4:	10052326 	beq	r2,zero,5084644 <___svfprintf_internal_r+0x1af0>
 50831b8:	d8800617 	ldw	r2,24(sp)
 50831bc:	002b883a 	mov	r21,zero
 50831c0:	d8c00615 	stw	r3,24(sp)
 50831c4:	1500000b 	ldhu	r20,0(r2)
 50831c8:	00800044 	movi	r2,1
 50831cc:	003f8306 	br	5082fdc <___svfprintf_internal_r+0x488>
 50831d0:	03014274 	movhi	r12,1289
 50831d4:	89000450 	cmplti	r4,r17,17
 50831d8:	d8801b17 	ldw	r2,108(sp)
 50831dc:	63182004 	addi	r12,r12,24704
 50831e0:	20001b1e 	bne	r4,zero,5083250 <___svfprintf_internal_r+0x6fc>
 50831e4:	05400404 	movi	r21,16
 50831e8:	6039883a 	mov	fp,r12
 50831ec:	00000406 	br	5083200 <___svfprintf_internal_r+0x6ac>
 50831f0:	8c7ffc04 	addi	r17,r17,-16
 50831f4:	89000448 	cmpgei	r4,r17,17
 50831f8:	b5800204 	addi	r22,r22,8
 50831fc:	20001326 	beq	r4,zero,508324c <___svfprintf_internal_r+0x6f8>
 5083200:	10800044 	addi	r2,r2,1
 5083204:	18c00404 	addi	r3,r3,16
 5083208:	b7000015 	stw	fp,0(r22)
 508320c:	b5400115 	stw	r21,4(r22)
 5083210:	d8c01c15 	stw	r3,112(sp)
 5083214:	d8801b15 	stw	r2,108(sp)
 5083218:	11000208 	cmpgei	r4,r2,8
 508321c:	203ff426 	beq	r4,zero,50831f0 <___svfprintf_internal_r+0x69c>
 5083220:	d9801a04 	addi	r6,sp,104
 5083224:	900b883a 	mov	r5,r18
 5083228:	9809883a 	mov	r4,r19
 508322c:	508c1200 	call	508c120 <__ssprint_r>
 5083230:	103f471e 	bne	r2,zero,5082f50 <___svfprintf_internal_r+0x3fc>
 5083234:	8c7ffc04 	addi	r17,r17,-16
 5083238:	89000448 	cmpgei	r4,r17,17
 508323c:	d8c01c17 	ldw	r3,112(sp)
 5083240:	d8801b17 	ldw	r2,108(sp)
 5083244:	dd802704 	addi	r22,sp,156
 5083248:	203fed1e 	bne	r4,zero,5083200 <___svfprintf_internal_r+0x6ac>
 508324c:	e019883a 	mov	r12,fp
 5083250:	10800044 	addi	r2,r2,1
 5083254:	1c47883a 	add	r3,r3,r17
 5083258:	d8801b15 	stw	r2,108(sp)
 508325c:	b3000015 	stw	r12,0(r22)
 5083260:	b4400115 	stw	r17,4(r22)
 5083264:	d8c01c15 	stw	r3,112(sp)
 5083268:	10800210 	cmplti	r2,r2,8
 508326c:	103f2c1e 	bne	r2,zero,5082f20 <___svfprintf_internal_r+0x3cc>
 5083270:	d9801a04 	addi	r6,sp,104
 5083274:	900b883a 	mov	r5,r18
 5083278:	9809883a 	mov	r4,r19
 508327c:	508c1200 	call	508c120 <__ssprint_r>
 5083280:	103f331e 	bne	r2,zero,5082f50 <___svfprintf_internal_r+0x3fc>
 5083284:	d8c01c17 	ldw	r3,112(sp)
 5083288:	003f2506 	br	5082f20 <___svfprintf_internal_r+0x3cc>
 508328c:	21003fcc 	andi	r4,r4,255
 5083290:	2005e21e 	bne	r4,zero,5084a1c <___svfprintf_internal_r+0x1ec8>
 5083294:	6080080c 	andi	r2,r12,32
 5083298:	10004b26 	beq	r2,zero,50833c8 <___svfprintf_internal_r+0x874>
 508329c:	d8c00617 	ldw	r3,24(sp)
 50832a0:	18800117 	ldw	r2,4(r3)
 50832a4:	1d000017 	ldw	r20,0(r3)
 50832a8:	18c00204 	addi	r3,r3,8
 50832ac:	d8c00615 	stw	r3,24(sp)
 50832b0:	102b883a 	mov	r21,r2
 50832b4:	10005016 	blt	r2,zero,50833f8 <___svfprintf_internal_r+0x8a4>
 50832b8:	40bfffd8 	cmpnei	r2,r8,-1
 50832bc:	db401343 	ldbu	r13,77(sp)
 50832c0:	10000626 	beq	r2,zero,50832dc <___svfprintf_internal_r+0x788>
 50832c4:	047fdfc4 	movi	r17,-129
 50832c8:	6446703a 	and	r3,r12,r17
 50832cc:	a544b03a 	or	r2,r20,r21
 50832d0:	d8c00415 	stw	r3,16(sp)
 50832d4:	1002cb26 	beq	r2,zero,5083e04 <___svfprintf_internal_r+0x12b0>
 50832d8:	db000417 	ldw	r12,16(sp)
 50832dc:	a803761e 	bne	r21,zero,50840b8 <___svfprintf_internal_r+0x1564>
 50832e0:	a08002a8 	cmpgeui	r2,r20,10
 50832e4:	1003741e 	bne	r2,zero,50840b8 <___svfprintf_internal_r+0x1564>
 50832e8:	a5000c04 	addi	r20,r20,48
 50832ec:	dd0026c5 	stb	r20,155(sp)
 50832f0:	db000415 	stw	r12,16(sp)
 50832f4:	05400044 	movi	r21,1
 50832f8:	dc4026c4 	addi	r17,sp,155
 50832fc:	00006606 	br	5083498 <___svfprintf_internal_r+0x944>
 5083300:	bac00007 	ldb	r11,0(r23)
 5083304:	63001014 	ori	r12,r12,64
 5083308:	003e5006 	br	5082c4c <___svfprintf_internal_r+0xf8>
 508330c:	bac00007 	ldb	r11,0(r23)
 5083310:	63000814 	ori	r12,r12,32
 5083314:	003e4d06 	br	5082c4c <___svfprintf_internal_r+0xf8>
 5083318:	d8c00617 	ldw	r3,24(sp)
 508331c:	00800c04 	movi	r2,48
 5083320:	d8801385 	stb	r2,78(sp)
 5083324:	00801e04 	movi	r2,120
 5083328:	01014274 	movhi	r4,1289
 508332c:	d88013c5 	stb	r2,79(sp)
 5083330:	18800104 	addi	r2,r3,4
 5083334:	d8800615 	stw	r2,24(sp)
 5083338:	20980f04 	addi	r2,r4,24636
 508333c:	d8800b15 	stw	r2,44(sp)
 5083340:	1d000017 	ldw	r20,0(r3)
 5083344:	002b883a 	mov	r21,zero
 5083348:	63000094 	ori	r12,r12,2
 508334c:	00800084 	movi	r2,2
 5083350:	07001e04 	movi	fp,120
 5083354:	003f2106 	br	5082fdc <___svfprintf_internal_r+0x488>
 5083358:	21003fcc 	andi	r4,r4,255
 508335c:	2005a91e 	bne	r4,zero,5084a04 <___svfprintf_internal_r+0x1eb0>
 5083360:	d9000617 	ldw	r4,24(sp)
 5083364:	6080080c 	andi	r2,r12,32
 5083368:	20c00017 	ldw	r3,0(r4)
 508336c:	21000104 	addi	r4,r4,4
 5083370:	d9000615 	stw	r4,24(sp)
 5083374:	1002e91e 	bne	r2,zero,5083f1c <___svfprintf_internal_r+0x13c8>
 5083378:	6080040c 	andi	r2,r12,16
 508337c:	1003761e 	bne	r2,zero,5084158 <___svfprintf_internal_r+0x1604>
 5083380:	6300100c 	andi	r12,r12,64
 5083384:	60037426 	beq	r12,zero,5084158 <___svfprintf_internal_r+0x1604>
 5083388:	d8800517 	ldw	r2,20(sp)
 508338c:	1880000d 	sth	r2,0(r3)
 5083390:	003e1606 	br	5082bec <___svfprintf_internal_r+0x98>
 5083394:	bac00007 	ldb	r11,0(r23)
 5083398:	58801b18 	cmpnei	r2,r11,108
 508339c:	10030e26 	beq	r2,zero,5083fd8 <___svfprintf_internal_r+0x1484>
 50833a0:	63000414 	ori	r12,r12,16
 50833a4:	003e2906 	br	5082c4c <___svfprintf_internal_r+0xf8>
 50833a8:	bac00007 	ldb	r11,0(r23)
 50833ac:	63000214 	ori	r12,r12,8
 50833b0:	003e2606 	br	5082c4c <___svfprintf_internal_r+0xf8>
 50833b4:	21003fcc 	andi	r4,r4,255
 50833b8:	2005901e 	bne	r4,zero,50849fc <___svfprintf_internal_r+0x1ea8>
 50833bc:	63000414 	ori	r12,r12,16
 50833c0:	6080080c 	andi	r2,r12,32
 50833c4:	103fb51e 	bne	r2,zero,508329c <___svfprintf_internal_r+0x748>
 50833c8:	d9000617 	ldw	r4,24(sp)
 50833cc:	6080040c 	andi	r2,r12,16
 50833d0:	20c00104 	addi	r3,r4,4
 50833d4:	1002db1e 	bne	r2,zero,5083f44 <___svfprintf_internal_r+0x13f0>
 50833d8:	6080100c 	andi	r2,r12,64
 50833dc:	1004aa26 	beq	r2,zero,5084688 <___svfprintf_internal_r+0x1b34>
 50833e0:	d8800617 	ldw	r2,24(sp)
 50833e4:	d8c00615 	stw	r3,24(sp)
 50833e8:	1500000f 	ldh	r20,0(r2)
 50833ec:	a02bd7fa 	srai	r21,r20,31
 50833f0:	a805883a 	mov	r2,r21
 50833f4:	103fb00e 	bge	r2,zero,50832b8 <___svfprintf_internal_r+0x764>
 50833f8:	a004c03a 	cmpne	r2,r20,zero
 50833fc:	056bc83a 	sub	r21,zero,r21
 5083400:	a8abc83a 	sub	r21,r21,r2
 5083404:	00800b44 	movi	r2,45
 5083408:	d8801345 	stb	r2,77(sp)
 508340c:	40ffffe0 	cmpeqi	r3,r8,-1
 5083410:	0529c83a 	sub	r20,zero,r20
 5083414:	03400b44 	movi	r13,45
 5083418:	00800044 	movi	r2,1
 508341c:	183ef326 	beq	r3,zero,5082fec <___svfprintf_internal_r+0x498>
 5083420:	10c00060 	cmpeqi	r3,r2,1
 5083424:	183fad1e 	bne	r3,zero,50832dc <___svfprintf_internal_r+0x788>
 5083428:	108000a0 	cmpeqi	r2,r2,2
 508342c:	1001571e 	bne	r2,zero,508398c <___svfprintf_internal_r+0xe38>
 5083430:	dc402704 	addi	r17,sp,156
 5083434:	a006d0fa 	srli	r3,r20,3
 5083438:	a808977a 	slli	r4,r21,29
 508343c:	a82ad0fa 	srli	r21,r21,3
 5083440:	a50001cc 	andi	r20,r20,7
 5083444:	a0800c04 	addi	r2,r20,48
 5083448:	20e8b03a 	or	r20,r4,r3
 508344c:	88bfffc5 	stb	r2,-1(r17)
 5083450:	a546b03a 	or	r3,r20,r21
 5083454:	880b883a 	mov	r5,r17
 5083458:	8c7fffc4 	addi	r17,r17,-1
 508345c:	183ff51e 	bne	r3,zero,5083434 <___svfprintf_internal_r+0x8e0>
 5083460:	60c0004c 	andi	r3,r12,1
 5083464:	18015626 	beq	r3,zero,50839c0 <___svfprintf_internal_r+0xe6c>
 5083468:	10803fcc 	andi	r2,r2,255
 508346c:	1080201c 	xori	r2,r2,128
 5083470:	10bfe004 	addi	r2,r2,-128
 5083474:	10800c18 	cmpnei	r2,r2,48
 5083478:	10015126 	beq	r2,zero,50839c0 <___svfprintf_internal_r+0xe6c>
 508347c:	00800c04 	movi	r2,48
 5083480:	297fff84 	addi	r5,r5,-2
 5083484:	88bfffc5 	stb	r2,-1(r17)
 5083488:	d8802704 	addi	r2,sp,156
 508348c:	116bc83a 	sub	r21,r2,r5
 5083490:	db000415 	stw	r12,16(sp)
 5083494:	2823883a 	mov	r17,r5
 5083498:	4029883a 	mov	r20,r8
 508349c:	4540010e 	bge	r8,r21,50834a4 <___svfprintf_internal_r+0x950>
 50834a0:	a829883a 	mov	r20,r21
 50834a4:	d8000715 	stw	zero,28(sp)
 50834a8:	6b403fcc 	andi	r13,r13,255
 50834ac:	6b40201c 	xori	r13,r13,128
 50834b0:	6b7fe004 	addi	r13,r13,-128
 50834b4:	683e5f26 	beq	r13,zero,5082e34 <___svfprintf_internal_r+0x2e0>
 50834b8:	a5000044 	addi	r20,r20,1
 50834bc:	003e5d06 	br	5082e34 <___svfprintf_internal_r+0x2e0>
 50834c0:	bac00007 	ldb	r11,0(r23)
 50834c4:	63002014 	ori	r12,r12,128
 50834c8:	003de006 	br	5082c4c <___svfprintf_internal_r+0xf8>
 50834cc:	bf000007 	ldb	fp,0(r23)
 50834d0:	b8c00044 	addi	r3,r23,1
 50834d4:	e0800aa0 	cmpeqi	r2,fp,42
 50834d8:	1005aa1e 	bne	r2,zero,5084b84 <___svfprintf_internal_r+0x2030>
 50834dc:	e0bff404 	addi	r2,fp,-48
 50834e0:	118002b0 	cmpltui	r6,r2,10
 50834e4:	182f883a 	mov	r23,r3
 50834e8:	0011883a 	mov	r8,zero
 50834ec:	303dd926 	beq	r6,zero,5082c54 <___svfprintf_internal_r+0x100>
 50834f0:	bf000007 	ldb	fp,0(r23)
 50834f4:	420002a4 	muli	r8,r8,10
 50834f8:	bdc00044 	addi	r23,r23,1
 50834fc:	4091883a 	add	r8,r8,r2
 5083500:	e0bff404 	addi	r2,fp,-48
 5083504:	10c002b0 	cmpltui	r3,r2,10
 5083508:	183ff91e 	bne	r3,zero,50834f0 <___svfprintf_internal_r+0x99c>
 508350c:	003dd106 	br	5082c54 <___svfprintf_internal_r+0x100>
 5083510:	bf000003 	ldbu	fp,0(r23)
 5083514:	e2c03fcc 	andi	r11,fp,255
 5083518:	5ac0201c 	xori	r11,r11,128
 508351c:	63000114 	ori	r12,r12,4
 5083520:	5affe004 	addi	r11,r11,-128
 5083524:	003dc906 	br	5082c4c <___svfprintf_internal_r+0xf8>
 5083528:	bac00007 	ldb	r11,0(r23)
 508352c:	01000044 	movi	r4,1
 5083530:	01400ac4 	movi	r5,43
 5083534:	003dc506 	br	5082c4c <___svfprintf_internal_r+0xf8>
 5083538:	d8800617 	ldw	r2,24(sp)
 508353c:	bf000003 	ldbu	fp,0(r23)
 5083540:	14000017 	ldw	r16,0(r2)
 5083544:	10800104 	addi	r2,r2,4
 5083548:	80029216 	blt	r16,zero,5083f94 <___svfprintf_internal_r+0x1440>
 508354c:	d8800615 	stw	r2,24(sp)
 5083550:	e2c03fcc 	andi	r11,fp,255
 5083554:	5ac0201c 	xori	r11,r11,128
 5083558:	5affe004 	addi	r11,r11,-128
 508355c:	003dbb06 	br	5082c4c <___svfprintf_internal_r+0xf8>
 5083560:	bac00007 	ldb	r11,0(r23)
 5083564:	63000054 	ori	r12,r12,1
 5083568:	003db806 	br	5082c4c <___svfprintf_internal_r+0xf8>
 508356c:	28803fcc 	andi	r2,r5,255
 5083570:	1080201c 	xori	r2,r2,128
 5083574:	10bfe004 	addi	r2,r2,-128
 5083578:	bf000003 	ldbu	fp,0(r23)
 508357c:	103ff41e 	bne	r2,zero,5083550 <___svfprintf_internal_r+0x9fc>
 5083580:	e2c03fcc 	andi	r11,fp,255
 5083584:	5ac0201c 	xori	r11,r11,128
 5083588:	01000044 	movi	r4,1
 508358c:	01400804 	movi	r5,32
 5083590:	5affe004 	addi	r11,r11,-128
 5083594:	003dad06 	br	5082c4c <___svfprintf_internal_r+0xf8>
 5083598:	21003fcc 	andi	r4,r4,255
 508359c:	20051b1e 	bne	r4,zero,5084a0c <___svfprintf_internal_r+0x1eb8>
 50835a0:	00814274 	movhi	r2,1289
 50835a4:	10980f04 	addi	r2,r2,24636
 50835a8:	d8800b15 	stw	r2,44(sp)
 50835ac:	6080080c 	andi	r2,r12,32
 50835b0:	10003226 	beq	r2,zero,508367c <___svfprintf_internal_r+0xb28>
 50835b4:	d8800617 	ldw	r2,24(sp)
 50835b8:	15000017 	ldw	r20,0(r2)
 50835bc:	15400117 	ldw	r21,4(r2)
 50835c0:	10800204 	addi	r2,r2,8
 50835c4:	d8800615 	stw	r2,24(sp)
 50835c8:	6080004c 	andi	r2,r12,1
 50835cc:	10000226 	beq	r2,zero,50835d8 <___svfprintf_internal_r+0xa84>
 50835d0:	a544b03a 	or	r2,r20,r21
 50835d4:	1002691e 	bne	r2,zero,5083f7c <___svfprintf_internal_r+0x1428>
 50835d8:	00800084 	movi	r2,2
 50835dc:	003e7f06 	br	5082fdc <___svfprintf_internal_r+0x488>
 50835e0:	d8800617 	ldw	r2,24(sp)
 50835e4:	d8001345 	stb	zero,77(sp)
 50835e8:	14400017 	ldw	r17,0(r2)
 50835ec:	10c00104 	addi	r3,r2,4
 50835f0:	88039226 	beq	r17,zero,508443c <___svfprintf_internal_r+0x18e8>
 50835f4:	40bfffe0 	cmpeqi	r2,r8,-1
 50835f8:	1002a71e 	bne	r2,zero,5084098 <___svfprintf_internal_r+0x1544>
 50835fc:	400d883a 	mov	r6,r8
 5083600:	000b883a 	mov	r5,zero
 5083604:	8809883a 	mov	r4,r17
 5083608:	d8c00715 	stw	r3,28(sp)
 508360c:	db000615 	stw	r12,24(sp)
 5083610:	da000415 	stw	r8,16(sp)
 5083614:	508a4d80 	call	508a4d8 <memchr>
 5083618:	da000417 	ldw	r8,16(sp)
 508361c:	db000617 	ldw	r12,24(sp)
 5083620:	d8c00717 	ldw	r3,28(sp)
 5083624:	1004e326 	beq	r2,zero,50849b4 <___svfprintf_internal_r+0x1e60>
 5083628:	146bc83a 	sub	r21,r2,r17
 508362c:	a829883a 	mov	r20,r21
 5083630:	d8c00615 	stw	r3,24(sp)
 5083634:	003dfc06 	br	5082e28 <___svfprintf_internal_r+0x2d4>
 5083638:	d8c00617 	ldw	r3,24(sp)
 508363c:	d8001345 	stb	zero,77(sp)
 5083640:	05000044 	movi	r20,1
 5083644:	18800017 	ldw	r2,0(r3)
 5083648:	18c00104 	addi	r3,r3,4
 508364c:	d8c00615 	stw	r3,24(sp)
 5083650:	d8801d05 	stb	r2,116(sp)
 5083654:	05400044 	movi	r21,1
 5083658:	dc401d04 	addi	r17,sp,116
 508365c:	003df206 	br	5082e28 <___svfprintf_internal_r+0x2d4>
 5083660:	21003fcc 	andi	r4,r4,255
 5083664:	2004e31e 	bne	r4,zero,50849f4 <___svfprintf_internal_r+0x1ea0>
 5083668:	00814274 	movhi	r2,1289
 508366c:	10981404 	addi	r2,r2,24656
 5083670:	d8800b15 	stw	r2,44(sp)
 5083674:	6080080c 	andi	r2,r12,32
 5083678:	103fce1e 	bne	r2,zero,50835b4 <___svfprintf_internal_r+0xa60>
 508367c:	d9000617 	ldw	r4,24(sp)
 5083680:	6080040c 	andi	r2,r12,16
 5083684:	20c00104 	addi	r3,r4,4
 5083688:	1002381e 	bne	r2,zero,5083f6c <___svfprintf_internal_r+0x1418>
 508368c:	6080100c 	andi	r2,r12,64
 5083690:	1003f226 	beq	r2,zero,508465c <___svfprintf_internal_r+0x1b08>
 5083694:	d8800617 	ldw	r2,24(sp)
 5083698:	002b883a 	mov	r21,zero
 508369c:	d8c00615 	stw	r3,24(sp)
 50836a0:	1500000b 	ldhu	r20,0(r2)
 50836a4:	003fc806 	br	50835c8 <___svfprintf_internal_r+0xa74>
 50836a8:	e2c01990 	cmplti	r11,fp,102
 50836ac:	5800ce1e 	bne	r11,zero,50839e8 <___svfprintf_internal_r+0xe94>
 50836b0:	d9000917 	ldw	r4,36(sp)
 50836b4:	d9400a17 	ldw	r5,40(sp)
 50836b8:	000d883a 	mov	r6,zero
 50836bc:	000f883a 	mov	r7,zero
 50836c0:	d8c00e15 	stw	r3,56(sp)
 50836c4:	509164c0 	call	509164c <__eqdf2>
 50836c8:	d8c00e17 	ldw	r3,56(sp)
 50836cc:	1001671e 	bne	r2,zero,5083c6c <___svfprintf_internal_r+0x1118>
 50836d0:	d8801b17 	ldw	r2,108(sp)
 50836d4:	01014274 	movhi	r4,1289
 50836d8:	21181b04 	addi	r4,r4,24684
 50836dc:	10800044 	addi	r2,r2,1
 50836e0:	18c00044 	addi	r3,r3,1
 50836e4:	b1000015 	stw	r4,0(r22)
 50836e8:	01000044 	movi	r4,1
 50836ec:	d8801b15 	stw	r2,108(sp)
 50836f0:	b1000115 	stw	r4,4(r22)
 50836f4:	d8c01c15 	stw	r3,112(sp)
 50836f8:	10800208 	cmpgei	r2,r2,8
 50836fc:	1003351e 	bne	r2,zero,50843d4 <___svfprintf_internal_r+0x1880>
 5083700:	b5800204 	addi	r22,r22,8
 5083704:	d8801417 	ldw	r2,80(sp)
 5083708:	d9000817 	ldw	r4,32(sp)
 508370c:	11000316 	blt	r2,r4,508371c <___svfprintf_internal_r+0xbc8>
 5083710:	d8800417 	ldw	r2,16(sp)
 5083714:	1080004c 	andi	r2,r2,1
 5083718:	103dfc26 	beq	r2,zero,5082f0c <___svfprintf_internal_r+0x3b8>
 508371c:	d8800d17 	ldw	r2,52(sp)
 5083720:	d9000c17 	ldw	r4,48(sp)
 5083724:	b0800015 	stw	r2,0(r22)
 5083728:	d8801b17 	ldw	r2,108(sp)
 508372c:	1907883a 	add	r3,r3,r4
 5083730:	b1000115 	stw	r4,4(r22)
 5083734:	10800044 	addi	r2,r2,1
 5083738:	d8801b15 	stw	r2,108(sp)
 508373c:	d8c01c15 	stw	r3,112(sp)
 5083740:	10800208 	cmpgei	r2,r2,8
 5083744:	1003351e 	bne	r2,zero,508441c <___svfprintf_internal_r+0x18c8>
 5083748:	b5800204 	addi	r22,r22,8
 508374c:	d8800817 	ldw	r2,32(sp)
 5083750:	157fffc4 	addi	r21,r2,-1
 5083754:	057ded0e 	bge	zero,r21,5082f0c <___svfprintf_internal_r+0x3b8>
 5083758:	01c14274 	movhi	r7,1289
 508375c:	a9000450 	cmplti	r4,r21,17
 5083760:	d8801b17 	ldw	r2,108(sp)
 5083764:	39d81c04 	addi	r7,r7,24688
 5083768:	2003161e 	bne	r4,zero,50843c4 <___svfprintf_internal_r+0x1870>
 508376c:	07000404 	movi	fp,16
 5083770:	3823883a 	mov	r17,r7
 5083774:	00000406 	br	5083788 <___svfprintf_internal_r+0xc34>
 5083778:	b5800204 	addi	r22,r22,8
 508377c:	ad7ffc04 	addi	r21,r21,-16
 5083780:	a9000448 	cmpgei	r4,r21,17
 5083784:	20030e26 	beq	r4,zero,50843c0 <___svfprintf_internal_r+0x186c>
 5083788:	10800044 	addi	r2,r2,1
 508378c:	18c00404 	addi	r3,r3,16
 5083790:	b4400015 	stw	r17,0(r22)
 5083794:	b7000115 	stw	fp,4(r22)
 5083798:	d8c01c15 	stw	r3,112(sp)
 508379c:	d8801b15 	stw	r2,108(sp)
 50837a0:	11000208 	cmpgei	r4,r2,8
 50837a4:	203ff426 	beq	r4,zero,5083778 <___svfprintf_internal_r+0xc24>
 50837a8:	d9801a04 	addi	r6,sp,104
 50837ac:	900b883a 	mov	r5,r18
 50837b0:	9809883a 	mov	r4,r19
 50837b4:	508c1200 	call	508c120 <__ssprint_r>
 50837b8:	103de51e 	bne	r2,zero,5082f50 <___svfprintf_internal_r+0x3fc>
 50837bc:	d8c01c17 	ldw	r3,112(sp)
 50837c0:	d8801b17 	ldw	r2,108(sp)
 50837c4:	dd802704 	addi	r22,sp,156
 50837c8:	003fec06 	br	508377c <___svfprintf_internal_r+0xc28>
 50837cc:	8519c83a 	sub	r12,r16,r20
 50837d0:	033dbf0e 	bge	zero,r12,5082ed0 <___svfprintf_internal_r+0x37c>
 50837d4:	01c14274 	movhi	r7,1289
 50837d8:	61000450 	cmplti	r4,r12,17
 50837dc:	d8801b17 	ldw	r2,108(sp)
 50837e0:	39d81c04 	addi	r7,r7,24688
 50837e4:	2000281e 	bne	r4,zero,5083888 <___svfprintf_internal_r+0xd34>
 50837e8:	dc400e15 	stw	r17,56(sp)
 50837ec:	dc000f15 	stw	r16,60(sp)
 50837f0:	b009883a 	mov	r4,r22
 50837f4:	03400404 	movi	r13,16
 50837f8:	a02d883a 	mov	r22,r20
 50837fc:	6021883a 	mov	r16,r12
 5083800:	4029883a 	mov	r20,r8
 5083804:	3823883a 	mov	r17,r7
 5083808:	00000406 	br	508381c <___svfprintf_internal_r+0xcc8>
 508380c:	843ffc04 	addi	r16,r16,-16
 5083810:	81400448 	cmpgei	r5,r16,17
 5083814:	21000204 	addi	r4,r4,8
 5083818:	28001426 	beq	r5,zero,508386c <___svfprintf_internal_r+0xd18>
 508381c:	10800044 	addi	r2,r2,1
 5083820:	18c00404 	addi	r3,r3,16
 5083824:	24400015 	stw	r17,0(r4)
 5083828:	23400115 	stw	r13,4(r4)
 508382c:	d8c01c15 	stw	r3,112(sp)
 5083830:	d8801b15 	stw	r2,108(sp)
 5083834:	11400208 	cmpgei	r5,r2,8
 5083838:	283ff426 	beq	r5,zero,508380c <___svfprintf_internal_r+0xcb8>
 508383c:	d9801a04 	addi	r6,sp,104
 5083840:	900b883a 	mov	r5,r18
 5083844:	9809883a 	mov	r4,r19
 5083848:	508c1200 	call	508c120 <__ssprint_r>
 508384c:	103dc01e 	bne	r2,zero,5082f50 <___svfprintf_internal_r+0x3fc>
 5083850:	843ffc04 	addi	r16,r16,-16
 5083854:	81400448 	cmpgei	r5,r16,17
 5083858:	d8c01c17 	ldw	r3,112(sp)
 508385c:	d8801b17 	ldw	r2,108(sp)
 5083860:	d9002704 	addi	r4,sp,156
 5083864:	03400404 	movi	r13,16
 5083868:	283fec1e 	bne	r5,zero,508381c <___svfprintf_internal_r+0xcc8>
 508386c:	8019883a 	mov	r12,r16
 5083870:	880f883a 	mov	r7,r17
 5083874:	dc000f17 	ldw	r16,60(sp)
 5083878:	dc400e17 	ldw	r17,56(sp)
 508387c:	a011883a 	mov	r8,r20
 5083880:	b029883a 	mov	r20,r22
 5083884:	202d883a 	mov	r22,r4
 5083888:	10800044 	addi	r2,r2,1
 508388c:	1b07883a 	add	r3,r3,r12
 5083890:	d8801b15 	stw	r2,108(sp)
 5083894:	b1c00015 	stw	r7,0(r22)
 5083898:	b3000115 	stw	r12,4(r22)
 508389c:	d8c01c15 	stw	r3,112(sp)
 50838a0:	10800208 	cmpgei	r2,r2,8
 50838a4:	1002d31e 	bne	r2,zero,50843f4 <___svfprintf_internal_r+0x18a0>
 50838a8:	4551c83a 	sub	r8,r8,r21
 50838ac:	b5800204 	addi	r22,r22,8
 50838b0:	023d890e 	bge	zero,r8,5082ed8 <___svfprintf_internal_r+0x384>
 50838b4:	01c14274 	movhi	r7,1289
 50838b8:	41000450 	cmplti	r4,r8,17
 50838bc:	d8801b17 	ldw	r2,108(sp)
 50838c0:	39d81c04 	addi	r7,r7,24688
 50838c4:	2000221e 	bne	r4,zero,5083950 <___svfprintf_internal_r+0xdfc>
 50838c8:	dc400e15 	stw	r17,56(sp)
 50838cc:	dc000f15 	stw	r16,60(sp)
 50838d0:	03000404 	movi	r12,16
 50838d4:	4021883a 	mov	r16,r8
 50838d8:	3823883a 	mov	r17,r7
 50838dc:	00000406 	br	50838f0 <___svfprintf_internal_r+0xd9c>
 50838e0:	843ffc04 	addi	r16,r16,-16
 50838e4:	81000448 	cmpgei	r4,r16,17
 50838e8:	b5800204 	addi	r22,r22,8
 50838ec:	20001426 	beq	r4,zero,5083940 <___svfprintf_internal_r+0xdec>
 50838f0:	10800044 	addi	r2,r2,1
 50838f4:	18c00404 	addi	r3,r3,16
 50838f8:	b4400015 	stw	r17,0(r22)
 50838fc:	b3000115 	stw	r12,4(r22)
 5083900:	d8c01c15 	stw	r3,112(sp)
 5083904:	d8801b15 	stw	r2,108(sp)
 5083908:	11000208 	cmpgei	r4,r2,8
 508390c:	203ff426 	beq	r4,zero,50838e0 <___svfprintf_internal_r+0xd8c>
 5083910:	d9801a04 	addi	r6,sp,104
 5083914:	900b883a 	mov	r5,r18
 5083918:	9809883a 	mov	r4,r19
 508391c:	508c1200 	call	508c120 <__ssprint_r>
 5083920:	103d8b1e 	bne	r2,zero,5082f50 <___svfprintf_internal_r+0x3fc>
 5083924:	843ffc04 	addi	r16,r16,-16
 5083928:	81000448 	cmpgei	r4,r16,17
 508392c:	d8c01c17 	ldw	r3,112(sp)
 5083930:	d8801b17 	ldw	r2,108(sp)
 5083934:	dd802704 	addi	r22,sp,156
 5083938:	03000404 	movi	r12,16
 508393c:	203fec1e 	bne	r4,zero,50838f0 <___svfprintf_internal_r+0xd9c>
 5083940:	8011883a 	mov	r8,r16
 5083944:	880f883a 	mov	r7,r17
 5083948:	dc000f17 	ldw	r16,60(sp)
 508394c:	dc400e17 	ldw	r17,56(sp)
 5083950:	10800044 	addi	r2,r2,1
 5083954:	1a07883a 	add	r3,r3,r8
 5083958:	d8801b15 	stw	r2,108(sp)
 508395c:	b1c00015 	stw	r7,0(r22)
 5083960:	b2000115 	stw	r8,4(r22)
 5083964:	d8c01c15 	stw	r3,112(sp)
 5083968:	10800208 	cmpgei	r2,r2,8
 508396c:	10014a1e 	bne	r2,zero,5083e98 <___svfprintf_internal_r+0x1344>
 5083970:	b5800204 	addi	r22,r22,8
 5083974:	003d5806 	br	5082ed8 <___svfprintf_internal_r+0x384>
 5083978:	10c00060 	cmpeqi	r3,r2,1
 508397c:	1803cf1e 	bne	r3,zero,50848bc <___svfprintf_internal_r+0x1d68>
 5083980:	108000a0 	cmpeqi	r2,r2,2
 5083984:	db000417 	ldw	r12,16(sp)
 5083988:	103ea926 	beq	r2,zero,5083430 <___svfprintf_internal_r+0x8dc>
 508398c:	d9000b17 	ldw	r4,44(sp)
 5083990:	dc402704 	addi	r17,sp,156
 5083994:	a08003cc 	andi	r2,r20,15
 5083998:	a806973a 	slli	r3,r21,28
 508399c:	a028d13a 	srli	r20,r20,4
 50839a0:	2085883a 	add	r2,r4,r2
 50839a4:	10800003 	ldbu	r2,0(r2)
 50839a8:	a82ad13a 	srli	r21,r21,4
 50839ac:	1d28b03a 	or	r20,r3,r20
 50839b0:	88bfffc5 	stb	r2,-1(r17)
 50839b4:	a544b03a 	or	r2,r20,r21
 50839b8:	8c7fffc4 	addi	r17,r17,-1
 50839bc:	103ff51e 	bne	r2,zero,5083994 <___svfprintf_internal_r+0xe40>
 50839c0:	d8802704 	addi	r2,sp,156
 50839c4:	146bc83a 	sub	r21,r2,r17
 50839c8:	db000415 	stw	r12,16(sp)
 50839cc:	003eb206 	br	5083498 <___svfprintf_internal_r+0x944>
 50839d0:	d9801a04 	addi	r6,sp,104
 50839d4:	900b883a 	mov	r5,r18
 50839d8:	9809883a 	mov	r4,r19
 50839dc:	508c1200 	call	508c120 <__ssprint_r>
 50839e0:	103d5526 	beq	r2,zero,5082f38 <___svfprintf_internal_r+0x3e4>
 50839e4:	003d5a06 	br	5082f50 <___svfprintf_internal_r+0x3fc>
 50839e8:	d8800817 	ldw	r2,32(sp)
 50839ec:	da001b17 	ldw	r8,108(sp)
 50839f0:	18c00044 	addi	r3,r3,1
 50839f4:	10800088 	cmpgei	r2,r2,2
 50839f8:	45400044 	addi	r21,r8,1
 50839fc:	b7000204 	addi	fp,r22,8
 5083a00:	1000f326 	beq	r2,zero,5083dd0 <___svfprintf_internal_r+0x127c>
 5083a04:	00800044 	movi	r2,1
 5083a08:	b0800115 	stw	r2,4(r22)
 5083a0c:	b4400015 	stw	r17,0(r22)
 5083a10:	d8c01c15 	stw	r3,112(sp)
 5083a14:	dd401b15 	stw	r21,108(sp)
 5083a18:	a8800210 	cmplti	r2,r21,8
 5083a1c:	10012626 	beq	r2,zero,5083eb8 <___svfprintf_internal_r+0x1364>
 5083a20:	d8800c17 	ldw	r2,48(sp)
 5083a24:	d9000d17 	ldw	r4,52(sp)
 5083a28:	ad400044 	addi	r21,r21,1
 5083a2c:	1887883a 	add	r3,r3,r2
 5083a30:	e0800115 	stw	r2,4(fp)
 5083a34:	e1000015 	stw	r4,0(fp)
 5083a38:	d8c01c15 	stw	r3,112(sp)
 5083a3c:	dd401b15 	stw	r21,108(sp)
 5083a40:	a8800208 	cmpgei	r2,r21,8
 5083a44:	1001251e 	bne	r2,zero,5083edc <___svfprintf_internal_r+0x1388>
 5083a48:	e7000204 	addi	fp,fp,8
 5083a4c:	d9000917 	ldw	r4,36(sp)
 5083a50:	d9400a17 	ldw	r5,40(sp)
 5083a54:	aa000044 	addi	r8,r21,1
 5083a58:	000d883a 	mov	r6,zero
 5083a5c:	000f883a 	mov	r7,zero
 5083a60:	d8c00e15 	stw	r3,56(sp)
 5083a64:	da000715 	stw	r8,28(sp)
 5083a68:	509164c0 	call	509164c <__eqdf2>
 5083a6c:	d8c00817 	ldw	r3,32(sp)
 5083a70:	da000717 	ldw	r8,28(sp)
 5083a74:	e5800204 	addi	r22,fp,8
 5083a78:	1affffc4 	addi	r11,r3,-1
 5083a7c:	d8c00e17 	ldw	r3,56(sp)
 5083a80:	1000e526 	beq	r2,zero,5083e18 <___svfprintf_internal_r+0x12c4>
 5083a84:	8a400044 	addi	r9,r17,1
 5083a88:	1ac7883a 	add	r3,r3,r11
 5083a8c:	da001b15 	stw	r8,108(sp)
 5083a90:	e2400015 	stw	r9,0(fp)
 5083a94:	e2c00115 	stw	r11,4(fp)
 5083a98:	d8c01c15 	stw	r3,112(sp)
 5083a9c:	42000208 	cmpgei	r8,r8,8
 5083aa0:	4001b01e 	bne	r8,zero,5084164 <___svfprintf_internal_r+0x1610>
 5083aa4:	e0800404 	addi	r2,fp,16
 5083aa8:	aa000084 	addi	r8,r21,2
 5083aac:	b039883a 	mov	fp,r22
 5083ab0:	102d883a 	mov	r22,r2
 5083ab4:	d9001017 	ldw	r4,64(sp)
 5083ab8:	d8801644 	addi	r2,sp,89
 5083abc:	da001b15 	stw	r8,108(sp)
 5083ac0:	20c7883a 	add	r3,r4,r3
 5083ac4:	e0800015 	stw	r2,0(fp)
 5083ac8:	e1000115 	stw	r4,4(fp)
 5083acc:	d8c01c15 	stw	r3,112(sp)
 5083ad0:	42000210 	cmplti	r8,r8,8
 5083ad4:	403d0d1e 	bne	r8,zero,5082f0c <___svfprintf_internal_r+0x3b8>
 5083ad8:	d9801a04 	addi	r6,sp,104
 5083adc:	900b883a 	mov	r5,r18
 5083ae0:	9809883a 	mov	r4,r19
 5083ae4:	508c1200 	call	508c120 <__ssprint_r>
 5083ae8:	103d191e 	bne	r2,zero,5082f50 <___svfprintf_internal_r+0x3fc>
 5083aec:	d8c01c17 	ldw	r3,112(sp)
 5083af0:	dd802704 	addi	r22,sp,156
 5083af4:	003d0506 	br	5082f0c <___svfprintf_internal_r+0x3b8>
 5083af8:	db000417 	ldw	r12,16(sp)
 5083afc:	003e4806 	br	5083420 <___svfprintf_internal_r+0x8cc>
 5083b00:	03014274 	movhi	r12,1289
 5083b04:	39000450 	cmplti	r4,r7,17
 5083b08:	d8801b17 	ldw	r2,108(sp)
 5083b0c:	63182004 	addi	r12,r12,24704
 5083b10:	2000321e 	bne	r4,zero,5083bdc <___svfprintf_internal_r+0x1088>
 5083b14:	dc401115 	stw	r17,68(sp)
 5083b18:	b009883a 	mov	r4,r22
 5083b1c:	9023883a 	mov	r17,r18
 5083b20:	a82d883a 	mov	r22,r21
 5083b24:	ddc01215 	stw	r23,72(sp)
 5083b28:	03c00404 	movi	r15,16
 5083b2c:	a02f883a 	mov	r23,r20
 5083b30:	db800e15 	stw	r14,56(sp)
 5083b34:	8029883a 	mov	r20,r16
 5083b38:	db400f15 	stw	r13,60(sp)
 5083b3c:	402b883a 	mov	r21,r8
 5083b40:	3821883a 	mov	r16,r7
 5083b44:	6025883a 	mov	r18,r12
 5083b48:	00000406 	br	5083b5c <___svfprintf_internal_r+0x1008>
 5083b4c:	843ffc04 	addi	r16,r16,-16
 5083b50:	81800448 	cmpgei	r6,r16,17
 5083b54:	21000204 	addi	r4,r4,8
 5083b58:	30001426 	beq	r6,zero,5083bac <___svfprintf_internal_r+0x1058>
 5083b5c:	10800044 	addi	r2,r2,1
 5083b60:	18c00404 	addi	r3,r3,16
 5083b64:	24800015 	stw	r18,0(r4)
 5083b68:	23c00115 	stw	r15,4(r4)
 5083b6c:	d8c01c15 	stw	r3,112(sp)
 5083b70:	d8801b15 	stw	r2,108(sp)
 5083b74:	11800208 	cmpgei	r6,r2,8
 5083b78:	303ff426 	beq	r6,zero,5083b4c <___svfprintf_internal_r+0xff8>
 5083b7c:	d9801a04 	addi	r6,sp,104
 5083b80:	880b883a 	mov	r5,r17
 5083b84:	9809883a 	mov	r4,r19
 5083b88:	508c1200 	call	508c120 <__ssprint_r>
 5083b8c:	1001b71e 	bne	r2,zero,508426c <___svfprintf_internal_r+0x1718>
 5083b90:	843ffc04 	addi	r16,r16,-16
 5083b94:	81800448 	cmpgei	r6,r16,17
 5083b98:	d8c01c17 	ldw	r3,112(sp)
 5083b9c:	d8801b17 	ldw	r2,108(sp)
 5083ba0:	d9002704 	addi	r4,sp,156
 5083ba4:	03c00404 	movi	r15,16
 5083ba8:	303fec1e 	bne	r6,zero,5083b5c <___svfprintf_internal_r+0x1008>
 5083bac:	800f883a 	mov	r7,r16
 5083bb0:	9019883a 	mov	r12,r18
 5083bb4:	a021883a 	mov	r16,r20
 5083bb8:	8825883a 	mov	r18,r17
 5083bbc:	b829883a 	mov	r20,r23
 5083bc0:	db800e17 	ldw	r14,56(sp)
 5083bc4:	db400f17 	ldw	r13,60(sp)
 5083bc8:	ddc01217 	ldw	r23,72(sp)
 5083bcc:	dc401117 	ldw	r17,68(sp)
 5083bd0:	a811883a 	mov	r8,r21
 5083bd4:	b02b883a 	mov	r21,r22
 5083bd8:	202d883a 	mov	r22,r4
 5083bdc:	10800044 	addi	r2,r2,1
 5083be0:	19c7883a 	add	r3,r3,r7
 5083be4:	d8801b15 	stw	r2,108(sp)
 5083be8:	b3000015 	stw	r12,0(r22)
 5083bec:	b1c00115 	stw	r7,4(r22)
 5083bf0:	d8c01c15 	stw	r3,112(sp)
 5083bf4:	10800208 	cmpgei	r2,r2,8
 5083bf8:	1001651e 	bne	r2,zero,5084190 <___svfprintf_internal_r+0x163c>
 5083bfc:	b5800204 	addi	r22,r22,8
 5083c00:	003c9606 	br	5082e5c <___svfprintf_internal_r+0x308>
 5083c04:	d9801a04 	addi	r6,sp,104
 5083c08:	900b883a 	mov	r5,r18
 5083c0c:	9809883a 	mov	r4,r19
 5083c10:	da001115 	stw	r8,68(sp)
 5083c14:	db400f15 	stw	r13,60(sp)
 5083c18:	db800e15 	stw	r14,56(sp)
 5083c1c:	508c1200 	call	508c120 <__ssprint_r>
 5083c20:	103ccb1e 	bne	r2,zero,5082f50 <___svfprintf_internal_r+0x3fc>
 5083c24:	d8c01c17 	ldw	r3,112(sp)
 5083c28:	da001117 	ldw	r8,68(sp)
 5083c2c:	db400f17 	ldw	r13,60(sp)
 5083c30:	db800e17 	ldw	r14,56(sp)
 5083c34:	dd802704 	addi	r22,sp,156
 5083c38:	003c9606 	br	5082e94 <___svfprintf_internal_r+0x340>
 5083c3c:	d9801a04 	addi	r6,sp,104
 5083c40:	900b883a 	mov	r5,r18
 5083c44:	9809883a 	mov	r4,r19
 5083c48:	da000f15 	stw	r8,60(sp)
 5083c4c:	db400e15 	stw	r13,56(sp)
 5083c50:	508c1200 	call	508c120 <__ssprint_r>
 5083c54:	103cbe1e 	bne	r2,zero,5082f50 <___svfprintf_internal_r+0x3fc>
 5083c58:	d8c01c17 	ldw	r3,112(sp)
 5083c5c:	da000f17 	ldw	r8,60(sp)
 5083c60:	db400e17 	ldw	r13,56(sp)
 5083c64:	dd802704 	addi	r22,sp,156
 5083c68:	003c9706 	br	5082ec8 <___svfprintf_internal_r+0x374>
 5083c6c:	d9401417 	ldw	r5,80(sp)
 5083c70:	0141550e 	bge	zero,r5,50841c8 <___svfprintf_internal_r+0x1674>
 5083c74:	d8800717 	ldw	r2,28(sp)
 5083c78:	d9000817 	ldw	r4,32(sp)
 5083c7c:	102b883a 	mov	r21,r2
 5083c80:	2080c716 	blt	r4,r2,5083fa0 <___svfprintf_internal_r+0x144c>
 5083c84:	05400a0e 	bge	zero,r21,5083cb0 <___svfprintf_internal_r+0x115c>
 5083c88:	d8801b17 	ldw	r2,108(sp)
 5083c8c:	1d47883a 	add	r3,r3,r21
 5083c90:	b4400015 	stw	r17,0(r22)
 5083c94:	10800044 	addi	r2,r2,1
 5083c98:	d8801b15 	stw	r2,108(sp)
 5083c9c:	b5400115 	stw	r21,4(r22)
 5083ca0:	d8c01c15 	stw	r3,112(sp)
 5083ca4:	10800208 	cmpgei	r2,r2,8
 5083ca8:	10032c1e 	bne	r2,zero,508495c <___svfprintf_internal_r+0x1e08>
 5083cac:	b5800204 	addi	r22,r22,8
 5083cb0:	a800d016 	blt	r21,zero,5083ff4 <___svfprintf_internal_r+0x14a0>
 5083cb4:	d8800717 	ldw	r2,28(sp)
 5083cb8:	156bc83a 	sub	r21,r2,r21
 5083cbc:	0540d816 	blt	zero,r21,5084020 <___svfprintf_internal_r+0x14cc>
 5083cc0:	dd401417 	ldw	r21,80(sp)
 5083cc4:	d8800817 	ldw	r2,32(sp)
 5083cc8:	a880b80e 	bge	r21,r2,5083fac <___svfprintf_internal_r+0x1458>
 5083ccc:	d8800d17 	ldw	r2,52(sp)
 5083cd0:	d9000c17 	ldw	r4,48(sp)
 5083cd4:	b0800015 	stw	r2,0(r22)
 5083cd8:	d8801b17 	ldw	r2,108(sp)
 5083cdc:	1907883a 	add	r3,r3,r4
 5083ce0:	b1000115 	stw	r4,4(r22)
 5083ce4:	10800044 	addi	r2,r2,1
 5083ce8:	d8801b15 	stw	r2,108(sp)
 5083cec:	d8c01c15 	stw	r3,112(sp)
 5083cf0:	10800208 	cmpgei	r2,r2,8
 5083cf4:	1002bd1e 	bne	r2,zero,50847ec <___svfprintf_internal_r+0x1c98>
 5083cf8:	b5800204 	addi	r22,r22,8
 5083cfc:	d9000817 	ldw	r4,32(sp)
 5083d00:	d9400717 	ldw	r5,28(sp)
 5083d04:	2545c83a 	sub	r2,r4,r21
 5083d08:	2149c83a 	sub	r4,r4,r5
 5083d0c:	102b883a 	mov	r21,r2
 5083d10:	2080010e 	bge	r4,r2,5083d18 <___svfprintf_internal_r+0x11c4>
 5083d14:	202b883a 	mov	r21,r4
 5083d18:	05400c0e 	bge	zero,r21,5083d4c <___svfprintf_internal_r+0x11f8>
 5083d1c:	d9000717 	ldw	r4,28(sp)
 5083d20:	1d47883a 	add	r3,r3,r21
 5083d24:	b5400115 	stw	r21,4(r22)
 5083d28:	8913883a 	add	r9,r17,r4
 5083d2c:	d9001b17 	ldw	r4,108(sp)
 5083d30:	b2400015 	stw	r9,0(r22)
 5083d34:	d8c01c15 	stw	r3,112(sp)
 5083d38:	21000044 	addi	r4,r4,1
 5083d3c:	d9001b15 	stw	r4,108(sp)
 5083d40:	21000208 	cmpgei	r4,r4,8
 5083d44:	20030e1e 	bne	r4,zero,5084980 <___svfprintf_internal_r+0x1e2c>
 5083d48:	b5800204 	addi	r22,r22,8
 5083d4c:	a800010e 	bge	r21,zero,5083d54 <___svfprintf_internal_r+0x1200>
 5083d50:	002b883a 	mov	r21,zero
 5083d54:	156bc83a 	sub	r21,r2,r21
 5083d58:	057c6c0e 	bge	zero,r21,5082f0c <___svfprintf_internal_r+0x3b8>
 5083d5c:	01c14274 	movhi	r7,1289
 5083d60:	a9000450 	cmplti	r4,r21,17
 5083d64:	d8801b17 	ldw	r2,108(sp)
 5083d68:	39d81c04 	addi	r7,r7,24688
 5083d6c:	2001951e 	bne	r4,zero,50843c4 <___svfprintf_internal_r+0x1870>
 5083d70:	07000404 	movi	fp,16
 5083d74:	3823883a 	mov	r17,r7
 5083d78:	00000406 	br	5083d8c <___svfprintf_internal_r+0x1238>
 5083d7c:	b5800204 	addi	r22,r22,8
 5083d80:	ad7ffc04 	addi	r21,r21,-16
 5083d84:	a9000448 	cmpgei	r4,r21,17
 5083d88:	20018d26 	beq	r4,zero,50843c0 <___svfprintf_internal_r+0x186c>
 5083d8c:	10800044 	addi	r2,r2,1
 5083d90:	18c00404 	addi	r3,r3,16
 5083d94:	b4400015 	stw	r17,0(r22)
 5083d98:	b7000115 	stw	fp,4(r22)
 5083d9c:	d8c01c15 	stw	r3,112(sp)
 5083da0:	d8801b15 	stw	r2,108(sp)
 5083da4:	11000208 	cmpgei	r4,r2,8
 5083da8:	203ff426 	beq	r4,zero,5083d7c <___svfprintf_internal_r+0x1228>
 5083dac:	d9801a04 	addi	r6,sp,104
 5083db0:	900b883a 	mov	r5,r18
 5083db4:	9809883a 	mov	r4,r19
 5083db8:	508c1200 	call	508c120 <__ssprint_r>
 5083dbc:	103c641e 	bne	r2,zero,5082f50 <___svfprintf_internal_r+0x3fc>
 5083dc0:	d8c01c17 	ldw	r3,112(sp)
 5083dc4:	d8801b17 	ldw	r2,108(sp)
 5083dc8:	dd802704 	addi	r22,sp,156
 5083dcc:	003fec06 	br	5083d80 <___svfprintf_internal_r+0x122c>
 5083dd0:	d8800417 	ldw	r2,16(sp)
 5083dd4:	1080004c 	andi	r2,r2,1
 5083dd8:	103f0a1e 	bne	r2,zero,5083a04 <___svfprintf_internal_r+0xeb0>
 5083ddc:	00800044 	movi	r2,1
 5083de0:	dd401b15 	stw	r21,108(sp)
 5083de4:	b4400015 	stw	r17,0(r22)
 5083de8:	b0800115 	stw	r2,4(r22)
 5083dec:	d8c01c15 	stw	r3,112(sp)
 5083df0:	ad400208 	cmpgei	r21,r21,8
 5083df4:	a800db1e 	bne	r21,zero,5084164 <___svfprintf_internal_r+0x1610>
 5083df8:	42000084 	addi	r8,r8,2
 5083dfc:	b5800404 	addi	r22,r22,16
 5083e00:	003f2c06 	br	5083ab4 <___svfprintf_internal_r+0xf60>
 5083e04:	4002ad1e 	bne	r8,zero,50848bc <___svfprintf_internal_r+0x1d68>
 5083e08:	0011883a 	mov	r8,zero
 5083e0c:	002b883a 	mov	r21,zero
 5083e10:	dc402704 	addi	r17,sp,156
 5083e14:	003da006 	br	5083498 <___svfprintf_internal_r+0x944>
 5083e18:	02ff260e 	bge	zero,r11,5083ab4 <___svfprintf_internal_r+0xf60>
 5083e1c:	58800450 	cmplti	r2,r11,17
 5083e20:	01c14274 	movhi	r7,1289
 5083e24:	10034d1e 	bne	r2,zero,5084b5c <___svfprintf_internal_r+0x2008>
 5083e28:	39d81c04 	addi	r7,r7,24688
 5083e2c:	dc000715 	stw	r16,28(sp)
 5083e30:	05800404 	movi	r22,16
 5083e34:	5823883a 	mov	r17,r11
 5083e38:	402b883a 	mov	r21,r8
 5083e3c:	3821883a 	mov	r16,r7
 5083e40:	00000506 	br	5083e58 <___svfprintf_internal_r+0x1304>
 5083e44:	e7000204 	addi	fp,fp,8
 5083e48:	8c7ffc04 	addi	r17,r17,-16
 5083e4c:	88800448 	cmpgei	r2,r17,17
 5083e50:	1001ae26 	beq	r2,zero,508450c <___svfprintf_internal_r+0x19b8>
 5083e54:	ad400044 	addi	r21,r21,1
 5083e58:	18c00404 	addi	r3,r3,16
 5083e5c:	e4000015 	stw	r16,0(fp)
 5083e60:	e5800115 	stw	r22,4(fp)
 5083e64:	d8c01c15 	stw	r3,112(sp)
 5083e68:	dd401b15 	stw	r21,108(sp)
 5083e6c:	a8800208 	cmpgei	r2,r21,8
 5083e70:	103ff426 	beq	r2,zero,5083e44 <___svfprintf_internal_r+0x12f0>
 5083e74:	d9801a04 	addi	r6,sp,104
 5083e78:	900b883a 	mov	r5,r18
 5083e7c:	9809883a 	mov	r4,r19
 5083e80:	508c1200 	call	508c120 <__ssprint_r>
 5083e84:	103c321e 	bne	r2,zero,5082f50 <___svfprintf_internal_r+0x3fc>
 5083e88:	dd401b17 	ldw	r21,108(sp)
 5083e8c:	d8c01c17 	ldw	r3,112(sp)
 5083e90:	df002704 	addi	fp,sp,156
 5083e94:	003fec06 	br	5083e48 <___svfprintf_internal_r+0x12f4>
 5083e98:	d9801a04 	addi	r6,sp,104
 5083e9c:	900b883a 	mov	r5,r18
 5083ea0:	9809883a 	mov	r4,r19
 5083ea4:	508c1200 	call	508c120 <__ssprint_r>
 5083ea8:	103c291e 	bne	r2,zero,5082f50 <___svfprintf_internal_r+0x3fc>
 5083eac:	d8c01c17 	ldw	r3,112(sp)
 5083eb0:	dd802704 	addi	r22,sp,156
 5083eb4:	003c0806 	br	5082ed8 <___svfprintf_internal_r+0x384>
 5083eb8:	d9801a04 	addi	r6,sp,104
 5083ebc:	900b883a 	mov	r5,r18
 5083ec0:	9809883a 	mov	r4,r19
 5083ec4:	508c1200 	call	508c120 <__ssprint_r>
 5083ec8:	103c211e 	bne	r2,zero,5082f50 <___svfprintf_internal_r+0x3fc>
 5083ecc:	d8c01c17 	ldw	r3,112(sp)
 5083ed0:	dd401b17 	ldw	r21,108(sp)
 5083ed4:	df002704 	addi	fp,sp,156
 5083ed8:	003ed106 	br	5083a20 <___svfprintf_internal_r+0xecc>
 5083edc:	d9801a04 	addi	r6,sp,104
 5083ee0:	900b883a 	mov	r5,r18
 5083ee4:	9809883a 	mov	r4,r19
 5083ee8:	508c1200 	call	508c120 <__ssprint_r>
 5083eec:	103c181e 	bne	r2,zero,5082f50 <___svfprintf_internal_r+0x3fc>
 5083ef0:	d8c01c17 	ldw	r3,112(sp)
 5083ef4:	dd401b17 	ldw	r21,108(sp)
 5083ef8:	df002704 	addi	fp,sp,156
 5083efc:	003ed306 	br	5083a4c <___svfprintf_internal_r+0xef8>
 5083f00:	dc402704 	addi	r17,sp,156
 5083f04:	003d6406 	br	5083498 <___svfprintf_internal_r+0x944>
 5083f08:	25000017 	ldw	r20,0(r4)
 5083f0c:	002b883a 	mov	r21,zero
 5083f10:	d8c00615 	stw	r3,24(sp)
 5083f14:	0005883a 	mov	r2,zero
 5083f18:	003c3006 	br	5082fdc <___svfprintf_internal_r+0x488>
 5083f1c:	d9000517 	ldw	r4,20(sp)
 5083f20:	2005d7fa 	srai	r2,r4,31
 5083f24:	19000015 	stw	r4,0(r3)
 5083f28:	18800115 	stw	r2,4(r3)
 5083f2c:	003b2f06 	br	5082bec <___svfprintf_internal_r+0x98>
 5083f30:	25000017 	ldw	r20,0(r4)
 5083f34:	002b883a 	mov	r21,zero
 5083f38:	d8c00615 	stw	r3,24(sp)
 5083f3c:	00800044 	movi	r2,1
 5083f40:	003c2606 	br	5082fdc <___svfprintf_internal_r+0x488>
 5083f44:	25000017 	ldw	r20,0(r4)
 5083f48:	d8c00615 	stw	r3,24(sp)
 5083f4c:	a02bd7fa 	srai	r21,r20,31
 5083f50:	a805883a 	mov	r2,r21
 5083f54:	003cd706 	br	50832b4 <___svfprintf_internal_r+0x760>
 5083f58:	18800017 	ldw	r2,0(r3)
 5083f5c:	d8800915 	stw	r2,36(sp)
 5083f60:	18800117 	ldw	r2,4(r3)
 5083f64:	d8800a15 	stw	r2,40(sp)
 5083f68:	003c5206 	br	50830b4 <___svfprintf_internal_r+0x560>
 5083f6c:	25000017 	ldw	r20,0(r4)
 5083f70:	002b883a 	mov	r21,zero
 5083f74:	d8c00615 	stw	r3,24(sp)
 5083f78:	003d9306 	br	50835c8 <___svfprintf_internal_r+0xa74>
 5083f7c:	00800c04 	movi	r2,48
 5083f80:	d8801385 	stb	r2,78(sp)
 5083f84:	df0013c5 	stb	fp,79(sp)
 5083f88:	63000094 	ori	r12,r12,2
 5083f8c:	00800084 	movi	r2,2
 5083f90:	003c1206 	br	5082fdc <___svfprintf_internal_r+0x488>
 5083f94:	0421c83a 	sub	r16,zero,r16
 5083f98:	d8800615 	stw	r2,24(sp)
 5083f9c:	003d5d06 	br	5083514 <___svfprintf_internal_r+0x9c0>
 5083fa0:	202b883a 	mov	r21,r4
 5083fa4:	057f3816 	blt	zero,r21,5083c88 <___svfprintf_internal_r+0x1134>
 5083fa8:	003f4106 	br	5083cb0 <___svfprintf_internal_r+0x115c>
 5083fac:	d8800417 	ldw	r2,16(sp)
 5083fb0:	1080004c 	andi	r2,r2,1
 5083fb4:	103f451e 	bne	r2,zero,5083ccc <___svfprintf_internal_r+0x1178>
 5083fb8:	d9000817 	ldw	r4,32(sp)
 5083fbc:	d9400717 	ldw	r5,28(sp)
 5083fc0:	2545c83a 	sub	r2,r4,r21
 5083fc4:	2179c83a 	sub	fp,r4,r5
 5083fc8:	102b883a 	mov	r21,r2
 5083fcc:	e0bf5f0e 	bge	fp,r2,5083d4c <___svfprintf_internal_r+0x11f8>
 5083fd0:	e02b883a 	mov	r21,fp
 5083fd4:	003f5d06 	br	5083d4c <___svfprintf_internal_r+0x11f8>
 5083fd8:	bf000043 	ldbu	fp,1(r23)
 5083fdc:	63000814 	ori	r12,r12,32
 5083fe0:	bdc00044 	addi	r23,r23,1
 5083fe4:	e2c03fcc 	andi	r11,fp,255
 5083fe8:	5ac0201c 	xori	r11,r11,128
 5083fec:	5affe004 	addi	r11,r11,-128
 5083ff0:	003b1606 	br	5082c4c <___svfprintf_internal_r+0xf8>
 5083ff4:	002b883a 	mov	r21,zero
 5083ff8:	003f2e06 	br	5083cb4 <___svfprintf_internal_r+0x1160>
 5083ffc:	01401004 	movi	r5,64
 5084000:	9809883a 	mov	r4,r19
 5084004:	5089cf80 	call	5089cf8 <_malloc_r>
 5084008:	90800015 	stw	r2,0(r18)
 508400c:	90800415 	stw	r2,16(r18)
 5084010:	1002eb26 	beq	r2,zero,5084bc0 <___svfprintf_internal_r+0x206c>
 5084014:	00801004 	movi	r2,64
 5084018:	90800515 	stw	r2,20(r18)
 508401c:	003ae706 	br	5082bbc <___svfprintf_internal_r+0x68>
 5084020:	01c14274 	movhi	r7,1289
 5084024:	a9000450 	cmplti	r4,r21,17
 5084028:	d8801b17 	ldw	r2,108(sp)
 508402c:	39d81c04 	addi	r7,r7,24688
 5084030:	2001e01e 	bne	r4,zero,50847b4 <___svfprintf_internal_r+0x1c60>
 5084034:	dc000e15 	stw	r16,56(sp)
 5084038:	07000404 	movi	fp,16
 508403c:	3821883a 	mov	r16,r7
 5084040:	00000406 	br	5084054 <___svfprintf_internal_r+0x1500>
 5084044:	b5800204 	addi	r22,r22,8
 5084048:	ad7ffc04 	addi	r21,r21,-16
 508404c:	a9000448 	cmpgei	r4,r21,17
 5084050:	2001d626 	beq	r4,zero,50847ac <___svfprintf_internal_r+0x1c58>
 5084054:	10800044 	addi	r2,r2,1
 5084058:	18c00404 	addi	r3,r3,16
 508405c:	b4000015 	stw	r16,0(r22)
 5084060:	b7000115 	stw	fp,4(r22)
 5084064:	d8c01c15 	stw	r3,112(sp)
 5084068:	d8801b15 	stw	r2,108(sp)
 508406c:	11000208 	cmpgei	r4,r2,8
 5084070:	203ff426 	beq	r4,zero,5084044 <___svfprintf_internal_r+0x14f0>
 5084074:	d9801a04 	addi	r6,sp,104
 5084078:	900b883a 	mov	r5,r18
 508407c:	9809883a 	mov	r4,r19
 5084080:	508c1200 	call	508c120 <__ssprint_r>
 5084084:	103bb21e 	bne	r2,zero,5082f50 <___svfprintf_internal_r+0x3fc>
 5084088:	d8c01c17 	ldw	r3,112(sp)
 508408c:	d8801b17 	ldw	r2,108(sp)
 5084090:	dd802704 	addi	r22,sp,156
 5084094:	003fec06 	br	5084048 <___svfprintf_internal_r+0x14f4>
 5084098:	8809883a 	mov	r4,r17
 508409c:	db000415 	stw	r12,16(sp)
 50840a0:	d8c00615 	stw	r3,24(sp)
 50840a4:	5082abc0 	call	5082abc <strlen>
 50840a8:	db000417 	ldw	r12,16(sp)
 50840ac:	102b883a 	mov	r21,r2
 50840b0:	1029883a 	mov	r20,r2
 50840b4:	003b5c06 	br	5082e28 <___svfprintf_internal_r+0x2d4>
 50840b8:	dc402704 	addi	r17,sp,156
 50840bc:	a805883a 	mov	r2,r21
 50840c0:	dc000715 	stw	r16,28(sp)
 50840c4:	902b883a 	mov	r21,r18
 50840c8:	8821883a 	mov	r16,r17
 50840cc:	db000415 	stw	r12,16(sp)
 50840d0:	a023883a 	mov	r17,r20
 50840d4:	da000e15 	stw	r8,56(sp)
 50840d8:	9829883a 	mov	r20,r19
 50840dc:	1025883a 	mov	r18,r2
 50840e0:	6827883a 	mov	r19,r13
 50840e4:	8809883a 	mov	r4,r17
 50840e8:	900b883a 	mov	r5,r18
 50840ec:	01800284 	movi	r6,10
 50840f0:	000f883a 	mov	r7,zero
 50840f4:	508ffcc0 	call	508ffcc <__umoddi3>
 50840f8:	10800c04 	addi	r2,r2,48
 50840fc:	8809883a 	mov	r4,r17
 5084100:	900b883a 	mov	r5,r18
 5084104:	01800284 	movi	r6,10
 5084108:	000f883a 	mov	r7,zero
 508410c:	80bfffc5 	stb	r2,-1(r16)
 5084110:	508fa3c0 	call	508fa3c <__udivdi3>
 5084114:	900d883a 	mov	r6,r18
 5084118:	880f883a 	mov	r7,r17
 508411c:	843fffc4 	addi	r16,r16,-1
 5084120:	1023883a 	mov	r17,r2
 5084124:	1825883a 	mov	r18,r3
 5084128:	303fee1e 	bne	r6,zero,50840e4 <___svfprintf_internal_r+0x1590>
 508412c:	39c002a8 	cmpgeui	r7,r7,10
 5084130:	383fec1e 	bne	r7,zero,50840e4 <___svfprintf_internal_r+0x1590>
 5084134:	8023883a 	mov	r17,r16
 5084138:	d8802704 	addi	r2,sp,156
 508413c:	981b883a 	mov	r13,r19
 5084140:	a825883a 	mov	r18,r21
 5084144:	dc000717 	ldw	r16,28(sp)
 5084148:	da000e17 	ldw	r8,56(sp)
 508414c:	a027883a 	mov	r19,r20
 5084150:	146bc83a 	sub	r21,r2,r17
 5084154:	003cd006 	br	5083498 <___svfprintf_internal_r+0x944>
 5084158:	d8800517 	ldw	r2,20(sp)
 508415c:	18800015 	stw	r2,0(r3)
 5084160:	003aa206 	br	5082bec <___svfprintf_internal_r+0x98>
 5084164:	d9801a04 	addi	r6,sp,104
 5084168:	900b883a 	mov	r5,r18
 508416c:	9809883a 	mov	r4,r19
 5084170:	508c1200 	call	508c120 <__ssprint_r>
 5084174:	103b761e 	bne	r2,zero,5082f50 <___svfprintf_internal_r+0x3fc>
 5084178:	da001b17 	ldw	r8,108(sp)
 508417c:	d8c01c17 	ldw	r3,112(sp)
 5084180:	dd802904 	addi	r22,sp,164
 5084184:	42000044 	addi	r8,r8,1
 5084188:	df002704 	addi	fp,sp,156
 508418c:	003e4906 	br	5083ab4 <___svfprintf_internal_r+0xf60>
 5084190:	d9801a04 	addi	r6,sp,104
 5084194:	900b883a 	mov	r5,r18
 5084198:	9809883a 	mov	r4,r19
 508419c:	da001115 	stw	r8,68(sp)
 50841a0:	db400f15 	stw	r13,60(sp)
 50841a4:	db800e15 	stw	r14,56(sp)
 50841a8:	508c1200 	call	508c120 <__ssprint_r>
 50841ac:	103b681e 	bne	r2,zero,5082f50 <___svfprintf_internal_r+0x3fc>
 50841b0:	d8c01c17 	ldw	r3,112(sp)
 50841b4:	da001117 	ldw	r8,68(sp)
 50841b8:	db400f17 	ldw	r13,60(sp)
 50841bc:	db800e17 	ldw	r14,56(sp)
 50841c0:	dd802704 	addi	r22,sp,156
 50841c4:	003b2506 	br	5082e5c <___svfprintf_internal_r+0x308>
 50841c8:	d8801b17 	ldw	r2,108(sp)
 50841cc:	01014274 	movhi	r4,1289
 50841d0:	21181b04 	addi	r4,r4,24684
 50841d4:	10800044 	addi	r2,r2,1
 50841d8:	18c00044 	addi	r3,r3,1
 50841dc:	b1000015 	stw	r4,0(r22)
 50841e0:	01000044 	movi	r4,1
 50841e4:	d8801b15 	stw	r2,108(sp)
 50841e8:	b1000115 	stw	r4,4(r22)
 50841ec:	d8c01c15 	stw	r3,112(sp)
 50841f0:	10800208 	cmpgei	r2,r2,8
 50841f4:	1001861e 	bne	r2,zero,5084810 <___svfprintf_internal_r+0x1cbc>
 50841f8:	b5800204 	addi	r22,r22,8
 50841fc:	2800971e 	bne	r5,zero,508445c <___svfprintf_internal_r+0x1908>
 5084200:	d8800417 	ldw	r2,16(sp)
 5084204:	d9000817 	ldw	r4,32(sp)
 5084208:	1080004c 	andi	r2,r2,1
 508420c:	1104b03a 	or	r2,r2,r4
 5084210:	103b3e26 	beq	r2,zero,5082f0c <___svfprintf_internal_r+0x3b8>
 5084214:	d8800d17 	ldw	r2,52(sp)
 5084218:	d9000c17 	ldw	r4,48(sp)
 508421c:	b0800015 	stw	r2,0(r22)
 5084220:	d8801b17 	ldw	r2,108(sp)
 5084224:	20c7883a 	add	r3,r4,r3
 5084228:	b1000115 	stw	r4,4(r22)
 508422c:	10800044 	addi	r2,r2,1
 5084230:	d8c01c15 	stw	r3,112(sp)
 5084234:	d8801b15 	stw	r2,108(sp)
 5084238:	11000208 	cmpgei	r4,r2,8
 508423c:	20018c1e 	bne	r4,zero,5084870 <___svfprintf_internal_r+0x1d1c>
 5084240:	b5800204 	addi	r22,r22,8
 5084244:	d9000817 	ldw	r4,32(sp)
 5084248:	10800044 	addi	r2,r2,1
 508424c:	d8801b15 	stw	r2,108(sp)
 5084250:	20c7883a 	add	r3,r4,r3
 5084254:	b4400015 	stw	r17,0(r22)
 5084258:	b1000115 	stw	r4,4(r22)
 508425c:	d8c01c15 	stw	r3,112(sp)
 5084260:	10800208 	cmpgei	r2,r2,8
 5084264:	103b2826 	beq	r2,zero,5082f08 <___svfprintf_internal_r+0x3b4>
 5084268:	003e1b06 	br	5083ad8 <___svfprintf_internal_r+0xf84>
 508426c:	8825883a 	mov	r18,r17
 5084270:	003b3706 	br	5082f50 <___svfprintf_internal_r+0x3fc>
 5084274:	d9000917 	ldw	r4,36(sp)
 5084278:	d9400a17 	ldw	r5,40(sp)
 508427c:	da000615 	stw	r8,24(sp)
 5084280:	200d883a 	mov	r6,r4
 5084284:	280f883a 	mov	r7,r5
 5084288:	db000415 	stw	r12,16(sp)
 508428c:	50927c40 	call	50927c4 <__unorddf2>
 5084290:	db000417 	ldw	r12,16(sp)
 5084294:	da000617 	ldw	r8,24(sp)
 5084298:	10021e1e 	bne	r2,zero,5084b14 <___svfprintf_internal_r+0x1fc0>
 508429c:	057ff7c4 	movi	r21,-33
 50842a0:	40bfffe0 	cmpeqi	r2,r8,-1
 50842a4:	e56a703a 	and	r21,fp,r21
 50842a8:	1001c01e 	bne	r2,zero,50849ac <___svfprintf_internal_r+0x1e58>
 50842ac:	a88011d8 	cmpnei	r2,r21,71
 50842b0:	10004026 	beq	r2,zero,50843b4 <___svfprintf_internal_r+0x1860>
 50842b4:	60804014 	ori	r2,r12,256
 50842b8:	d8800415 	stw	r2,16(sp)
 50842bc:	d8800a17 	ldw	r2,40(sp)
 50842c0:	10015c16 	blt	r2,zero,5084834 <___svfprintf_internal_r+0x1ce0>
 50842c4:	dd000a17 	ldw	r20,40(sp)
 50842c8:	d8000605 	stb	zero,24(sp)
 50842cc:	e08019a0 	cmpeqi	r2,fp,102
 50842d0:	d8800f15 	stw	r2,60(sp)
 50842d4:	1000a01e 	bne	r2,zero,5084558 <___svfprintf_internal_r+0x1a04>
 50842d8:	e08011a0 	cmpeqi	r2,fp,70
 50842dc:	10009e1e 	bne	r2,zero,5084558 <___svfprintf_internal_r+0x1a04>
 50842e0:	a8801158 	cmpnei	r2,r21,69
 50842e4:	10017c26 	beq	r2,zero,50848d8 <___svfprintf_internal_r+0x1d84>
 50842e8:	d8801804 	addi	r2,sp,96
 50842ec:	d8800315 	stw	r2,12(sp)
 50842f0:	d9400917 	ldw	r5,36(sp)
 50842f4:	d8801504 	addi	r2,sp,84
 50842f8:	d8800215 	stw	r2,8(sp)
 50842fc:	d8801404 	addi	r2,sp,80
 5084300:	da000015 	stw	r8,0(sp)
 5084304:	9809883a 	mov	r4,r19
 5084308:	d8800115 	stw	r2,4(sp)
 508430c:	01c00084 	movi	r7,2
 5084310:	a00d883a 	mov	r6,r20
 5084314:	db000815 	stw	r12,32(sp)
 5084318:	da000715 	stw	r8,28(sp)
 508431c:	50872900 	call	5087290 <_dtoa_r>
 5084320:	da000717 	ldw	r8,28(sp)
 5084324:	e10019d8 	cmpnei	r4,fp,103
 5084328:	db000817 	ldw	r12,32(sp)
 508432c:	1023883a 	mov	r17,r2
 5084330:	4007883a 	mov	r3,r8
 5084334:	20017c1e 	bne	r4,zero,5084928 <___svfprintf_internal_r+0x1dd4>
 5084338:	6080004c 	andi	r2,r12,1
 508433c:	10017c1e 	bne	r2,zero,5084930 <___svfprintf_internal_r+0x1ddc>
 5084340:	d8801417 	ldw	r2,80(sp)
 5084344:	ad4011e0 	cmpeqi	r21,r21,71
 5084348:	d8800715 	stw	r2,28(sp)
 508434c:	d8801817 	ldw	r2,96(sp)
 5084350:	1445c83a 	sub	r2,r2,r17
 5084354:	d8800815 	stw	r2,32(sp)
 5084358:	a800d226 	beq	r21,zero,50846a4 <___svfprintf_internal_r+0x1b50>
 508435c:	d8c00717 	ldw	r3,28(sp)
 5084360:	18bfff50 	cmplti	r2,r3,-3
 5084364:	1000ce1e 	bne	r2,zero,50846a0 <___svfprintf_internal_r+0x1b4c>
 5084368:	40c0cd16 	blt	r8,r3,50846a0 <___svfprintf_internal_r+0x1b4c>
 508436c:	d8800717 	ldw	r2,28(sp)
 5084370:	d8c00817 	ldw	r3,32(sp)
 5084374:	10c19316 	blt	r2,r3,50849c4 <___svfprintf_internal_r+0x1e70>
 5084378:	6300004c 	andi	r12,r12,1
 508437c:	6001d41e 	bne	r12,zero,5084ad0 <___svfprintf_internal_r+0x1f7c>
 5084380:	1029883a 	mov	r20,r2
 5084384:	1000010e 	bge	r2,zero,508438c <___svfprintf_internal_r+0x1838>
 5084388:	0029883a 	mov	r20,zero
 508438c:	dd400717 	ldw	r21,28(sp)
 5084390:	070019c4 	movi	fp,103
 5084394:	d8800607 	ldb	r2,24(sp)
 5084398:	10016b26 	beq	r2,zero,5084948 <___svfprintf_internal_r+0x1df4>
 508439c:	00800b44 	movi	r2,45
 50843a0:	d8801345 	stb	r2,77(sp)
 50843a4:	d8800e17 	ldw	r2,56(sp)
 50843a8:	0011883a 	mov	r8,zero
 50843ac:	d8800615 	stw	r2,24(sp)
 50843b0:	003c4106 	br	50834b8 <___svfprintf_internal_r+0x964>
 50843b4:	403fbf1e 	bne	r8,zero,50842b4 <___svfprintf_internal_r+0x1760>
 50843b8:	02000044 	movi	r8,1
 50843bc:	003fbd06 	br	50842b4 <___svfprintf_internal_r+0x1760>
 50843c0:	880f883a 	mov	r7,r17
 50843c4:	10800044 	addi	r2,r2,1
 50843c8:	1d47883a 	add	r3,r3,r21
 50843cc:	b1c00015 	stw	r7,0(r22)
 50843d0:	003ac806 	br	5082ef4 <___svfprintf_internal_r+0x3a0>
 50843d4:	d9801a04 	addi	r6,sp,104
 50843d8:	900b883a 	mov	r5,r18
 50843dc:	9809883a 	mov	r4,r19
 50843e0:	508c1200 	call	508c120 <__ssprint_r>
 50843e4:	103ada1e 	bne	r2,zero,5082f50 <___svfprintf_internal_r+0x3fc>
 50843e8:	d8c01c17 	ldw	r3,112(sp)
 50843ec:	dd802704 	addi	r22,sp,156
 50843f0:	003cc406 	br	5083704 <___svfprintf_internal_r+0xbb0>
 50843f4:	d9801a04 	addi	r6,sp,104
 50843f8:	900b883a 	mov	r5,r18
 50843fc:	9809883a 	mov	r4,r19
 5084400:	da000e15 	stw	r8,56(sp)
 5084404:	508c1200 	call	508c120 <__ssprint_r>
 5084408:	103ad11e 	bne	r2,zero,5082f50 <___svfprintf_internal_r+0x3fc>
 508440c:	d8c01c17 	ldw	r3,112(sp)
 5084410:	da000e17 	ldw	r8,56(sp)
 5084414:	dd802704 	addi	r22,sp,156
 5084418:	003aad06 	br	5082ed0 <___svfprintf_internal_r+0x37c>
 508441c:	d9801a04 	addi	r6,sp,104
 5084420:	900b883a 	mov	r5,r18
 5084424:	9809883a 	mov	r4,r19
 5084428:	508c1200 	call	508c120 <__ssprint_r>
 508442c:	103ac81e 	bne	r2,zero,5082f50 <___svfprintf_internal_r+0x3fc>
 5084430:	d8c01c17 	ldw	r3,112(sp)
 5084434:	dd802704 	addi	r22,sp,156
 5084438:	003cc406 	br	508374c <___svfprintf_internal_r+0xbf8>
 508443c:	408001f0 	cmpltui	r2,r8,7
 5084440:	402b883a 	mov	r21,r8
 5084444:	10010126 	beq	r2,zero,508484c <___svfprintf_internal_r+0x1cf8>
 5084448:	04414274 	movhi	r17,1289
 508444c:	a829883a 	mov	r20,r21
 5084450:	d8c00615 	stw	r3,24(sp)
 5084454:	8c581904 	addi	r17,r17,24676
 5084458:	003a7306 	br	5082e28 <___svfprintf_internal_r+0x2d4>
 508445c:	d8800d17 	ldw	r2,52(sp)
 5084460:	d9000c17 	ldw	r4,48(sp)
 5084464:	b0800015 	stw	r2,0(r22)
 5084468:	d8801b17 	ldw	r2,108(sp)
 508446c:	20c7883a 	add	r3,r4,r3
 5084470:	b1000115 	stw	r4,4(r22)
 5084474:	10800044 	addi	r2,r2,1
 5084478:	d8c01c15 	stw	r3,112(sp)
 508447c:	d8801b15 	stw	r2,108(sp)
 5084480:	11000208 	cmpgei	r4,r2,8
 5084484:	2000fa1e 	bne	r4,zero,5084870 <___svfprintf_internal_r+0x1d1c>
 5084488:	b5800204 	addi	r22,r22,8
 508448c:	283f6d0e 	bge	r5,zero,5084244 <___svfprintf_internal_r+0x16f0>
 5084490:	01c14274 	movhi	r7,1289
 5084494:	293ffc08 	cmpgei	r4,r5,-16
 5084498:	39d81c04 	addi	r7,r7,24688
 508449c:	0179c83a 	sub	fp,zero,r5
 50844a0:	2001631e 	bne	r4,zero,5084a30 <___svfprintf_internal_r+0x1edc>
 50844a4:	dc000715 	stw	r16,28(sp)
 50844a8:	05400404 	movi	r21,16
 50844ac:	9021883a 	mov	r16,r18
 50844b0:	3825883a 	mov	r18,r7
 50844b4:	00000406 	br	50844c8 <___svfprintf_internal_r+0x1974>
 50844b8:	b5800204 	addi	r22,r22,8
 50844bc:	e73ffc04 	addi	fp,fp,-16
 50844c0:	e1800448 	cmpgei	r6,fp,17
 50844c4:	30015726 	beq	r6,zero,5084a24 <___svfprintf_internal_r+0x1ed0>
 50844c8:	10800044 	addi	r2,r2,1
 50844cc:	18c00404 	addi	r3,r3,16
 50844d0:	b4800015 	stw	r18,0(r22)
 50844d4:	b5400115 	stw	r21,4(r22)
 50844d8:	d8c01c15 	stw	r3,112(sp)
 50844dc:	d8801b15 	stw	r2,108(sp)
 50844e0:	11800208 	cmpgei	r6,r2,8
 50844e4:	303ff426 	beq	r6,zero,50844b8 <___svfprintf_internal_r+0x1964>
 50844e8:	d9801a04 	addi	r6,sp,104
 50844ec:	800b883a 	mov	r5,r16
 50844f0:	9809883a 	mov	r4,r19
 50844f4:	508c1200 	call	508c120 <__ssprint_r>
 50844f8:	1001961e 	bne	r2,zero,5084b54 <___svfprintf_internal_r+0x2000>
 50844fc:	d8c01c17 	ldw	r3,112(sp)
 5084500:	d8801b17 	ldw	r2,108(sp)
 5084504:	dd802704 	addi	r22,sp,156
 5084508:	003fec06 	br	50844bc <___svfprintf_internal_r+0x1968>
 508450c:	800f883a 	mov	r7,r16
 5084510:	dc000717 	ldw	r16,28(sp)
 5084514:	8817883a 	mov	r11,r17
 5084518:	aa000044 	addi	r8,r21,1
 508451c:	e0800204 	addi	r2,fp,8
 5084520:	1ac7883a 	add	r3,r3,r11
 5084524:	e1c00015 	stw	r7,0(fp)
 5084528:	e2c00115 	stw	r11,4(fp)
 508452c:	d8c01c15 	stw	r3,112(sp)
 5084530:	da001b15 	stw	r8,108(sp)
 5084534:	41000208 	cmpgei	r4,r8,8
 5084538:	203f0a1e 	bne	r4,zero,5084164 <___svfprintf_internal_r+0x1610>
 508453c:	42000044 	addi	r8,r8,1
 5084540:	15800204 	addi	r22,r2,8
 5084544:	1039883a 	mov	fp,r2
 5084548:	003d5a06 	br	5083ab4 <___svfprintf_internal_r+0xf60>
 508454c:	04414274 	movhi	r17,1289
 5084550:	8c580b04 	addi	r17,r17,24620
 5084554:	003afc06 	br	5083148 <___svfprintf_internal_r+0x5f4>
 5084558:	d8801804 	addi	r2,sp,96
 508455c:	d8800315 	stw	r2,12(sp)
 5084560:	d9400917 	ldw	r5,36(sp)
 5084564:	d8801504 	addi	r2,sp,84
 5084568:	d8800215 	stw	r2,8(sp)
 508456c:	d8801404 	addi	r2,sp,80
 5084570:	da000015 	stw	r8,0(sp)
 5084574:	d8800115 	stw	r2,4(sp)
 5084578:	01c000c4 	movi	r7,3
 508457c:	a00d883a 	mov	r6,r20
 5084580:	9809883a 	mov	r4,r19
 5084584:	db000815 	stw	r12,32(sp)
 5084588:	da000715 	stw	r8,28(sp)
 508458c:	50872900 	call	5087290 <_dtoa_r>
 5084590:	da000717 	ldw	r8,28(sp)
 5084594:	1023883a 	mov	r17,r2
 5084598:	db000817 	ldw	r12,32(sp)
 508459c:	1207883a 	add	r3,r2,r8
 50845a0:	88800007 	ldb	r2,0(r17)
 50845a4:	10800c20 	cmpeqi	r2,r2,48
 50845a8:	1001321e 	bne	r2,zero,5084a74 <___svfprintf_internal_r+0x1f20>
 50845ac:	d8801417 	ldw	r2,80(sp)
 50845b0:	1893883a 	add	r9,r3,r2
 50845b4:	d9000917 	ldw	r4,36(sp)
 50845b8:	000d883a 	mov	r6,zero
 50845bc:	000f883a 	mov	r7,zero
 50845c0:	a00b883a 	mov	r5,r20
 50845c4:	da401115 	stw	r9,68(sp)
 50845c8:	da000815 	stw	r8,32(sp)
 50845cc:	db000715 	stw	r12,28(sp)
 50845d0:	509164c0 	call	509164c <__eqdf2>
 50845d4:	db000717 	ldw	r12,28(sp)
 50845d8:	da000817 	ldw	r8,32(sp)
 50845dc:	da401117 	ldw	r9,68(sp)
 50845e0:	10009826 	beq	r2,zero,5084844 <___svfprintf_internal_r+0x1cf0>
 50845e4:	d8801817 	ldw	r2,96(sp)
 50845e8:	1240062e 	bgeu	r2,r9,5084604 <___svfprintf_internal_r+0x1ab0>
 50845ec:	01000c04 	movi	r4,48
 50845f0:	10c00044 	addi	r3,r2,1
 50845f4:	d8c01815 	stw	r3,96(sp)
 50845f8:	11000005 	stb	r4,0(r2)
 50845fc:	d8801817 	ldw	r2,96(sp)
 5084600:	127ffb36 	bltu	r2,r9,50845f0 <___svfprintf_internal_r+0x1a9c>
 5084604:	d8c01417 	ldw	r3,80(sp)
 5084608:	1445c83a 	sub	r2,r2,r17
 508460c:	ad4011d8 	cmpnei	r21,r21,71
 5084610:	d8c00715 	stw	r3,28(sp)
 5084614:	d8800815 	stw	r2,32(sp)
 5084618:	a83f5026 	beq	r21,zero,508435c <___svfprintf_internal_r+0x1808>
 508461c:	d8800f17 	ldw	r2,60(sp)
 5084620:	10002026 	beq	r2,zero,50846a4 <___svfprintf_internal_r+0x1b50>
 5084624:	d8c00717 	ldw	r3,28(sp)
 5084628:	6080004c 	andi	r2,r12,1
 508462c:	1204b03a 	or	r2,r2,r8
 5084630:	00c0c10e 	bge	zero,r3,5084938 <___svfprintf_internal_r+0x1de4>
 5084634:	10013f1e 	bne	r2,zero,5084b34 <___svfprintf_internal_r+0x1fe0>
 5084638:	dd400717 	ldw	r21,28(sp)
 508463c:	a829883a 	mov	r20,r21
 5084640:	003f5406 	br	5084394 <___svfprintf_internal_r+0x1840>
 5084644:	d8800617 	ldw	r2,24(sp)
 5084648:	002b883a 	mov	r21,zero
 508464c:	d8c00615 	stw	r3,24(sp)
 5084650:	15000017 	ldw	r20,0(r2)
 5084654:	00800044 	movi	r2,1
 5084658:	003a6006 	br	5082fdc <___svfprintf_internal_r+0x488>
 508465c:	d8800617 	ldw	r2,24(sp)
 5084660:	002b883a 	mov	r21,zero
 5084664:	d8c00615 	stw	r3,24(sp)
 5084668:	15000017 	ldw	r20,0(r2)
 508466c:	003bd606 	br	50835c8 <___svfprintf_internal_r+0xa74>
 5084670:	d8800617 	ldw	r2,24(sp)
 5084674:	002b883a 	mov	r21,zero
 5084678:	d8c00615 	stw	r3,24(sp)
 508467c:	15000017 	ldw	r20,0(r2)
 5084680:	0005883a 	mov	r2,zero
 5084684:	003a5506 	br	5082fdc <___svfprintf_internal_r+0x488>
 5084688:	d8800617 	ldw	r2,24(sp)
 508468c:	d8c00615 	stw	r3,24(sp)
 5084690:	15000017 	ldw	r20,0(r2)
 5084694:	a02bd7fa 	srai	r21,r20,31
 5084698:	a805883a 	mov	r2,r21
 508469c:	003b0506 	br	50832b4 <___svfprintf_internal_r+0x760>
 50846a0:	e73fff84 	addi	fp,fp,-2
 50846a4:	d8800717 	ldw	r2,28(sp)
 50846a8:	df001645 	stb	fp,89(sp)
 50846ac:	157fffc4 	addi	r21,r2,-1
 50846b0:	dd401415 	stw	r21,80(sp)
 50846b4:	a8008316 	blt	r21,zero,50848c4 <___svfprintf_internal_r+0x1d70>
 50846b8:	00800ac4 	movi	r2,43
 50846bc:	d8801685 	stb	r2,90(sp)
 50846c0:	a8800290 	cmplti	r2,r21,10
 50846c4:	1000fb1e 	bne	r2,zero,5084ab4 <___svfprintf_internal_r+0x1f60>
 50846c8:	d98019c4 	addi	r6,sp,103
 50846cc:	9029883a 	mov	r20,r18
 50846d0:	dc400715 	stw	r17,28(sp)
 50846d4:	8025883a 	mov	r18,r16
 50846d8:	db000f15 	stw	r12,60(sp)
 50846dc:	3021883a 	mov	r16,r6
 50846e0:	a809883a 	mov	r4,r21
 50846e4:	01400284 	movi	r5,10
 50846e8:	508278c0 	call	508278c <__modsi3>
 50846ec:	10800c04 	addi	r2,r2,48
 50846f0:	a809883a 	mov	r4,r21
 50846f4:	80bfffc5 	stb	r2,-1(r16)
 50846f8:	01400284 	movi	r5,10
 50846fc:	508270c0 	call	508270c <__divsi3>
 5084700:	a9001908 	cmpgei	r4,r21,100
 5084704:	8023883a 	mov	r17,r16
 5084708:	102b883a 	mov	r21,r2
 508470c:	843fffc4 	addi	r16,r16,-1
 5084710:	203ff31e 	bne	r4,zero,50846e0 <___svfprintf_internal_r+0x1b8c>
 5084714:	800d883a 	mov	r6,r16
 5084718:	11000c04 	addi	r4,r2,48
 508471c:	9021883a 	mov	r16,r18
 5084720:	a025883a 	mov	r18,r20
 5084724:	8829883a 	mov	r20,r17
 5084728:	a0bfff84 	addi	r2,r20,-2
 508472c:	313fffc5 	stb	r4,-1(r6)
 5084730:	d8c019c4 	addi	r3,sp,103
 5084734:	db000f17 	ldw	r12,60(sp)
 5084738:	dc400717 	ldw	r17,28(sp)
 508473c:	10c11d2e 	bgeu	r2,r3,5084bb4 <___svfprintf_internal_r+0x2060>
 5084740:	d8c016c4 	addi	r3,sp,91
 5084744:	00000106 	br	508474c <___svfprintf_internal_r+0x1bf8>
 5084748:	11000003 	ldbu	r4,0(r2)
 508474c:	19000005 	stb	r4,0(r3)
 5084750:	10800044 	addi	r2,r2,1
 5084754:	d90019c4 	addi	r4,sp,103
 5084758:	18c00044 	addi	r3,r3,1
 508475c:	113ffa1e 	bne	r2,r4,5084748 <___svfprintf_internal_r+0x1bf4>
 5084760:	d8801a44 	addi	r2,sp,105
 5084764:	d8c016c4 	addi	r3,sp,91
 5084768:	1505c83a 	sub	r2,r2,r20
 508476c:	1885883a 	add	r2,r3,r2
 5084770:	d8c01644 	addi	r3,sp,89
 5084774:	10c5c83a 	sub	r2,r2,r3
 5084778:	d8801015 	stw	r2,64(sp)
 508477c:	d8c00817 	ldw	r3,32(sp)
 5084780:	d9001017 	ldw	r4,64(sp)
 5084784:	18800088 	cmpgei	r2,r3,2
 5084788:	192b883a 	add	r21,r3,r4
 508478c:	1000da26 	beq	r2,zero,5084af8 <___svfprintf_internal_r+0x1fa4>
 5084790:	d8800c17 	ldw	r2,48(sp)
 5084794:	a8ab883a 	add	r21,r21,r2
 5084798:	a829883a 	mov	r20,r21
 508479c:	a800010e 	bge	r21,zero,50847a4 <___svfprintf_internal_r+0x1c50>
 50847a0:	0029883a 	mov	r20,zero
 50847a4:	d8000715 	stw	zero,28(sp)
 50847a8:	003efa06 	br	5084394 <___svfprintf_internal_r+0x1840>
 50847ac:	800f883a 	mov	r7,r16
 50847b0:	dc000e17 	ldw	r16,56(sp)
 50847b4:	10800044 	addi	r2,r2,1
 50847b8:	1d47883a 	add	r3,r3,r21
 50847bc:	d8801b15 	stw	r2,108(sp)
 50847c0:	b1c00015 	stw	r7,0(r22)
 50847c4:	b5400115 	stw	r21,4(r22)
 50847c8:	d8c01c15 	stw	r3,112(sp)
 50847cc:	10800208 	cmpgei	r2,r2,8
 50847d0:	1000321e 	bne	r2,zero,508489c <___svfprintf_internal_r+0x1d48>
 50847d4:	b5800204 	addi	r22,r22,8
 50847d8:	003d3906 	br	5083cc0 <___svfprintf_internal_r+0x116c>
 50847dc:	00800b44 	movi	r2,45
 50847e0:	d8801345 	stb	r2,77(sp)
 50847e4:	03400b44 	movi	r13,45
 50847e8:	003a5306 	br	5083138 <___svfprintf_internal_r+0x5e4>
 50847ec:	d9801a04 	addi	r6,sp,104
 50847f0:	900b883a 	mov	r5,r18
 50847f4:	9809883a 	mov	r4,r19
 50847f8:	508c1200 	call	508c120 <__ssprint_r>
 50847fc:	1039d41e 	bne	r2,zero,5082f50 <___svfprintf_internal_r+0x3fc>
 5084800:	dd401417 	ldw	r21,80(sp)
 5084804:	d8c01c17 	ldw	r3,112(sp)
 5084808:	dd802704 	addi	r22,sp,156
 508480c:	003d3b06 	br	5083cfc <___svfprintf_internal_r+0x11a8>
 5084810:	d9801a04 	addi	r6,sp,104
 5084814:	900b883a 	mov	r5,r18
 5084818:	9809883a 	mov	r4,r19
 508481c:	508c1200 	call	508c120 <__ssprint_r>
 5084820:	1039cb1e 	bne	r2,zero,5082f50 <___svfprintf_internal_r+0x3fc>
 5084824:	d9401417 	ldw	r5,80(sp)
 5084828:	d8c01c17 	ldw	r3,112(sp)
 508482c:	dd802704 	addi	r22,sp,156
 5084830:	003e7206 	br	50841fc <___svfprintf_internal_r+0x16a8>
 5084834:	1520003c 	xorhi	r20,r2,32768
 5084838:	00800b44 	movi	r2,45
 508483c:	d8800605 	stb	r2,24(sp)
 5084840:	003ea206 	br	50842cc <___svfprintf_internal_r+0x1778>
 5084844:	4805883a 	mov	r2,r9
 5084848:	003f6e06 	br	5084604 <___svfprintf_internal_r+0x1ab0>
 508484c:	05400184 	movi	r21,6
 5084850:	003efd06 	br	5084448 <___svfprintf_internal_r+0x18f4>
 5084854:	d9401345 	stb	r5,77(sp)
 5084858:	00396d06 	br	5082e10 <___svfprintf_internal_r+0x2bc>
 508485c:	d9801a04 	addi	r6,sp,104
 5084860:	900b883a 	mov	r5,r18
 5084864:	9809883a 	mov	r4,r19
 5084868:	508c1200 	call	508c120 <__ssprint_r>
 508486c:	0039b806 	br	5082f50 <___svfprintf_internal_r+0x3fc>
 5084870:	d9801a04 	addi	r6,sp,104
 5084874:	900b883a 	mov	r5,r18
 5084878:	9809883a 	mov	r4,r19
 508487c:	508c1200 	call	508c120 <__ssprint_r>
 5084880:	1039b31e 	bne	r2,zero,5082f50 <___svfprintf_internal_r+0x3fc>
 5084884:	d9401417 	ldw	r5,80(sp)
 5084888:	d8c01c17 	ldw	r3,112(sp)
 508488c:	d8801b17 	ldw	r2,108(sp)
 5084890:	dd802704 	addi	r22,sp,156
 5084894:	283e6b0e 	bge	r5,zero,5084244 <___svfprintf_internal_r+0x16f0>
 5084898:	003efd06 	br	5084490 <___svfprintf_internal_r+0x193c>
 508489c:	d9801a04 	addi	r6,sp,104
 50848a0:	900b883a 	mov	r5,r18
 50848a4:	9809883a 	mov	r4,r19
 50848a8:	508c1200 	call	508c120 <__ssprint_r>
 50848ac:	1039a81e 	bne	r2,zero,5082f50 <___svfprintf_internal_r+0x3fc>
 50848b0:	d8c01c17 	ldw	r3,112(sp)
 50848b4:	dd802704 	addi	r22,sp,156
 50848b8:	003d0106 	br	5083cc0 <___svfprintf_internal_r+0x116c>
 50848bc:	db000417 	ldw	r12,16(sp)
 50848c0:	003a8906 	br	50832e8 <___svfprintf_internal_r+0x794>
 50848c4:	05400044 	movi	r21,1
 50848c8:	a8abc83a 	sub	r21,r21,r2
 50848cc:	00800b44 	movi	r2,45
 50848d0:	d8801685 	stb	r2,90(sp)
 50848d4:	003f7a06 	br	50846c0 <___svfprintf_internal_r+0x1b6c>
 50848d8:	d8801804 	addi	r2,sp,96
 50848dc:	d8800315 	stw	r2,12(sp)
 50848e0:	d9400917 	ldw	r5,36(sp)
 50848e4:	d8801504 	addi	r2,sp,84
 50848e8:	40c00044 	addi	r3,r8,1
 50848ec:	d8800215 	stw	r2,8(sp)
 50848f0:	d8801404 	addi	r2,sp,80
 50848f4:	d8c00015 	stw	r3,0(sp)
 50848f8:	d8800115 	stw	r2,4(sp)
 50848fc:	01c00084 	movi	r7,2
 5084900:	a00d883a 	mov	r6,r20
 5084904:	9809883a 	mov	r4,r19
 5084908:	db001115 	stw	r12,68(sp)
 508490c:	da000815 	stw	r8,32(sp)
 5084910:	d8c00715 	stw	r3,28(sp)
 5084914:	50872900 	call	5087290 <_dtoa_r>
 5084918:	d8c00717 	ldw	r3,28(sp)
 508491c:	da000817 	ldw	r8,32(sp)
 5084920:	db001117 	ldw	r12,68(sp)
 5084924:	1023883a 	mov	r17,r2
 5084928:	e08011d8 	cmpnei	r2,fp,71
 508492c:	103e8226 	beq	r2,zero,5084338 <___svfprintf_internal_r+0x17e4>
 5084930:	88d3883a 	add	r9,r17,r3
 5084934:	003f1f06 	br	50845b4 <___svfprintf_internal_r+0x1a60>
 5084938:	1000821e 	bne	r2,zero,5084b44 <___svfprintf_internal_r+0x1ff0>
 508493c:	05000044 	movi	r20,1
 5084940:	05400044 	movi	r21,1
 5084944:	003e9306 	br	5084394 <___svfprintf_internal_r+0x1840>
 5084948:	d8800e17 	ldw	r2,56(sp)
 508494c:	db401343 	ldbu	r13,77(sp)
 5084950:	0011883a 	mov	r8,zero
 5084954:	d8800615 	stw	r2,24(sp)
 5084958:	003ad306 	br	50834a8 <___svfprintf_internal_r+0x954>
 508495c:	d9801a04 	addi	r6,sp,104
 5084960:	900b883a 	mov	r5,r18
 5084964:	9809883a 	mov	r4,r19
 5084968:	508c1200 	call	508c120 <__ssprint_r>
 508496c:	1039781e 	bne	r2,zero,5082f50 <___svfprintf_internal_r+0x3fc>
 5084970:	d8c01c17 	ldw	r3,112(sp)
 5084974:	dd802704 	addi	r22,sp,156
 5084978:	a83cce0e 	bge	r21,zero,5083cb4 <___svfprintf_internal_r+0x1160>
 508497c:	003d9d06 	br	5083ff4 <___svfprintf_internal_r+0x14a0>
 5084980:	d9801a04 	addi	r6,sp,104
 5084984:	900b883a 	mov	r5,r18
 5084988:	9809883a 	mov	r4,r19
 508498c:	508c1200 	call	508c120 <__ssprint_r>
 5084990:	10396f1e 	bne	r2,zero,5082f50 <___svfprintf_internal_r+0x3fc>
 5084994:	d8801417 	ldw	r2,80(sp)
 5084998:	d9000817 	ldw	r4,32(sp)
 508499c:	d8c01c17 	ldw	r3,112(sp)
 50849a0:	dd802704 	addi	r22,sp,156
 50849a4:	2085c83a 	sub	r2,r4,r2
 50849a8:	003ce806 	br	5083d4c <___svfprintf_internal_r+0x11f8>
 50849ac:	02000184 	movi	r8,6
 50849b0:	003e4006 	br	50842b4 <___svfprintf_internal_r+0x1760>
 50849b4:	4029883a 	mov	r20,r8
 50849b8:	d8c00615 	stw	r3,24(sp)
 50849bc:	402b883a 	mov	r21,r8
 50849c0:	00391906 	br	5082e28 <___svfprintf_internal_r+0x2d4>
 50849c4:	d8800817 	ldw	r2,32(sp)
 50849c8:	d8c00c17 	ldw	r3,48(sp)
 50849cc:	10eb883a 	add	r21,r2,r3
 50849d0:	d8800717 	ldw	r2,28(sp)
 50849d4:	00800316 	blt	zero,r2,50849e4 <___svfprintf_internal_r+0x1e90>
 50849d8:	d8800717 	ldw	r2,28(sp)
 50849dc:	a8abc83a 	sub	r21,r21,r2
 50849e0:	ad400044 	addi	r21,r21,1
 50849e4:	a829883a 	mov	r20,r21
 50849e8:	a8003e16 	blt	r21,zero,5084ae4 <___svfprintf_internal_r+0x1f90>
 50849ec:	070019c4 	movi	fp,103
 50849f0:	003e6806 	br	5084394 <___svfprintf_internal_r+0x1840>
 50849f4:	d9401345 	stb	r5,77(sp)
 50849f8:	003b1b06 	br	5083668 <___svfprintf_internal_r+0xb14>
 50849fc:	d9401345 	stb	r5,77(sp)
 5084a00:	003a6e06 	br	50833bc <___svfprintf_internal_r+0x868>
 5084a04:	d9401345 	stb	r5,77(sp)
 5084a08:	003a5506 	br	5083360 <___svfprintf_internal_r+0x80c>
 5084a0c:	d9401345 	stb	r5,77(sp)
