
DE1_SoC_ADC.elf:     file format elf32-littlenios2
DE1_SoC_ADC.elf
architecture: nios2:r1, flags 0x00000112:
EXEC_P, HAS_SYMS, D_PAGED
start address 0x00040238

Program Header:
    LOAD off    0x00001000 vaddr 0x00040000 paddr 0x00040000 align 2**12
         filesz 0x00000020 memsz 0x00000020 flags r-x
    LOAD off    0x00001020 vaddr 0x00040020 paddr 0x00040020 align 2**12
         filesz 0x000102f0 memsz 0x000102f0 flags r-x
    LOAD off    0x00011310 vaddr 0x00050310 paddr 0x00051ee8 align 2**12
         filesz 0x00001bd8 memsz 0x00001bd8 flags rw-
    LOAD off    0x00013ac0 vaddr 0x00053ac0 paddr 0x00053ac0 align 2**12
         filesz 0x00000000 memsz 0x00000158 flags rw-

Sections:
Idx Name          Size      VMA       LMA       File off  Algn
  0 .entry        00000020  00040000  00040000  00001000  2**5
                  CONTENTS, ALLOC, LOAD, READONLY, CODE
  1 .exceptions   00000218  00040020  00040020  00001020  2**2
                  CONTENTS, ALLOC, LOAD, READONLY, CODE
  2 .text         0000fa48  00040238  00040238  00001238  2**2
                  CONTENTS, ALLOC, LOAD, READONLY, CODE
  3 .rodata       00000690  0004fc80  0004fc80  00010c80  2**2
                  CONTENTS, ALLOC, LOAD, READONLY, DATA
  4 .rwdata       00001bd8  00050310  00051ee8  00011310  2**2
                  CONTENTS, ALLOC, LOAD, DATA, SMALL_DATA
  5 .bss          00000158  00053ac0  00053ac0  00013ac0  2**2
                  ALLOC, SMALL_DATA
  6 .onchip_memory2 00000000  00053c18  00053c18  00012ee8  2**0
                  CONTENTS
  7 .comment      0000002d  00000000  00000000  00012ee8  2**0
                  CONTENTS, READONLY
  8 .debug_aranges 000010c0  00000000  00000000  00012f18  2**3
                  CONTENTS, READONLY, DEBUGGING, OCTETS
  9 .debug_info   0002de97  00000000  00000000  00013fd8  2**0
                  CONTENTS, READONLY, DEBUGGING, OCTETS
 10 .debug_abbrev 0000b721  00000000  00000000  00041e6f  2**0
                  CONTENTS, READONLY, DEBUGGING, OCTETS
 11 .debug_line   00016fc8  00000000  00000000  0004d590  2**0
                  CONTENTS, READONLY, DEBUGGING, OCTETS
 12 .debug_frame  00002494  00000000  00000000  00064558  2**2
                  CONTENTS, READONLY, DEBUGGING, OCTETS
 13 .debug_str    00003dda  00000000  00000000  000669ec  2**0
                  CONTENTS, READONLY, DEBUGGING, OCTETS
 14 .debug_loc    0001e497  00000000  00000000  0006a7c6  2**0
                  CONTENTS, READONLY, DEBUGGING, OCTETS
 15 .debug_alt_sim_info 00000060  00000000  00000000  00088c60  2**2
                  CONTENTS, READONLY, DEBUGGING, OCTETS
 16 .debug_ranges 00002578  00000000  00000000  00088cc0  2**3
                  CONTENTS, READONLY, DEBUGGING, OCTETS
 17 .thread_model 00000003  00000000  00000000  0008e5d4  2**0
                  CONTENTS, READONLY
 18 .cpu          0000000c  00000000  00000000  0008e5d7  2**0
                  CONTENTS, READONLY
 19 .qsys         00000001  00000000  00000000  0008e5e3  2**0
                  CONTENTS, READONLY
 20 .simulation_enabled 00000001  00000000  00000000  0008e5e4  2**0
                  CONTENTS, READONLY
 21 .sysid_hash   00000004  00000000  00000000  0008e5e5  2**0
                  CONTENTS, READONLY
 22 .sysid_base   00000004  00000000  00000000  0008e5e9  2**0
                  CONTENTS, READONLY
 23 .sysid_time   00000004  00000000  00000000  0008e5ed  2**0
                  CONTENTS, READONLY
 24 .stderr_dev   00000009  00000000  00000000  0008e5f1  2**0
                  CONTENTS, READONLY
 25 .stdin_dev    00000009  00000000  00000000  0008e5fa  2**0
                  CONTENTS, READONLY
 26 .stdout_dev   00000009  00000000  00000000  0008e603  2**0
                  CONTENTS, READONLY
 27 .sopc_system_name 0000000c  00000000  00000000  0008e60c  2**0
                  CONTENTS, READONLY
 28 .quartus_project_dir 0000000e  00000000  00000000  0008e618  2**0
                  CONTENTS, READONLY
 29 .jdi          00005262  00000000  00000000  0008e626  2**0
                  CONTENTS, READONLY
SYMBOL TABLE:
00040000 l    d  .entry	00000000 .entry
00040020 l    d  .exceptions	00000000 .exceptions
00040238 l    d  .text	00000000 .text
0004fc80 l    d  .rodata	00000000 .rodata
00050310 l    d  .rwdata	00000000 .rwdata
00053ac0 l    d  .bss	00000000 .bss
00053c18 l    d  .onchip_memory2	00000000 .onchip_memory2
00000000 l    d  .comment	00000000 .comment
00000000 l    d  .debug_aranges	00000000 .debug_aranges
00000000 l    d  .debug_info	00000000 .debug_info
00000000 l    d  .debug_abbrev	00000000 .debug_abbrev
00000000 l    d  .debug_line	00000000 .debug_line
00000000 l    d  .debug_frame	00000000 .debug_frame
00000000 l    d  .debug_str	00000000 .debug_str
00000000 l    d  .debug_loc	00000000 .debug_loc
00000000 l    d  .debug_alt_sim_info	00000000 .debug_alt_sim_info
00000000 l    d  .debug_ranges	00000000 .debug_ranges
00000000 l    df *ABS*	00000000 e:/DE1_SoC_ADC/software/DE1_SoC_ADC_bsp//obj/HAL/src/crt0.o
00040280 l       .text	00000000 alt_after_alt_main
00000000 l    df *ABS*	00000000 alt_irq_handler.c
00000000 l    df *ABS*	00000000 alt_instruction_exception_entry.c
00000000 l    df *ABS*	00000000 main.c
00000000 l    df *ABS*	00000000 floatsisf.c
00000000 l    df *ABS*	00000000 divdf3.c
00000000 l    df *ABS*	00000000 extendsfdf2.c
00000000 l    df *ABS*	00000000 libgcc2.c
00000000 l    df *ABS*	00000000 lib2-divmod.c
00000000 l    df *ABS*	00000000 libgcc2.c
00000000 l    df *ABS*	00000000 printf.c
00000000 l    df *ABS*	00000000 puts.c
00000000 l    df *ABS*	00000000 strlen.c
00000000 l    df *ABS*	00000000 vfprintf.c
00043350 l     F .text	000000c0 __sbprintf
0004fe20 l     O .rodata	00000010 blanks.1
0004fe10 l     O .rodata	00000010 zeroes.0
00000000 l    df *ABS*	00000000 wsetup.c
00000000 l    df *ABS*	00000000 dtoa.c
00043574 l     F .text	000001fc quorem
00000000 l    df *ABS*	00000000 fflush.c
00000000 l    df *ABS*	00000000 findfp.c
000451c4 l     F .text	00000008 __fp_lock
000451d8 l     F .text	00000008 __fp_unlock
000451e0 l     F .text	00000168 __sinit.part.0
00000000 l    df *ABS*	00000000 mallocr.c
00000000 l    df *ABS*	00000000 fvwrite.c
00000000 l    df *ABS*	00000000 fwalk.c
00000000 l    df *ABS*	00000000 impure.c
00050310 l     O .rwdata	00000424 impure_data
00000000 l    df *ABS*	00000000 localeconv.c
00000000 l    df *ABS*	00000000 makebuf.c
00000000 l    df *ABS*	00000000 mallocr.c
00000000 l    df *ABS*	00000000 memchr.c
00000000 l    df *ABS*	00000000 memcpy.c
00000000 l    df *ABS*	00000000 memmove.c
00000000 l    df *ABS*	00000000 memset.c
00000000 l    df *ABS*	00000000 mprec.c
0004fecc l     O .rodata	0000000c p05.0
00000000 l    df *ABS*	00000000 mallocr.c
00000000 l    df *ABS*	00000000 sbrkr.c
00000000 l    df *ABS*	00000000 stdio.c
00000000 l    df *ABS*	00000000 vfprintf.c
00048600 l     F .text	000000f4 __sprint_r.part.0
00049a5c l     F .text	000000c0 __sbprintf
00050000 l     O .rodata	00000010 blanks.1
0004fff0 l     O .rodata	00000010 zeroes.0
00000000 l    df *ABS*	00000000 writer.c
00000000 l    df *ABS*	00000000 closer.c
00000000 l    df *ABS*	00000000 assert.c
00000000 l    df *ABS*	00000000 mallocr.c
00000000 l    df *ABS*	00000000 fclose.c
00049d04 l     F .text	000000c0 _fclose_r.part.0
00000000 l    df *ABS*	00000000 fiprintf.c
00000000 l    df *ABS*	00000000 fputwc.c
00000000 l    df *ABS*	00000000 fstatr.c
00000000 l    df *ABS*	00000000 int_errno.c
00000000 l    df *ABS*	00000000 isattyr.c
00000000 l    df *ABS*	00000000 locale.c
00000000 l    df *ABS*	00000000 lseekr.c
00000000 l    df *ABS*	00000000 mbtowc_r.c
00000000 l    df *ABS*	00000000 readr.c
00000000 l    df *ABS*	00000000 strcmp.c
00000000 l    df *ABS*	00000000 vfiprintfr_1.c
00000000 l    df *ABS*	00000000 wbuf.c
00000000 l    df *ABS*	00000000 wcrtomb.c
00000000 l    df *ABS*	00000000 wctomb_r.c
00000000 l    df *ABS*	00000000 abort.c
00000000 l    df *ABS*	00000000 ctype_.c
00000000 l    df *ABS*	00000000 signal.c
00000000 l    df *ABS*	00000000 signalr.c
00000000 l    df *ABS*	00000000 libgcc2.c
00000000 l    df *ABS*	00000000 libgcc2.c
00000000 l    df *ABS*	00000000 adddf3.c
00000000 l    df *ABS*	00000000 eqdf2.c
00000000 l    df *ABS*	00000000 gedf2.c
00000000 l    df *ABS*	00000000 ledf2.c
00000000 l    df *ABS*	00000000 muldf3.c
00000000 l    df *ABS*	00000000 subdf3.c
00000000 l    df *ABS*	00000000 unorddf2.c
00000000 l    df *ABS*	00000000 fixdfsi.c
00000000 l    df *ABS*	00000000 floatsidf.c
00000000 l    df *ABS*	00000000 floatunsidf.c
00000000 l    df *ABS*	00000000 alt_close.c
0004d3bc l     F .text	0000003c alt_get_errno
00000000 l    df *ABS*	00000000 alt_dev.c
0004d4c8 l     F .text	0000002c alt_dev_null_write
00000000 l    df *ABS*	00000000 alt_errno.c
00000000 l    df *ABS*	00000000 alt_exit.c
00000000 l    df *ABS*	00000000 alt_fstat.c
0004d52c l     F .text	0000003c alt_get_errno
00000000 l    df *ABS*	00000000 alt_getpid.c
00000000 l    df *ABS*	00000000 alt_isatty.c
0004d638 l     F .text	0000003c alt_get_errno
00000000 l    df *ABS*	00000000 alt_kill.c
0004d718 l     F .text	0000003c alt_get_errno
00000000 l    df *ABS*	00000000 alt_load.c
0004d880 l     F .text	00000068 alt_load_section
00000000 l    df *ABS*	00000000 alt_lseek.c
0004d96c l     F .text	0000003c alt_get_errno
00000000 l    df *ABS*	00000000 alt_main.c
00000000 l    df *ABS*	00000000 alt_malloc_lock.c
00000000 l    df *ABS*	00000000 alt_read.c
0004db40 l     F .text	0000003c alt_get_errno
00000000 l    df *ABS*	00000000 alt_release_fd.c
00000000 l    df *ABS*	00000000 alt_sbrk.c
00051ed8 l     O .rwdata	00000004 heap_end
00000000 l    df *ABS*	00000000 alt_usleep.c
00000000 l    df *ABS*	00000000 alt_write.c
0004ddb8 l     F .text	0000003c alt_get_errno
00000000 l    df *ABS*	00000000 alt_sys_init.c
0004deec l     F .text	00000034 alt_dev_reg
00050e50 l     O .rwdata	00001060 jtag_uart
00000000 l    df *ABS*	00000000 altera_avalon_jtag_uart_fd.c
00000000 l    df *ABS*	00000000 altera_avalon_jtag_uart_init.c
0004e1cc l     F .text	0000020c altera_avalon_jtag_uart_irq
0004e3d8 l     F .text	000000a0 altera_avalon_jtag_uart_timeout
00000000 l    df *ABS*	00000000 altera_avalon_jtag_uart_ioctl.c
00000000 l    df *ABS*	00000000 altera_avalon_jtag_uart_read.c
00000000 l    df *ABS*	00000000 altera_avalon_jtag_uart_write.c
00000000 l    df *ABS*	00000000 alt_alarm_start.c
00000000 l    df *ABS*	00000000 alt_busy_sleep.c
00000000 l    df *ABS*	00000000 alt_dcache_flush_all.c
00000000 l    df *ABS*	00000000 alt_dev_llist_insert.c
0004ecf4 l     F .text	0000003c alt_get_errno
00000000 l    df *ABS*	00000000 alt_do_ctors.c
00000000 l    df *ABS*	00000000 alt_do_dtors.c
00000000 l    df *ABS*	00000000 alt_icache_flush_all.c
00000000 l    df *ABS*	00000000 alt_iic.c
00000000 l    df *ABS*	00000000 alt_iic_isr_register.c
00000000 l    df *ABS*	00000000 alt_io_redirect.c
0004f16c l     F .text	000000b0 alt_open_fd
00000000 l    df *ABS*	00000000 alt_irq_vars.c
00000000 l    df *ABS*	00000000 alt_open.c
0004f298 l     F .text	0000003c alt_get_errno
0004f2d4 l     F .text	000000b8 alt_file_locked
00000000 l    df *ABS*	00000000 alt_tick.c
00000000 l    df *ABS*	00000000 altera_nios2_gen2_irq.c
00000000 l    df *ABS*	00000000 alt_find_dev.c
00000000 l    df *ABS*	00000000 alt_find_file.c
00000000 l    df *ABS*	00000000 alt_get_fd.c
00000000 l    df *ABS*	00000000 alt_icache_flush.c
00000000 l    df *ABS*	00000000 atexit.c
00000000 l    df *ABS*	00000000 exit.c
00000000 l    df *ABS*	00000000 memcmp.c
00000000 l    df *ABS*	00000000 __atexit.c
00000000 l    df *ABS*	00000000 __call_atexit.c
00053aec g     O .bss	00000004 alt_instruction_exception_handler
00047db8 g     F .text	00000070 _mprec_log10
00047ea4 g     F .text	00000060 __any_on
0004a15c g     F .text	00000058 _isatty_r
0004fed8 g     O .rodata	00000028 __mprec_tinytens
0004da7c g     F .text	0000007c alt_main
000410cc g     F .text	000000cc _puts_r
00053b18 g     O .bss	00000100 alt_irq
0004a2a8 g     F .text	00000064 _lseek_r
00051ee8 g       *ABS*	00000000 __flash_rwdata_start
0004c028 g     F .text	00000080 .hidden __eqdf2
00053c18 g       *ABS*	00000000 __alt_heap_start
0004ac10 g     F .text	00000060 _kill_r
00041094 g     F .text	00000038 printf
0004a5dc g     F .text	0000006c _wcrtomb_r
0004a780 g     F .text	00000098 _signal_r
0004859c g     F .text	0000005c __sseek
00045518 g     F .text	00000010 __sinit
0004a47c g     F .text	00000148 __swbuf_r
0004a1b4 g     F .text	00000074 _setlocale_r
00045348 g     F .text	00000068 __sfmoreglue
0004db1c g     F .text	00000024 __malloc_unlock
00046b88 g     F .text	0000012c memmove
00045504 g     F .text	00000014 _cleanup
00046da4 g     F .text	000000a4 _Balloc
0004c0a8 g     F .text	000000e8 .hidden __gtdf2
0004f68c g     F .text	00000024 altera_nios2_gen2_irq_init
00040000 g     F .entry	0000001c __reset
00045f70 g     F .text	00000008 __localeconv_l
00040020 g       *ABS*	00000000 __flash_exceptions_start
0004a0fc g     F .text	00000060 _fstat_r
00053acc g     O .bss	00000004 errno
00048514 g     F .text	00000008 __seofread
00053ad8 g     O .bss	00000004 alt_argv
00059eb0 g       *ABS*	00000000 _gp
0004dd88 g     F .text	00000030 usleep
0004d618 g     F .text	00000020 getpid
00050cd0 g     O .rwdata	00000180 alt_fd_list
0004f6b0 g     F .text	00000090 alt_find_dev
00046a88 g     F .text	00000100 memcpy
000451cc g     F .text	0000000c _cleanup_r
0004d274 g     F .text	000000b8 .hidden __floatsidf
0004f21c g     F .text	0000007c alt_io_redirect
0004c190 g     F .text	000000e8 .hidden __ltdf2
0004fc80 g       *ABS*	00000000 __DTOR_END__
00041198 g     F .text	00000010 puts
0004f978 g     F .text	00000098 alt_exception_cause_generated_bad_addr
00047d10 g     F .text	000000a8 __ratio
00049a40 g     F .text	0000001c __vfiprintf_internal
0004e5d4 g     F .text	00000220 altera_avalon_jtag_uart_read
00041064 g     F .text	00000030 _printf_r
00040fa4 g     F .text	00000064 .hidden __udivsi3
0004d674 g     F .text	000000a4 isatty
0004a818 g     F .text	000000c4 _raise_r
00049bd8 g     F .text	00000064 __assert_func
0004ff28 g     O .rodata	000000c8 __mprec_tens
0004f8e8 g     F .text	00000090 alt_icache_flush
00053ac8 g     O .bss	00000004 __malloc_top_pad
0004ac70 g     F .text	00000004 _getpid_r
00045f78 g     F .text	0000000c _localeconv_r
000471f0 g     F .text	000000b0 __i2b
00045978 g     F .text	000004b8 __sfvwrite_r
0004a8dc g     F .text	000000bc __sigtramp_r
00048468 g     F .text	00000058 _sbrk_r
0004a35c g     F .text	00000064 _read_r
00051ed0 g     O .rwdata	00000004 alt_max_fd
00049dc4 g     F .text	00000070 _fclose_r
00045140 g     F .text	00000084 fflush
00053ac4 g     O .bss	00000004 __malloc_max_sbrked_mem
00040d60 g     F .text	000000fc .hidden __extendsfdf2
0004b738 g     F .text	000008f0 .hidden __adddf3
00047aa4 g     F .text	00000108 __b2d
0004b204 g     F .text	00000534 .hidden __umoddi3
0004d9a8 g     F .text	000000d4 lseek
00051eb0 g     O .rwdata	00000004 _global_impure_ptr
00047f04 g     F .text	00000564 _realloc_r
00053c18 g       *ABS*	00000000 __bss_end
0004f084 g     F .text	000000e8 alt_iic_isr_register
0004f584 g     F .text	00000108 alt_tick
0004ac74 g     F .text	00000590 .hidden __udivdi3
0004a060 g     F .text	00000024 _fputwc_r
0004ff00 g     O .rodata	00000028 __mprec_bigtens
00046fa4 g     F .text	00000138 __s2b
0004a70c g     F .text	00000018 abort
0004d32c g     F .text	00000090 .hidden __floatunsidf
000477c4 g     F .text	00000058 __mcmp
00045538 g     F .text	00000014 __fp_lock_all
0004f038 g     F .text	0000004c alt_ic_irq_enabled
0004f4e0 g     F .text	000000a4 alt_alarm_stop
00053ae0 g     O .bss	00000004 alt_irq_active
000400fc g     F .exceptions	000000c8 alt_irq_handler
00050ca8 g     O .rwdata	00000028 alt_dev_null
0004eca8 g     F .text	0000004c alt_dcache_flush_all
000470dc g     F .text	00000064 __hi0bits
0004d1f4 g     F .text	00000080 .hidden __fixdfsi
00051ee8 g       *ABS*	00000000 __ram_rwdata_end
00051ec8 g     O .rwdata	00000008 alt_dev_list
0004ddf4 g     F .text	000000f8 write
00050310 g       *ABS*	00000000 __ram_rodata_end
0004d568 g     F .text	000000b0 fstat
0004d754 g     F .text	0000012c kill
0004c190 g     F .text	000000e8 .hidden __ledf2
000474f4 g     F .text	00000148 __pow5mult
0004870c g     F .text	00001334 ___vfiprintf_internal_r
00041008 g     F .text	0000005c .hidden __umodsi3
00053c18 g       *ABS*	00000000 end
0004e10c g     F .text	000000c0 altera_avalon_jtag_uart_init
000401c4 g     F .exceptions	00000074 alt_instruction_exception_entry
0004fc80 g       *ABS*	00000000 __CTOR_LIST__
00067100 g       *ABS*	00000000 __alt_stack_pointer
00040e5c g     F .text	00000054 .hidden __clzsi2
0004e7f4 g     F .text	00000228 altera_avalon_jtag_uart_write
00045528 g     F .text	00000004 __sfp_lock_acquire
000469b8 g     F .text	000000d0 memchr
00041240 g     F .text	000020f4 ___vfprintf_internal_r
0004567c g     F .text	000002fc _free_r
00050164 g     O .rodata	00000180 _ctype_b
0004a228 g     F .text	0000000c __locale_mb_cur_max
0004fb60 g     F .text	00000120 __call_exitprocs
00051eb8 g     O .rwdata	00000004 __malloc_sbrk_base
00040238 g     F .text	0000004c _start
00053ae4 g     O .bss	00000004 _alt_tick_rate
0004763c g     F .text	00000188 __lshift
00053ae8 g     O .bss	00000004 _alt_nticks
0004aa54 g     F .text	000000a0 signal
0004db7c g     F .text	000000fc read
0004df5c g     F .text	0000004c alt_sys_init
000403e0 g     F .text	00000124 .hidden __floatsisf
0004fad0 g     F .text	00000090 __register_exitproc
000472a0 g     F .text	00000254 __multiply
0004e478 g     F .text	00000068 altera_avalon_jtag_uart_close
00050310 g       *ABS*	00000000 __ram_rwdata_start
0004fc80 g       *ABS*	00000000 __ram_rodata_start
00053af0 g     O .bss	00000028 __malloc_current_mallinfo
00047bac g     F .text	00000164 __d2b
0004dfa8 g     F .text	00000060 altera_avalon_jtag_uart_read_fd
0004f848 g     F .text	000000a0 alt_get_fd
0004eb50 g     F .text	00000158 alt_busy_sleep
00049b80 g     F .text	00000058 _close_r
0004fa58 g     F .text	00000078 memcmp
0004e068 g     F .text	00000050 altera_avalon_jtag_uart_close_fd
00053c18 g       *ABS*	00000000 __alt_stack_base
0004e0b8 g     F .text	00000054 altera_avalon_jtag_uart_ioctl_fd
00043410 g     F .text	00000164 __swsetup_r
00040504 g     F .text	0000085c .hidden __divdf3
000453b0 g     F .text	00000154 __sfp
00047e28 g     F .text	0000007c __copybits
00050734 g     O .rwdata	00000408 __malloc_av_
00045534 g     F .text	00000004 __sinit_lock_release
0004c278 g     F .text	00000674 .hidden __muldf3
000484c0 g     F .text	00000054 __sread
0004f740 g     F .text	00000108 alt_find_file
0004ed30 g     F .text	000000a8 alt_dev_llist_insert
0004daf8 g     F .text	00000024 __malloc_lock
0004dcd0 g     F .text	000000b8 sbrk
000450e0 g     F .text	00000060 _fflush_r
00049c50 g     F .text	000000b4 _calloc_r
00053ac0 g       *ABS*	00000000 __bss_start
00046cb4 g     F .text	000000f0 memset
00040284 g     F .text	0000015c main
00053adc g     O .bss	00000004 alt_envp
00053ac0 g     O .bss	00000004 __malloc_max_total_mem
0004e008 g     F .text	00000060 altera_avalon_jtag_uart_write_fd
0004a5c4 g     F .text	00000018 __swbuf
000485f8 g     F .text	00000008 __sclose
00067100 g       *ABS*	00000000 __alt_heap_limit
00049e34 g     F .text	00000070 fclose
00043770 g     F .text	00001748 _dtoa_r
000461d8 g     F .text	000007e0 _malloc_r
0004a6dc g     F .text	00000030 __ascii_wctomb
00051ed4 g     O .rwdata	00000004 alt_errno
00049ea4 g     F .text	00000020 _fiprintf_r
0004aaf4 g     F .text	00000060 _init_signal
00045e30 g     F .text	00000098 _fwalk
0004a30c g     F .text	0000000c _mbtowc_r
00040eb0 g     F .text	00000080 .hidden __divsi3
00045560 g     F .text	0000011c _malloc_trim_r
0004fc80 g       *ABS*	00000000 __CTOR_END__
0004a3c0 g     F .text	000000b8 strcmp
0004fc80 g       *ABS*	00000000 __flash_rodata_start
0004fc80 g       *ABS*	00000000 __DTOR_LIST__
0004c028 g     F .text	00000080 .hidden __nedf2
0004df20 g     F .text	0000003c alt_irq_init
0004dc78 g     F .text	00000058 alt_release_fd
0004fcc8 g     O .rodata	00000100 .hidden __clz_tab
00053ad0 g     O .bss	00000004 _PathLocale
0004fa10 g     F .text	00000014 atexit
00049b1c g     F .text	00000064 _write_r
0004a234 g     F .text	00000074 setlocale
00051eb4 g     O .rwdata	00000004 _impure_ptr
00053ad4 g     O .bss	00000004 alt_argc
00044eb8 g     F .text	00000228 __sflush_r
0004ee3c g     F .text	00000064 _do_dtors
00040020 g       .exceptions	00000000 alt_irq_entry
0004a318 g     F .text	00000044 __ascii_mbtowc
00047a48 g     F .text	0000005c __ulp
0004554c g     F .text	00000014 __fp_unlock_all
00051ec0 g     O .rwdata	00000008 alt_fs_list
00040020 g       *ABS*	00000000 __ram_exceptions_start
00045f84 g     F .text	0000000c localeconv
00040000 g       *ABS*	00000000 __alt_mem_onchip_memory2
00046140 g     F .text	00000098 __swhatbuf_r
0004eed4 g     F .text	00000050 alt_ic_isr_register
00051ee8 g       *ABS*	00000000 _edata
00053c18 g       *ABS*	00000000 _end
00049efc g     F .text	00000164 __fputwc
00040238 g       *ABS*	00000000 __ram_exceptions_end
0004e4e0 g     F .text	000000f4 altera_avalon_jtag_uart_ioctl
0004efac g     F .text	0000008c alt_ic_irq_disable
0004851c g     F .text	00000080 __swrite
00051ebc g     O .rwdata	00000004 __malloc_trim_threshold
0004fa24 g     F .text	00000034 exit
00049ec4 g     F .text	00000038 fiprintf
0004a478 g     F .text	00000004 _vfiprintf_r
00045ec8 g     F .text	000000a8 _fwalk_reent
0004781c g     F .text	0000022c __mdiff
00040f30 g     F .text	00000074 .hidden __modsi3
00067100 g       *ABS*	00000000 __alt_data_end
00040020 g     F .exceptions	00000000 alt_exception
0004552c g     F .text	00000004 __sfp_lock_release
00050060 g     O .rodata	00000101 _ctype_
0004d1a0 g     F .text	00000054 .hidden __unorddf2
0004d4f4 g     F .text	00000038 _exit
0004ea1c g     F .text	00000134 alt_alarm_start
00045f90 g     F .text	000001b0 __smakebuf_r
000411a8 g     F .text	00000098 strlen
0004a724 g     F .text	0000005c _init_signal_r
0004f38c g     F .text	00000154 open
0004c0a8 g     F .text	000000e8 .hidden __gedf2
00049c3c g     F .text	00000014 __assert
000486f4 g     F .text	00000018 __sprint_r
0004eea0 g     F .text	00000034 alt_icache_flush_all
00051edc g     O .rwdata	00000004 alt_priority_mask
0004ef24 g     F .text	00000088 alt_ic_irq_enable
00043334 g     F .text	0000001c __vfprintf_internal
0004a6d0 g     F .text	0000000c _wctomb_r
0004c8ec g     F .text	000008b4 .hidden __subdf3
00047140 g     F .text	000000b0 __lo0bits
00051ee0 g     O .rwdata	00000008 alt_alarm_list
0004edd8 g     F .text	00000064 _do_ctors
0004ab54 g     F .text	000000bc __sigtramp
0004a648 g     F .text	00000088 wcrtomb
0004d3f8 g     F .text	000000d0 close
00050b3c g     O .rwdata	0000016c __global_locale
0004d8e8 g     F .text	00000084 alt_load
0004a084 g     F .text	00000078 fputwc
0004a998 g     F .text	000000bc raise
00045530 g     F .text	00000004 __sinit_lock_acquire
00046e6c g     F .text	00000138 __multadd
00046e48 g     F .text	00000024 _Bfree



Disassembly of section .entry:

00040000 <__reset>:
#if NIOS2_ICACHE_SIZE > 0 && defined(ALT_ALLOW_CODE_AT_RESET) && (!defined(ALT_SIM_OPTIMIZE) || defined(NIOS2_ECC_PRESENT))
    /* Assume the instruction cache size is always a power of two. */
#if NIOS2_ICACHE_SIZE > 0x8000
    movhi r2, %hi(NIOS2_ICACHE_SIZE)
#else
    movui r2, NIOS2_ICACHE_SIZE
   40000:	00840014 	movui	r2,4096
#endif

0:
    initi r2
   40004:	1001483a 	initi	r2
    addi r2, r2, -NIOS2_ICACHE_LINE_SIZE
   40008:	10bff804 	addi	r2,r2,-32
    bgt r2, zero, 0b
   4000c:	00bffd16 	blt	zero,r2,40004 <__reset+0x4>
 * Jump to the _start entry point in the .text section if reset code
 * is allowed or if optimizing for RTL simulation.
 */
#if defined(ALT_ALLOW_CODE_AT_RESET) || defined(ALT_SIM_OPTIMIZE)
    /* Jump to the _start entry point in the .text section. */
    movhi r1, %hi(_start)
   40010:	00400134 	movhi	at,4
    ori r1, r1, %lo(_start)
   40014:	08408e14 	ori	at,at,568
    jmp r1
   40018:	0800683a 	jmp	at
   4001c:	00000000 	call	0 <__reset-0x40000>

Disassembly of section .exceptions:

00040020 <alt_exception>:

#else /* ALT_EXCEPTION_STACK disabled */
        /* 
         * Reserve space on normal stack for registers about to be pushed.
         */
        addi  sp, sp, -76
   40020:	deffed04 	addi	sp,sp,-76
         * documentation for details).
         *
         * Leave a gap in the stack frame at 4(sp) for the muldiv handler to
         * store zero into.
         */
        stw   ra,  0(sp)
   40024:	dfc00015 	stw	ra,0(sp)
        stw   r1,   8(sp)
   40028:	d8400215 	stw	at,8(sp)
        stw   r2,  12(sp)
   4002c:	d8800315 	stw	r2,12(sp)
        stw   r3,  16(sp)
   40030:	d8c00415 	stw	r3,16(sp)
        stw   r4,  20(sp)
   40034:	d9000515 	stw	r4,20(sp)
        stw   r5,  24(sp)
   40038:	d9400615 	stw	r5,24(sp)
        stw   r6,  28(sp)
   4003c:	d9800715 	stw	r6,28(sp)
        stw   r7,  32(sp)
   40040:	d9c00815 	stw	r7,32(sp)
        rdctl r5, estatus   /* Read early to avoid usage stall */
   40044:	000b307a 	rdctl	r5,estatus
        stw   r8,  36(sp)
   40048:	da000915 	stw	r8,36(sp)
        stw   r9,  40(sp)
   4004c:	da400a15 	stw	r9,40(sp)
        stw   r10, 44(sp)
   40050:	da800b15 	stw	r10,44(sp)
        stw   r11, 48(sp)
   40054:	dac00c15 	stw	r11,48(sp)
        stw   r12, 52(sp)
   40058:	db000d15 	stw	r12,52(sp)
        stw   r13, 56(sp)
   4005c:	db400e15 	stw	r13,56(sp)
        stw   r14, 60(sp)
   40060:	db800f15 	stw	r14,60(sp)
        stw   r15, 64(sp)
   40064:	dbc01015 	stw	r15,64(sp)
        /*
         * ea-4 contains the address of the instruction being executed
         * when the exception occured. For interrupt exceptions, we will
         * will be re-issue the isntruction. Store it in 72(sp)
         */
        stw   r5,  68(sp)  /* estatus */
   40068:	d9401115 	stw	r5,68(sp)
        addi  r15, ea, -4  /* instruction that caused exception */
   4006c:	ebffff04 	addi	r15,ea,-4
        stw   r15,  72(sp)
   40070:	dbc01215 	stw	r15,72(sp)
#else
        /*
         * Test to see if the exception was a software exception or caused 
         * by an external interrupt, and vector accordingly.
         */
        rdctl r4, ipending
   40074:	0009313a 	rdctl	r4,ipending
        andi  r2, r5, 1
   40078:	2880004c 	andi	r2,r5,1
        beq   r2, zero, .Lnot_irq
   4007c:	10000326 	beq	r2,zero,4008c <alt_exception+0x6c>
        beq   r4, zero, .Lnot_irq
   40080:	20000226 	beq	r4,zero,4008c <alt_exception+0x6c>
        /*
         * Now that all necessary registers have been preserved, call 
         * alt_irq_handler() to process the interrupts.
         */

        call alt_irq_handler
   40084:	00400fc0 	call	400fc <alt_irq_handler>

        .section .exceptions.irqreturn, "xa"

        br    .Lexception_exit
   40088:	00000706 	br	400a8 <alt_exception+0x88>
         * upon completion, so we write ea (address of instruction *after*
         * the one where the exception occured) into 72(sp). The actual
         * instruction that caused the exception is written in r2, which these
         * handlers will utilize.
         */
        stw ea, 72(sp) /* EA is PC+4 so will skip over instruction causing exception */
   4008c:	df401215 	stw	ea,72(sp)
.Lunknown_16bit:
        addi.n r4, r4, 2 /* Need PC+2 to skip over instruction causing exception */
        stw r4, 72(sp)

#else /* CDX is not Enabled and all instructions are 32bits */
        ldw r2, -4(ea) /* Instruction value that caused exception */
   40090:	e8bfff17 	ldw	r2,-4(ea)
         * debugger is present) or go into an infinite loop since the
         * handling behavior is undefined; in that case we will not return here.
         */

        /* Load exception-causing address as first argument (r4) */
        addi   r4, ea, -4
   40094:	e93fff04 	addi	r4,ea,-4

        /* Call the instruction-exception entry */
        call   alt_instruction_exception_entry
   40098:	00401c40 	call	401c4 <alt_instruction_exception_entry>
         * instruction
         *
         * Return code was 0: Skip. The instruction after the exception is
         * already stored in 72(sp).
         */
        bne   r2, r0, .Lexception_exit
   4009c:	1000021e 	bne	r2,zero,400a8 <alt_exception+0x88>

        /*
         * Otherwise, modify 72(sp) to re-issue the instruction that caused the
         * exception.
         */
        addi  r15, ea, -4  /* instruction that caused exception */
   400a0:	ebffff04 	addi	r15,ea,-4
        stw   r15,  72(sp)
   400a4:	dbc01215 	stw	r15,72(sp)
        /* 
         * Restore the saved registers, so that all general purpose registers 
         * have been restored to their state at the time the interrupt occured.
         */

        ldw   r5,  68(sp)
   400a8:	d9401117 	ldw	r5,68(sp)
        ldw   ea,  72(sp)  /* This becomes the PC once eret is executed */
   400ac:	df401217 	ldw	ea,72(sp)
        ldw   ra,   0(sp)
   400b0:	dfc00017 	ldw	ra,0(sp)

        wrctl estatus, r5
   400b4:	2801707a 	wrctl	estatus,r5

        ldw   r1,   8(sp)
   400b8:	d8400217 	ldw	at,8(sp)
        ldw   r2,  12(sp)
   400bc:	d8800317 	ldw	r2,12(sp)
        ldw   r3,  16(sp)
   400c0:	d8c00417 	ldw	r3,16(sp)
        ldw   r4,  20(sp)
   400c4:	d9000517 	ldw	r4,20(sp)
        ldw   r5,  24(sp)
   400c8:	d9400617 	ldw	r5,24(sp)
        ldw   r6,  28(sp)
   400cc:	d9800717 	ldw	r6,28(sp)
        ldw   r7,  32(sp)
   400d0:	d9c00817 	ldw	r7,32(sp)

#if defined(ALT_EXCEPTION_STACK) && defined(ALT_STACK_CHECK)
        ldw   et, %gprel(alt_exception_old_stack_limit)(gp)
#endif

        ldw   r8,  36(sp)
   400d4:	da000917 	ldw	r8,36(sp)
        ldw   r9,  40(sp)
   400d8:	da400a17 	ldw	r9,40(sp)
        ldw   r10, 44(sp)
   400dc:	da800b17 	ldw	r10,44(sp)
        ldw   r11, 48(sp)
   400e0:	dac00c17 	ldw	r11,48(sp)
        ldw   r12, 52(sp)
   400e4:	db000d17 	ldw	r12,52(sp)
        ldw   r13, 56(sp)
   400e8:	db400e17 	ldw	r13,56(sp)
        ldw   r14, 60(sp)
   400ec:	db800f17 	ldw	r14,60(sp)
        ldw   r15, 64(sp)
   400f0:	dbc01017 	ldw	r15,64(sp)
        stw   et, %gprel(alt_stack_limit_value)(gp)
        stw   zero, %gprel(alt_exception_old_stack_limit)(gp)
#endif /* ALT_STACK_CHECK */
        ldw   sp,  76(sp)
#else /* ALT_EXCEPTION_STACK disabled */
        addi  sp, sp, 76
   400f4:	dec01304 	addi	sp,sp,76

        /*
         * Return to the interrupted instruction.
         */

        eret
   400f8:	ef80083a 	eret

000400fc <alt_irq_handler>:
 * instruction is present if the macro ALT_CI_INTERRUPT_VECTOR defined.
 */

void alt_irq_handler (void) __attribute__ ((section (".exceptions")));
void alt_irq_handler (void)
{
   400fc:	defff904 	addi	sp,sp,-28
   40100:	dfc00615 	stw	ra,24(sp)
   40104:	df000515 	stw	fp,20(sp)
   40108:	df000504 	addi	fp,sp,20
  
  /*
   * Notify the operating system that we are at interrupt level.
   */ 
  
  ALT_OS_INT_ENTER();
   4010c:	0001883a 	nop
#ifndef NIOS2_EIC_PRESENT
static ALT_INLINE alt_u32 ALT_ALWAYS_INLINE alt_irq_pending (void)
{
  alt_u32 active;

  NIOS2_READ_IPENDING (active);
   40110:	0005313a 	rdctl	r2,ipending
   40114:	e0bffc15 	stw	r2,-16(fp)

  return active;
   40118:	e0bffc17 	ldw	r2,-16(fp)
   * Consider the case where the high priority interupt is asserted during
   * the interrupt entry sequence for a lower priority interrupt to see why
   * this is the case.
   */

  active = alt_irq_pending ();
   4011c:	e0bfff15 	stw	r2,-4(fp)

  do
  {
    i = 0;
   40120:	e03ffd15 	stw	zero,-12(fp)
    mask = 1;
   40124:	00800044 	movi	r2,1
   40128:	e0bffe15 	stw	r2,-8(fp)
     * called to clear the interrupt condition.
     */

    do
    {
      if (active & mask)
   4012c:	e0ffff17 	ldw	r3,-4(fp)
   40130:	e0bffe17 	ldw	r2,-8(fp)
   40134:	1884703a 	and	r2,r3,r2
   40138:	10001126 	beq	r2,zero,40180 <alt_irq_handler+0x84>
      { 
#ifdef ALT_ENHANCED_INTERRUPT_API_PRESENT
        alt_irq[i].handler(alt_irq[i].context); 
   4013c:	e0bffd17 	ldw	r2,-12(fp)
   40140:	100690fa 	slli	r3,r2,3
   40144:	00800174 	movhi	r2,5
   40148:	1885883a 	add	r2,r3,r2
   4014c:	10cec617 	ldw	r3,15128(r2)
   40150:	e0bffd17 	ldw	r2,-12(fp)
   40154:	100890fa 	slli	r4,r2,3
   40158:	00800174 	movhi	r2,5
   4015c:	2085883a 	add	r2,r4,r2
   40160:	108ec717 	ldw	r2,15132(r2)
   40164:	1009883a 	mov	r4,r2
   40168:	183ee83a 	callr	r3
#else
        alt_irq[i].handler(alt_irq[i].context, i); 
#endif
        break;
   4016c:	0001883a 	nop
  NIOS2_READ_IPENDING (active);
   40170:	0005313a 	rdctl	r2,ipending
   40174:	e0bffb15 	stw	r2,-20(fp)
  return active;
   40178:	e0bffb17 	ldw	r2,-20(fp)
   4017c:	00000706 	br	4019c <alt_irq_handler+0xa0>
      }
      mask <<= 1;
   40180:	e0bffe17 	ldw	r2,-8(fp)
   40184:	1085883a 	add	r2,r2,r2
   40188:	e0bffe15 	stw	r2,-8(fp)
      i++;
   4018c:	e0bffd17 	ldw	r2,-12(fp)
   40190:	10800044 	addi	r2,r2,1
   40194:	e0bffd15 	stw	r2,-12(fp)
      if (active & mask)
   40198:	003fe406 	br	4012c <alt_irq_handler+0x30>

    } while (1);

    active = alt_irq_pending ();
   4019c:	e0bfff15 	stw	r2,-4(fp)
    
  } while (active);
   401a0:	e0bfff17 	ldw	r2,-4(fp)
   401a4:	103fde1e 	bne	r2,zero,40120 <alt_irq_handler+0x24>

  /*
   * Notify the operating system that interrupt processing is complete.
   */ 

  ALT_OS_INT_EXIT();
   401a8:	0001883a 	nop
}
   401ac:	0001883a 	nop
   401b0:	e037883a 	mov	sp,fp
   401b4:	dfc00117 	ldw	ra,4(sp)
   401b8:	df000017 	ldw	fp,0(sp)
   401bc:	dec00204 	addi	sp,sp,8
   401c0:	f800283a 	ret

000401c4 <alt_instruction_exception_entry>:
 * that handler if it has been registered. Absent a handler, it will
 * break break or hang as discussed below.
 */
int 
alt_instruction_exception_entry (alt_u32 exception_pc)
{
   401c4:	defffb04 	addi	sp,sp,-20
   401c8:	dfc00415 	stw	ra,16(sp)
   401cc:	df000315 	stw	fp,12(sp)
   401d0:	df000304 	addi	fp,sp,12
   401d4:	e13ffd15 	stw	r4,-12(fp)
 * NIOS2_EXCEPTION_CAUSE_NOT_PRESENT. Your handling routine should
 * check the validity of the cause argument before proceeding.
 */
#ifdef NIOS2_HAS_EXTRA_EXCEPTION_INFO
  /* Get exception cause & "badaddr" */
  NIOS2_READ_EXCEPTION(cause);
   401d8:	000531fa 	rdctl	r2,exception
   401dc:	e0bfff15 	stw	r2,-4(fp)
  cause = ( (cause & NIOS2_EXCEPTION_REG_CAUSE_MASK) >>
   401e0:	e0bfff17 	ldw	r2,-4(fp)
   401e4:	1004d0ba 	srli	r2,r2,2
   401e8:	108007cc 	andi	r2,r2,31
   401ec:	e0bfff15 	stw	r2,-4(fp)
              NIOS2_EXCEPTION_REG_CAUSE_OFST );

  NIOS2_READ_BADADDR(badaddr);
   401f0:	0005333a 	rdctl	r2,badaddr
   401f4:	e0bffe15 	stw	r2,-8(fp)
#else
  cause = NIOS2_EXCEPTION_CAUSE_NOT_PRESENT;
  badaddr = 0;
#endif /* NIOS2_HAS_EXTRA_EXCEPTION_INFO */

  if(alt_instruction_exception_handler) {
   401f8:	d0a70f17 	ldw	r2,-25540(gp)
   401fc:	10000726 	beq	r2,zero,4021c <alt_instruction_exception_entry+0x58>
     * Call handler. Its return value indicates whether the exception-causing
     * instruction should be re-issued. The code that called us,
     * alt_eceptions_entry.S, will look at this value and adjust the ea
     * register as necessary
     */
    return alt_instruction_exception_handler(cause, exception_pc, badaddr);
   40200:	d0a70f17 	ldw	r2,-25540(gp)
   40204:	e0ffff17 	ldw	r3,-4(fp)
   40208:	e1bffe17 	ldw	r6,-8(fp)
   4020c:	e17ffd17 	ldw	r5,-12(fp)
   40210:	1809883a 	mov	r4,r3
   40214:	103ee83a 	callr	r2
   40218:	00000206 	br	40224 <alt_instruction_exception_entry+0x60>
   *    (a peripheral which negates its interrupt output before its
   *    interrupt handler has been executed will cause spurious interrupts)
   */
  else {
#ifdef NIOS2_HAS_DEBUG_STUB
    NIOS2_BREAK();
   4021c:	003da03a 	break	0
      ;
#endif /* NIOS2_HAS_DEBUG_STUB */
  }

  /* We should not get here. Remove compiler warning. */
  return NIOS2_EXCEPTION_RETURN_REISSUE_INST;
   40220:	0005883a 	mov	r2,zero
}
   40224:	e037883a 	mov	sp,fp
   40228:	dfc00117 	ldw	ra,4(sp)
   4022c:	df000017 	ldw	fp,0(sp)
   40230:	dec00204 	addi	sp,sp,8
   40234:	f800283a 	ret

Disassembly of section .text:

00040238 <_start>:

    /* Assume the data cache size is always a power of two. */
#if NIOS2_DCACHE_SIZE > 0x8000
    movhi r2, %hi(NIOS2_DCACHE_SIZE)
#else
    movui r2, NIOS2_DCACHE_SIZE
   40238:	00820014 	movui	r2,2048
#endif

0:
    initd 0(r2)
   4023c:	10000033 	initd	0(r2)
#ifdef NIOS2_ECC_PRESENT
    addi r2, r2, -4
#else
    addi r2, r2, -NIOS2_DCACHE_LINE_SIZE
   40240:	10bff804 	addi	r2,r2,-32
#endif
    bgt r2, zero, 0b
   40244:	00bffd16 	blt	zero,r2,4023c <_start+0x4>

    /*
     * Now that the caches are initialized, set up the stack pointer and global pointer.
     * The values provided by the linker are assumed to be correctly aligned.
     */
    movhi sp, %hi(__alt_stack_pointer)
   40248:	06c001b4 	movhi	sp,6
    ori sp, sp, %lo(__alt_stack_pointer)
   4024c:	dedc4014 	ori	sp,sp,28928
    movhi gp, %hi(_gp)
   40250:	06800174 	movhi	gp,5
    ori gp, gp, %lo(_gp)
   40254:	d6a7ac14 	ori	gp,gp,40624
 */
#ifndef ALT_SIM_OPTIMIZE
    /* Log that the BSS is about to be cleared. */
    ALT_LOG_PUTS(alt_log_msg_bss)

    movhi r2, %hi(__bss_start)
   40258:	00800174 	movhi	r2,5
    ori r2, r2, %lo(__bss_start)
   4025c:	108eb014 	ori	r2,r2,15040

    movhi r3, %hi(__bss_end)
   40260:	00c00174 	movhi	r3,5
    ori r3, r3, %lo(__bss_end)
   40264:	18cf0614 	ori	r3,r3,15384

    beq r2, r3, 1f
   40268:	10c00326 	beq	r2,r3,40278 <_start+0x40>

0:
    stw zero, (r2)
   4026c:	10000015 	stw	zero,0(r2)
    addi r2, r2, 4
   40270:	10800104 	addi	r2,r2,4
    bltu r2, r3, 0b
   40274:	10fffd36 	bltu	r2,r3,4026c <_start+0x34>
     * section aren't defined until alt_load() has been called).
     */
    mov   et, zero
#endif

    call alt_load
   40278:	004d8e80 	call	4d8e8 <alt_load>

    /* Log that alt_main is about to be called. */
    ALT_LOG_PUTS(alt_log_msg_alt_main)

    /* Call the C entry point. It should never return. */
    call alt_main
   4027c:	004da7c0 	call	4da7c <alt_main>

00040280 <alt_after_alt_main>:

    /* Wait in infinite loop in case alt_main does return. */
alt_after_alt_main:
    br alt_after_alt_main
   40280:	003fff06 	br	40280 <alt_after_alt_main>

00040284 <main>:
#include <io.h>
#include <unistd.h>

#include "system.h"

void main(void){
   40284:	defff804 	addi	sp,sp,-32
   40288:	dfc00715 	stw	ra,28(sp)
   4028c:	df000615 	stw	fp,24(sp)
   40290:	df000604 	addi	fp,sp,24
	int ch = 0;
   40294:	e03ffd15 	stw	zero,-12(fp)
	const int nReadNum = 10; // max 1024
   40298:	00800284 	movi	r2,10
   4029c:	e0bffc15 	stw	r2,-16(fp)
	int i, Value, nIndex=0;
   402a0:	e03ffe15 	stw	zero,-8(fp)

	printf("ADC Demo\r\n");
   402a4:	01000174 	movhi	r4,5
   402a8:	213f2004 	addi	r4,r4,-896
   402ac:	00411980 	call	41198 <puts>
	while(1){
		ch = IORD(SW_BASE, 0x00) & 0x07;
   402b0:	00800037 	ldwio	r2,0(zero)
   402b4:	108001cc 	andi	r2,r2,7
   402b8:	e0bffd15 	stw	r2,-12(fp)

		printf("======================= %d, ch=%d\r\n", nIndex++, ch);
   402bc:	e0bffe17 	ldw	r2,-8(fp)
   402c0:	10c00044 	addi	r3,r2,1
   402c4:	e0fffe15 	stw	r3,-8(fp)
   402c8:	e1bffd17 	ldw	r6,-12(fp)
   402cc:	100b883a 	mov	r5,r2
   402d0:	01000174 	movhi	r4,5
   402d4:	213f2304 	addi	r4,r4,-884
   402d8:	00410940 	call	41094 <printf>
		// set measure number for ADC convert
		IOWR(ADC_LTC2308_BASE, 0x01, nReadNum);
   402dc:	e0fffc17 	ldw	r3,-16(fp)
   402e0:	00800234 	movhi	r2,8
   402e4:	10c40535 	stwio	r3,4116(r2)


		// start measure
		IOWR(ADC_LTC2308_BASE, 0x00, (ch << 1) | 0x00);
   402e8:	e0bffd17 	ldw	r2,-12(fp)
   402ec:	1085883a 	add	r2,r2,r2
   402f0:	1007883a 	mov	r3,r2
   402f4:	00800234 	movhi	r2,8
   402f8:	10c40435 	stwio	r3,4112(r2)
		IOWR(ADC_LTC2308_BASE, 0x00, (ch << 1) | 0x01);
   402fc:	e0bffd17 	ldw	r2,-12(fp)
   40300:	1085883a 	add	r2,r2,r2
   40304:	10c00054 	ori	r3,r2,1
   40308:	00800234 	movhi	r2,8
   4030c:	10c40435 	stwio	r3,4112(r2)
		IOWR(ADC_LTC2308_BASE, 0x00, (ch << 1) | 0x00);
   40310:	e0bffd17 	ldw	r2,-12(fp)
   40314:	1085883a 	add	r2,r2,r2
   40318:	1007883a 	mov	r3,r2
   4031c:	00800234 	movhi	r2,8
   40320:	10c40435 	stwio	r3,4112(r2)
		usleep(1);
   40324:	01000044 	movi	r4,1
   40328:	004dd880 	call	4dd88 <usleep>

		// wait measure done
		while ((IORD(ADC_LTC2308_BASE,0x00) & 0x01) == 0x00);
   4032c:	0001883a 	nop
   40330:	00800234 	movhi	r2,8
   40334:	10840437 	ldwio	r2,4112(r2)
   40338:	1080004c 	andi	r2,r2,1
   4033c:	103ffc26 	beq	r2,zero,40330 <main+0xac>

		// read adc value
		for(i=0;i<nReadNum;i++){
   40340:	e03fff15 	stw	zero,-4(fp)
   40344:	00001f06 	br	403c4 <main+0x140>
			Value = IORD(ADC_LTC2308_BASE, 0x01);
   40348:	00800234 	movhi	r2,8
   4034c:	10840537 	ldwio	r2,4116(r2)
   40350:	e0bffb15 	stw	r2,-20(fp)
			printf("CH%d=%.3fV (0x%04x)\r\n", ch, (float)Value/1000.0, Value);
   40354:	e13ffb17 	ldw	r4,-20(fp)
   40358:	00403e00 	call	403e0 <__floatsisf>
   4035c:	1007883a 	mov	r3,r2
   40360:	1809883a 	mov	r4,r3
   40364:	0040d600 	call	40d60 <__extendsfdf2>
   40368:	1011883a 	mov	r8,r2
   4036c:	1813883a 	mov	r9,r3
   40370:	000d883a 	mov	r6,zero
   40374:	01d023f4 	movhi	r7,16527
   40378:	39d00004 	addi	r7,r7,16384
   4037c:	4009883a 	mov	r4,r8
   40380:	480b883a 	mov	r5,r9
   40384:	00405040 	call	40504 <__divdf3>
   40388:	1009883a 	mov	r4,r2
   4038c:	180b883a 	mov	r5,r3
   40390:	2005883a 	mov	r2,r4
   40394:	2807883a 	mov	r3,r5
   40398:	e13ffb17 	ldw	r4,-20(fp)
   4039c:	d9000015 	stw	r4,0(sp)
   403a0:	100d883a 	mov	r6,r2
   403a4:	180f883a 	mov	r7,r3
   403a8:	e17ffd17 	ldw	r5,-12(fp)
   403ac:	01000174 	movhi	r4,5
   403b0:	213f2c04 	addi	r4,r4,-848
   403b4:	00410940 	call	41094 <printf>
		for(i=0;i<nReadNum;i++){
   403b8:	e0bfff17 	ldw	r2,-4(fp)
   403bc:	10800044 	addi	r2,r2,1
   403c0:	e0bfff15 	stw	r2,-4(fp)
   403c4:	e0ffff17 	ldw	r3,-4(fp)
   403c8:	e0bffc17 	ldw	r2,-16(fp)
   403cc:	18bfde16 	blt	r3,r2,40348 <main+0xc4>
		}

		usleep(200*1000);
   403d0:	010000f4 	movhi	r4,3
   403d4:	21035004 	addi	r4,r4,3392
   403d8:	004dd880 	call	4dd88 <usleep>
		ch = IORD(SW_BASE, 0x00) & 0x07;
   403dc:	003fb406 	br	402b0 <main+0x2c>

000403e0 <__floatsisf>:
   403e0:	defffd04 	addi	sp,sp,-12
   403e4:	dfc00215 	stw	ra,8(sp)
   403e8:	dc400115 	stw	r17,4(sp)
   403ec:	dc000015 	stw	r16,0(sp)
   403f0:	20001226 	beq	r4,zero,4043c <__floatsisf+0x5c>
   403f4:	2022d7fa 	srli	r17,r4,31
   403f8:	2021883a 	mov	r16,r4
   403fc:	20003816 	blt	r4,zero,404e0 <__floatsisf+0x100>
   40400:	8009883a 	mov	r4,r16
   40404:	0040e5c0 	call	40e5c <__clzsi2>
   40408:	1009883a 	mov	r4,r2
   4040c:	00802784 	movi	r2,158
   40410:	1105c83a 	sub	r2,r2,r4
   40414:	10c025c8 	cmpgei	r3,r2,151
   40418:	1800151e 	bne	r3,zero,40470 <__floatsisf+0x90>
   4041c:	20c00248 	cmpgei	r3,r4,9
   40420:	18003126 	beq	r3,zero,404e8 <__floatsisf+0x108>
   40424:	213ffe04 	addi	r4,r4,-8
   40428:	8120983a 	sll	r16,r16,r4
   4042c:	00c02034 	movhi	r3,128
   40430:	18ffffc4 	addi	r3,r3,-1
   40434:	80e0703a 	and	r16,r16,r3
   40438:	00000306 	br	40448 <__floatsisf+0x68>
   4043c:	0023883a 	mov	r17,zero
   40440:	0005883a 	mov	r2,zero
   40444:	0021883a 	mov	r16,zero
   40448:	10803fcc 	andi	r2,r2,255
   4044c:	100495fa 	slli	r2,r2,23
   40450:	882297fa 	slli	r17,r17,31
   40454:	1404b03a 	or	r2,r2,r16
   40458:	1444b03a 	or	r2,r2,r17
   4045c:	dfc00217 	ldw	ra,8(sp)
   40460:	dc400117 	ldw	r17,4(sp)
   40464:	dc000017 	ldw	r16,0(sp)
   40468:	dec00304 	addi	sp,sp,12
   4046c:	f800283a 	ret
   40470:	10c02690 	cmplti	r3,r2,154
   40474:	1800071e 	bne	r3,zero,40494 <__floatsisf+0xb4>
   40478:	20c006c4 	addi	r3,r4,27
   4047c:	01400144 	movi	r5,5
   40480:	80c6983a 	sll	r3,r16,r3
   40484:	290bc83a 	sub	r5,r5,r4
   40488:	814ad83a 	srl	r5,r16,r5
   4048c:	1806c03a 	cmpne	r3,r3,zero
   40490:	28e0b03a 	or	r16,r5,r3
   40494:	20c00188 	cmpgei	r3,r4,6
   40498:	1800171e 	bne	r3,zero,404f8 <__floatsisf+0x118>
   4049c:	00ff0034 	movhi	r3,64512
   404a0:	18ffffc4 	addi	r3,r3,-1
   404a4:	818001cc 	andi	r6,r16,7
   404a8:	80ca703a 	and	r5,r16,r3
   404ac:	30000926 	beq	r6,zero,404d4 <__floatsisf+0xf4>
   404b0:	818003cc 	andi	r6,r16,15
   404b4:	31800120 	cmpeqi	r6,r6,4
   404b8:	3000061e 	bne	r6,zero,404d4 <__floatsisf+0xf4>
   404bc:	29400104 	addi	r5,r5,4
   404c0:	2981002c 	andhi	r6,r5,1024
   404c4:	30000326 	beq	r6,zero,404d4 <__floatsisf+0xf4>
   404c8:	28ca703a 	and	r5,r5,r3
   404cc:	00c027c4 	movi	r3,159
   404d0:	1905c83a 	sub	r2,r3,r4
   404d4:	282091ba 	slli	r16,r5,6
   404d8:	8020d27a 	srli	r16,r16,9
   404dc:	003fda06 	br	40448 <__floatsisf+0x68>
   404e0:	0121c83a 	sub	r16,zero,r4
   404e4:	003fc606 	br	40400 <__floatsisf+0x20>
   404e8:	01002034 	movhi	r4,128
   404ec:	213fffc4 	addi	r4,r4,-1
   404f0:	8120703a 	and	r16,r16,r4
   404f4:	003fd406 	br	40448 <__floatsisf+0x68>
   404f8:	20fffec4 	addi	r3,r4,-5
   404fc:	80e0983a 	sll	r16,r16,r3
   40500:	003fe606 	br	4049c <__floatsisf+0xbc>

00040504 <__divdf3>:
   40504:	2804d53a 	srli	r2,r5,20
   40508:	defff204 	addi	sp,sp,-56
   4050c:	dc000415 	stw	r16,16(sp)
   40510:	04000434 	movhi	r16,16
   40514:	ddc00b15 	stw	r23,44(sp)
   40518:	dd800a15 	stw	r22,40(sp)
   4051c:	dc800615 	stw	r18,24(sp)
   40520:	843fffc4 	addi	r16,r16,-1
   40524:	dfc00d15 	stw	ra,52(sp)
   40528:	df000c15 	stw	fp,48(sp)
   4052c:	dd400915 	stw	r21,36(sp)
   40530:	dd000815 	stw	r20,32(sp)
   40534:	dcc00715 	stw	r19,28(sp)
   40538:	dc400515 	stw	r17,20(sp)
   4053c:	1081ffcc 	andi	r2,r2,2047
   40540:	282cd7fa 	srli	r22,r5,31
   40544:	302f883a 	mov	r23,r6
   40548:	2025883a 	mov	r18,r4
   4054c:	2c20703a 	and	r16,r5,r16
   40550:	10006a26 	beq	r2,zero,406fc <__divdf3+0x1f8>
   40554:	10c1ffe0 	cmpeqi	r3,r2,2047
   40558:	18007d1e 	bne	r3,zero,40750 <__divdf3+0x24c>
   4055c:	2028d77a 	srli	r20,r4,29
   40560:	800a90fa 	slli	r5,r16,3
   40564:	202490fa 	slli	r18,r4,3
   40568:	14ff0044 	addi	r19,r2,-1023
   4056c:	a14ab03a 	or	r5,r20,r5
   40570:	2d002034 	orhi	r20,r5,128
   40574:	0021883a 	mov	r16,zero
   40578:	0039883a 	mov	fp,zero
   4057c:	3804d53a 	srli	r2,r7,20
   40580:	00c00434 	movhi	r3,16
   40584:	18ffffc4 	addi	r3,r3,-1
   40588:	1081ffcc 	andi	r2,r2,2047
   4058c:	3810d7fa 	srli	r8,r7,31
   40590:	38e2703a 	and	r17,r7,r3
   40594:	10004626 	beq	r2,zero,406b0 <__divdf3+0x1ac>
   40598:	10c1ffe0 	cmpeqi	r3,r2,2047
   4059c:	1800731e 	bne	r3,zero,4076c <__divdf3+0x268>
   405a0:	880690fa 	slli	r3,r17,3
   405a4:	b822d77a 	srli	r17,r23,29
   405a8:	b81290fa 	slli	r9,r23,3
   405ac:	10bf0044 	addi	r2,r2,-1023
   405b0:	88c6b03a 	or	r3,r17,r3
   405b4:	1c402034 	orhi	r17,r3,128
   405b8:	98a7c83a 	sub	r19,r19,r2
   405bc:	0007883a 	mov	r3,zero
   405c0:	80800428 	cmpgeui	r2,r16,16
   405c4:	b22af03a 	xor	r21,r22,r8
   405c8:	1000ab1e 	bne	r2,zero,40878 <__divdf3+0x374>
   405cc:	800490ba 	slli	r2,r16,2
   405d0:	01800134 	movhi	r6,4
   405d4:	118d883a 	add	r6,r2,r6
   405d8:	30817817 	ldw	r2,1504(r6)
   405dc:	1000683a 	jmp	r2
   405e0:	00040878 	rdprs	zero,zero,4129
   405e4:	0004068c 	andi	zero,zero,4122
   405e8:	0004063c 	xorhi	zero,zero,4120
   405ec:	0004069c 	xori	zero,zero,4122
   405f0:	0004063c 	xorhi	zero,zero,4120
   405f4:	0004081c 	xori	zero,zero,4128
   405f8:	0004063c 	xorhi	zero,zero,4120
   405fc:	0004069c 	xori	zero,zero,4122
   40600:	0004068c 	andi	zero,zero,4122
   40604:	0004068c 	andi	zero,zero,4122
   40608:	0004081c 	xori	zero,zero,4128
   4060c:	0004069c 	xori	zero,zero,4122
   40610:	00040620 	cmpeqi	zero,zero,4120
   40614:	00040620 	cmpeqi	zero,zero,4120
   40618:	00040620 	cmpeqi	zero,zero,4120
   4061c:	00040834 	movhi	zero,4128
   40620:	b02b883a 	mov	r21,r22
   40624:	e08000a0 	cmpeqi	r2,fp,2
   40628:	1000181e 	bne	r2,zero,4068c <__divdf3+0x188>
   4062c:	e08000e0 	cmpeqi	r2,fp,3
   40630:	1001c21e 	bne	r2,zero,40d3c <__divdf3+0x838>
   40634:	e0800060 	cmpeqi	r2,fp,1
   40638:	10006526 	beq	r2,zero,407d0 <__divdf3+0x2cc>
   4063c:	0007883a 	mov	r3,zero
   40640:	000b883a 	mov	r5,zero
   40644:	0025883a 	mov	r18,zero
   40648:	1806953a 	slli	r3,r3,20
   4064c:	a82a97fa 	slli	r21,r21,31
   40650:	9005883a 	mov	r2,r18
   40654:	1946b03a 	or	r3,r3,r5
   40658:	1d46b03a 	or	r3,r3,r21
   4065c:	dfc00d17 	ldw	ra,52(sp)
   40660:	df000c17 	ldw	fp,48(sp)
   40664:	ddc00b17 	ldw	r23,44(sp)
   40668:	dd800a17 	ldw	r22,40(sp)
   4066c:	dd400917 	ldw	r21,36(sp)
   40670:	dd000817 	ldw	r20,32(sp)
   40674:	dcc00717 	ldw	r19,28(sp)
   40678:	dc800617 	ldw	r18,24(sp)
   4067c:	dc400517 	ldw	r17,20(sp)
   40680:	dc000417 	ldw	r16,16(sp)
   40684:	dec00e04 	addi	sp,sp,56
   40688:	f800283a 	ret
   4068c:	00c1ffc4 	movi	r3,2047
   40690:	000b883a 	mov	r5,zero
   40694:	0025883a 	mov	r18,zero
   40698:	003feb06 	br	40648 <__divdf3+0x144>
   4069c:	402b883a 	mov	r21,r8
   406a0:	8829883a 	mov	r20,r17
   406a4:	4825883a 	mov	r18,r9
   406a8:	1839883a 	mov	fp,r3
   406ac:	003fdd06 	br	40624 <__divdf3+0x120>
   406b0:	8dd2b03a 	or	r9,r17,r23
   406b4:	48004226 	beq	r9,zero,407c0 <__divdf3+0x2bc>
   406b8:	da000015 	stw	r8,0(sp)
   406bc:	88013d26 	beq	r17,zero,40bb4 <__divdf3+0x6b0>
   406c0:	8809883a 	mov	r4,r17
   406c4:	0040e5c0 	call	40e5c <__clzsi2>
   406c8:	da000017 	ldw	r8,0(sp)
   406cc:	117ffd44 	addi	r5,r2,-11
   406d0:	01000744 	movi	r4,29
   406d4:	127ffe04 	addi	r9,r2,-8
   406d8:	2149c83a 	sub	r4,r4,r5
   406dc:	8a46983a 	sll	r3,r17,r9
   406e0:	b908d83a 	srl	r4,r23,r4
   406e4:	ba52983a 	sll	r9,r23,r9
   406e8:	20e2b03a 	or	r17,r4,r3
   406ec:	14c5883a 	add	r2,r2,r19
   406f0:	14c0fcc4 	addi	r19,r2,1011
   406f4:	0007883a 	mov	r3,zero
   406f8:	003fb106 	br	405c0 <__divdf3+0xbc>
   406fc:	8128b03a 	or	r20,r16,r4
   40700:	2023883a 	mov	r17,r4
   40704:	a0002926 	beq	r20,zero,407ac <__divdf3+0x2a8>
   40708:	d9c00015 	stw	r7,0(sp)
   4070c:	80013526 	beq	r16,zero,40be4 <__divdf3+0x6e0>
   40710:	8009883a 	mov	r4,r16
   40714:	0040e5c0 	call	40e5c <__clzsi2>
   40718:	d9c00017 	ldw	r7,0(sp)
   4071c:	10fffd44 	addi	r3,r2,-11
   40720:	05000744 	movi	r20,29
   40724:	113ffe04 	addi	r4,r2,-8
   40728:	a0e9c83a 	sub	r20,r20,r3
   4072c:	810a983a 	sll	r5,r16,r4
   40730:	8d28d83a 	srl	r20,r17,r20
   40734:	8924983a 	sll	r18,r17,r4
   40738:	a168b03a 	or	r20,r20,r5
   4073c:	04ff0344 	movi	r19,-1011
   40740:	98a7c83a 	sub	r19,r19,r2
   40744:	0021883a 	mov	r16,zero
   40748:	0039883a 	mov	fp,zero
   4074c:	003f8b06 	br	4057c <__divdf3+0x78>
   40750:	8128b03a 	or	r20,r16,r4
   40754:	a000101e 	bne	r20,zero,40798 <__divdf3+0x294>
   40758:	0025883a 	mov	r18,zero
   4075c:	04000204 	movi	r16,8
   40760:	04c1ffc4 	movi	r19,2047
   40764:	07000084 	movi	fp,2
   40768:	003f8406 	br	4057c <__divdf3+0x78>
   4076c:	8dd2b03a 	or	r9,r17,r23
   40770:	9cfe0044 	addi	r19,r19,-2047
   40774:	4800041e 	bne	r9,zero,40788 <__divdf3+0x284>
   40778:	84000094 	ori	r16,r16,2
   4077c:	0023883a 	mov	r17,zero
   40780:	00c00084 	movi	r3,2
   40784:	003f8e06 	br	405c0 <__divdf3+0xbc>
   40788:	840000d4 	ori	r16,r16,3
   4078c:	b813883a 	mov	r9,r23
   40790:	00c000c4 	movi	r3,3
   40794:	003f8a06 	br	405c0 <__divdf3+0xbc>
   40798:	8029883a 	mov	r20,r16
   4079c:	04c1ffc4 	movi	r19,2047
   407a0:	04000304 	movi	r16,12
   407a4:	070000c4 	movi	fp,3
   407a8:	003f7406 	br	4057c <__divdf3+0x78>
   407ac:	0025883a 	mov	r18,zero
   407b0:	04000104 	movi	r16,4
   407b4:	0027883a 	mov	r19,zero
   407b8:	07000044 	movi	fp,1
   407bc:	003f6f06 	br	4057c <__divdf3+0x78>
   407c0:	84000054 	ori	r16,r16,1
   407c4:	0023883a 	mov	r17,zero
   407c8:	00c00044 	movi	r3,1
   407cc:	003f7c06 	br	405c0 <__divdf3+0xbc>
   407d0:	9c40ffc4 	addi	r17,r19,1023
   407d4:	0440c70e 	bge	zero,r17,40af4 <__divdf3+0x5f0>
   407d8:	908001cc 	andi	r2,r18,7
   407dc:	1001331e 	bne	r2,zero,40cac <__divdf3+0x7a8>
   407e0:	900cd0fa 	srli	r6,r18,3
   407e4:	a080402c 	andhi	r2,r20,256
   407e8:	10000426 	beq	r2,zero,407fc <__divdf3+0x2f8>
   407ec:	00bfc034 	movhi	r2,65280
   407f0:	10bfffc4 	addi	r2,r2,-1
   407f4:	a0a8703a 	and	r20,r20,r2
   407f8:	9c410004 	addi	r17,r19,1024
   407fc:	8881ffc8 	cmpgei	r2,r17,2047
   40800:	103fa21e 	bne	r2,zero,4068c <__divdf3+0x188>
   40804:	a008977a 	slli	r4,r20,29
   40808:	a00a927a 	slli	r5,r20,9
   4080c:	88c1ffcc 	andi	r3,r17,2047
   40810:	21a4b03a 	or	r18,r4,r6
   40814:	280ad33a 	srli	r5,r5,12
   40818:	003f8b06 	br	40648 <__divdf3+0x144>
   4081c:	01400434 	movhi	r5,16
   40820:	002b883a 	mov	r21,zero
   40824:	297fffc4 	addi	r5,r5,-1
   40828:	04bfffc4 	movi	r18,-1
   4082c:	00c1ffc4 	movi	r3,2047
   40830:	003f8506 	br	40648 <__divdf3+0x144>
   40834:	a080022c 	andhi	r2,r20,8
   40838:	10000926 	beq	r2,zero,40860 <__divdf3+0x35c>
   4083c:	8880022c 	andhi	r2,r17,8
   40840:	1000071e 	bne	r2,zero,40860 <__divdf3+0x35c>
   40844:	00800434 	movhi	r2,16
   40848:	89400234 	orhi	r5,r17,8
   4084c:	10bfffc4 	addi	r2,r2,-1
   40850:	288a703a 	and	r5,r5,r2
   40854:	402b883a 	mov	r21,r8
   40858:	4825883a 	mov	r18,r9
   4085c:	003ff306 	br	4082c <__divdf3+0x328>
   40860:	00800434 	movhi	r2,16
   40864:	a1400234 	orhi	r5,r20,8
   40868:	10bfffc4 	addi	r2,r2,-1
   4086c:	288a703a 	and	r5,r5,r2
   40870:	b02b883a 	mov	r21,r22
   40874:	003fed06 	br	4082c <__divdf3+0x328>
   40878:	8d00c836 	bltu	r17,r20,40b9c <__divdf3+0x698>
   4087c:	8d00c626 	beq	r17,r20,40b98 <__divdf3+0x694>
   40880:	9cffffc4 	addi	r19,r19,-1
   40884:	0021883a 	mov	r16,zero
   40888:	8806923a 	slli	r3,r17,8
   4088c:	480cd63a 	srli	r6,r9,24
   40890:	4804923a 	slli	r2,r9,8
   40894:	1838d43a 	srli	fp,r3,16
   40898:	a009883a 	mov	r4,r20
   4089c:	30ecb03a 	or	r22,r6,r3
   408a0:	e00b883a 	mov	r5,fp
   408a4:	d8800015 	stw	r2,0(sp)
   408a8:	0040fa40 	call	40fa4 <__udivsi3>
   408ac:	a009883a 	mov	r4,r20
   408b0:	e00b883a 	mov	r5,fp
   408b4:	d8800115 	stw	r2,4(sp)
   408b8:	00410080 	call	41008 <__umodsi3>
   408bc:	d8c00117 	ldw	r3,4(sp)
   408c0:	1004943a 	slli	r2,r2,16
   408c4:	9008d43a 	srli	r4,r18,16
   408c8:	b5ffffcc 	andi	r23,r22,65535
   408cc:	b8e3383a 	mul	r17,r23,r3
   408d0:	2088b03a 	or	r4,r4,r2
   408d4:	2440042e 	bgeu	r4,r17,408e8 <__divdf3+0x3e4>
   408d8:	2589883a 	add	r4,r4,r22
   408dc:	18bfffc4 	addi	r2,r3,-1
   408e0:	2580d32e 	bgeu	r4,r22,40c30 <__divdf3+0x72c>
   408e4:	1007883a 	mov	r3,r2
   408e8:	2463c83a 	sub	r17,r4,r17
   408ec:	e00b883a 	mov	r5,fp
   408f0:	8809883a 	mov	r4,r17
   408f4:	d8c00115 	stw	r3,4(sp)
   408f8:	0040fa40 	call	40fa4 <__udivsi3>
   408fc:	8809883a 	mov	r4,r17
   40900:	e00b883a 	mov	r5,fp
   40904:	1029883a 	mov	r20,r2
   40908:	00410080 	call	41008 <__umodsi3>
   4090c:	1008943a 	slli	r4,r2,16
   40910:	bd13383a 	mul	r9,r23,r20
   40914:	94bfffcc 	andi	r18,r18,65535
   40918:	9108b03a 	or	r4,r18,r4
   4091c:	d8c00117 	ldw	r3,4(sp)
   40920:	2240042e 	bgeu	r4,r9,40934 <__divdf3+0x430>
   40924:	2589883a 	add	r4,r4,r22
   40928:	a0bfffc4 	addi	r2,r20,-1
   4092c:	2580bc2e 	bgeu	r4,r22,40c20 <__divdf3+0x71c>
   40930:	1029883a 	mov	r20,r2
   40934:	180a943a 	slli	r5,r3,16
   40938:	d8800017 	ldw	r2,0(sp)
   4093c:	2249c83a 	sub	r4,r4,r9
   40940:	2d28b03a 	or	r20,r5,r20
   40944:	100ed43a 	srli	r7,r2,16
   40948:	123fffcc 	andi	r8,r2,65535
   4094c:	a00ad43a 	srli	r5,r20,16
   40950:	a0bfffcc 	andi	r2,r20,65535
   40954:	1225383a 	mul	r18,r2,r8
   40958:	2a15383a 	mul	r10,r5,r8
   4095c:	3887383a 	mul	r3,r7,r2
   40960:	9004d43a 	srli	r2,r18,16
   40964:	29cb383a 	mul	r5,r5,r7
   40968:	1a87883a 	add	r3,r3,r10
   4096c:	10c5883a 	add	r2,r2,r3
   40970:	1280022e 	bgeu	r2,r10,4097c <__divdf3+0x478>
   40974:	00c00074 	movhi	r3,1
   40978:	28cb883a 	add	r5,r5,r3
   4097c:	1006d43a 	srli	r3,r2,16
   40980:	1004943a 	slli	r2,r2,16
   40984:	94bfffcc 	andi	r18,r18,65535
   40988:	1947883a 	add	r3,r3,r5
   4098c:	14a5883a 	add	r18,r2,r18
   40990:	20c07636 	bltu	r4,r3,40b6c <__divdf3+0x668>
   40994:	20c07426 	beq	r4,r3,40b68 <__divdf3+0x664>
   40998:	84a5c83a 	sub	r18,r16,r18
   4099c:	20c9c83a 	sub	r4,r4,r3
   409a0:	84a1803a 	cmpltu	r16,r16,r18
   409a4:	2421c83a 	sub	r16,r4,r16
   409a8:	9c40ffc4 	addi	r17,r19,1023
   409ac:	b400ba26 	beq	r22,r16,40c98 <__divdf3+0x794>
   409b0:	8009883a 	mov	r4,r16
   409b4:	e00b883a 	mov	r5,fp
   409b8:	da000315 	stw	r8,12(sp)
   409bc:	d9c00215 	stw	r7,8(sp)
   409c0:	0040fa40 	call	40fa4 <__udivsi3>
   409c4:	8009883a 	mov	r4,r16
   409c8:	e00b883a 	mov	r5,fp
   409cc:	d8800115 	stw	r2,4(sp)
   409d0:	00410080 	call	41008 <__umodsi3>
   409d4:	da400117 	ldw	r9,4(sp)
   409d8:	1004943a 	slli	r2,r2,16
   409dc:	9008d43a 	srli	r4,r18,16
   409e0:	ba61383a 	mul	r16,r23,r9
   409e4:	d9c00217 	ldw	r7,8(sp)
   409e8:	2088b03a 	or	r4,r4,r2
   409ec:	da000317 	ldw	r8,12(sp)
   409f0:	2400062e 	bgeu	r4,r16,40a0c <__divdf3+0x508>
   409f4:	2589883a 	add	r4,r4,r22
   409f8:	48bfffc4 	addi	r2,r9,-1
   409fc:	2580b536 	bltu	r4,r22,40cd4 <__divdf3+0x7d0>
   40a00:	2400b42e 	bgeu	r4,r16,40cd4 <__divdf3+0x7d0>
   40a04:	4a7fff84 	addi	r9,r9,-2
   40a08:	2589883a 	add	r4,r4,r22
   40a0c:	2421c83a 	sub	r16,r4,r16
   40a10:	8009883a 	mov	r4,r16
   40a14:	e00b883a 	mov	r5,fp
   40a18:	da000315 	stw	r8,12(sp)
   40a1c:	da400215 	stw	r9,8(sp)
   40a20:	d9c00115 	stw	r7,4(sp)
   40a24:	0040fa40 	call	40fa4 <__udivsi3>
   40a28:	8009883a 	mov	r4,r16
   40a2c:	e00b883a 	mov	r5,fp
   40a30:	1021883a 	mov	r16,r2
   40a34:	00410080 	call	41008 <__umodsi3>
   40a38:	1004943a 	slli	r2,r2,16
   40a3c:	bc2f383a 	mul	r23,r23,r16
   40a40:	90ffffcc 	andi	r3,r18,65535
   40a44:	1886b03a 	or	r3,r3,r2
   40a48:	d9c00117 	ldw	r7,4(sp)
   40a4c:	da400217 	ldw	r9,8(sp)
   40a50:	da000317 	ldw	r8,12(sp)
   40a54:	1dc0062e 	bgeu	r3,r23,40a70 <__divdf3+0x56c>
   40a58:	1d87883a 	add	r3,r3,r22
   40a5c:	80bfffc4 	addi	r2,r16,-1
   40a60:	1d809a36 	bltu	r3,r22,40ccc <__divdf3+0x7c8>
   40a64:	1dc0992e 	bgeu	r3,r23,40ccc <__divdf3+0x7c8>
   40a68:	843fff84 	addi	r16,r16,-2
   40a6c:	1d87883a 	add	r3,r3,r22
   40a70:	4808943a 	slli	r4,r9,16
   40a74:	1defc83a 	sub	r23,r3,r23
   40a78:	2424b03a 	or	r18,r4,r16
   40a7c:	900ad43a 	srli	r5,r18,16
   40a80:	90bfffcc 	andi	r2,r18,65535
   40a84:	4087383a 	mul	r3,r8,r2
   40a88:	3885383a 	mul	r2,r7,r2
   40a8c:	2a11383a 	mul	r8,r5,r8
   40a90:	1808d43a 	srli	r4,r3,16
   40a94:	394f383a 	mul	r7,r7,r5
   40a98:	1205883a 	add	r2,r2,r8
   40a9c:	2089883a 	add	r4,r4,r2
   40aa0:	2200022e 	bgeu	r4,r8,40aac <__divdf3+0x5a8>
   40aa4:	00800074 	movhi	r2,1
   40aa8:	388f883a 	add	r7,r7,r2
   40aac:	2004d43a 	srli	r2,r4,16
   40ab0:	2008943a 	slli	r4,r4,16
   40ab4:	18ffffcc 	andi	r3,r3,65535
   40ab8:	11cf883a 	add	r7,r2,r7
   40abc:	20c9883a 	add	r4,r4,r3
   40ac0:	b9c00436 	bltu	r23,r7,40ad4 <__divdf3+0x5d0>
   40ac4:	b9c00226 	beq	r23,r7,40ad0 <__divdf3+0x5cc>
   40ac8:	94800054 	ori	r18,r18,1
   40acc:	003f4106 	br	407d4 <__divdf3+0x2d0>
   40ad0:	203f4026 	beq	r4,zero,407d4 <__divdf3+0x2d0>
   40ad4:	b5ef883a 	add	r23,r22,r23
   40ad8:	90bfffc4 	addi	r2,r18,-1
   40adc:	bd806936 	bltu	r23,r22,40c84 <__divdf3+0x780>
   40ae0:	b9c08636 	bltu	r23,r7,40cfc <__divdf3+0x7f8>
   40ae4:	b9c09a26 	beq	r23,r7,40d50 <__divdf3+0x84c>
   40ae8:	1025883a 	mov	r18,r2
   40aec:	003ff606 	br	40ac8 <__divdf3+0x5c4>
   40af0:	04bfffc4 	movi	r18,-1
   40af4:	01400044 	movi	r5,1
   40af8:	2c4bc83a 	sub	r5,r5,r17
   40afc:	28800e48 	cmpgei	r2,r5,57
   40b00:	103ece1e 	bne	r2,zero,4063c <__divdf3+0x138>
   40b04:	28800808 	cmpgei	r2,r5,32
   40b08:	10004d1e 	bne	r2,zero,40c40 <__divdf3+0x73c>
   40b0c:	98810784 	addi	r2,r19,1054
   40b10:	a086983a 	sll	r3,r20,r2
   40b14:	9148d83a 	srl	r4,r18,r5
   40b18:	9084983a 	sll	r2,r18,r2
   40b1c:	a14ad83a 	srl	r5,r20,r5
   40b20:	1924b03a 	or	r18,r3,r4
   40b24:	1004c03a 	cmpne	r2,r2,zero
   40b28:	90a4b03a 	or	r18,r18,r2
   40b2c:	908001cc 	andi	r2,r18,7
   40b30:	10000726 	beq	r2,zero,40b50 <__divdf3+0x64c>
   40b34:	908003cc 	andi	r2,r18,15
   40b38:	10800120 	cmpeqi	r2,r2,4
   40b3c:	1000041e 	bne	r2,zero,40b50 <__divdf3+0x64c>
   40b40:	90800104 	addi	r2,r18,4
   40b44:	14a5803a 	cmpltu	r18,r2,r18
   40b48:	2c8b883a 	add	r5,r5,r18
   40b4c:	1025883a 	mov	r18,r2
   40b50:	2880202c 	andhi	r2,r5,128
   40b54:	10007526 	beq	r2,zero,40d2c <__divdf3+0x828>
   40b58:	00c00044 	movi	r3,1
   40b5c:	000b883a 	mov	r5,zero
   40b60:	0025883a 	mov	r18,zero
   40b64:	003eb806 	br	40648 <__divdf3+0x144>
   40b68:	84bf8b2e 	bgeu	r16,r18,40998 <__divdf3+0x494>
   40b6c:	d8800017 	ldw	r2,0(sp)
   40b70:	80a1883a 	add	r16,r16,r2
   40b74:	8085803a 	cmpltu	r2,r16,r2
   40b78:	1585883a 	add	r2,r2,r22
   40b7c:	2089883a 	add	r4,r4,r2
   40b80:	a0bfffc4 	addi	r2,r20,-1
   40b84:	b100222e 	bgeu	r22,r4,40c10 <__divdf3+0x70c>
   40b88:	20c05536 	bltu	r4,r3,40ce0 <__divdf3+0x7dc>
   40b8c:	19005326 	beq	r3,r4,40cdc <__divdf3+0x7d8>
   40b90:	1029883a 	mov	r20,r2
   40b94:	003f8006 	br	40998 <__divdf3+0x494>
   40b98:	927f3936 	bltu	r18,r9,40880 <__divdf3+0x37c>
   40b9c:	a00897fa 	slli	r4,r20,31
   40ba0:	9004d07a 	srli	r2,r18,1
   40ba4:	902097fa 	slli	r16,r18,31
   40ba8:	a028d07a 	srli	r20,r20,1
   40bac:	20a4b03a 	or	r18,r4,r2
   40bb0:	003f3506 	br	40888 <__divdf3+0x384>
   40bb4:	b809883a 	mov	r4,r23
   40bb8:	0040e5c0 	call	40e5c <__clzsi2>
   40bbc:	11400544 	addi	r5,r2,21
   40bc0:	29000748 	cmpgei	r4,r5,29
   40bc4:	1007883a 	mov	r3,r2
   40bc8:	da000017 	ldw	r8,0(sp)
   40bcc:	10800804 	addi	r2,r2,32
   40bd0:	203ebf26 	beq	r4,zero,406d0 <__divdf3+0x1cc>
   40bd4:	18fffe04 	addi	r3,r3,-8
   40bd8:	b8e2983a 	sll	r17,r23,r3
   40bdc:	0013883a 	mov	r9,zero
   40be0:	003ec206 	br	406ec <__divdf3+0x1e8>
   40be4:	0040e5c0 	call	40e5c <__clzsi2>
   40be8:	10c00544 	addi	r3,r2,21
   40bec:	19000748 	cmpgei	r4,r3,29
   40bf0:	100b883a 	mov	r5,r2
   40bf4:	d9c00017 	ldw	r7,0(sp)
   40bf8:	10800804 	addi	r2,r2,32
   40bfc:	203ec826 	beq	r4,zero,40720 <__divdf3+0x21c>
   40c00:	297ffe04 	addi	r5,r5,-8
   40c04:	9168983a 	sll	r20,r18,r5
   40c08:	0025883a 	mov	r18,zero
   40c0c:	003ecb06 	br	4073c <__divdf3+0x238>
   40c10:	b13fdf1e 	bne	r22,r4,40b90 <__divdf3+0x68c>
   40c14:	d9400017 	ldw	r5,0(sp)
   40c18:	817fdd36 	bltu	r16,r5,40b90 <__divdf3+0x68c>
   40c1c:	003fda06 	br	40b88 <__divdf3+0x684>
   40c20:	227f432e 	bgeu	r4,r9,40930 <__divdf3+0x42c>
   40c24:	a53fff84 	addi	r20,r20,-2
   40c28:	2589883a 	add	r4,r4,r22
   40c2c:	003f4106 	br	40934 <__divdf3+0x430>
   40c30:	247f2c2e 	bgeu	r4,r17,408e4 <__divdf3+0x3e0>
   40c34:	18ffff84 	addi	r3,r3,-2
   40c38:	2589883a 	add	r4,r4,r22
   40c3c:	003f2a06 	br	408e8 <__divdf3+0x3e4>
   40c40:	00fff844 	movi	r3,-31
   40c44:	1c47c83a 	sub	r3,r3,r17
   40c48:	29400820 	cmpeqi	r5,r5,32
   40c4c:	a0c6d83a 	srl	r3,r20,r3
   40c50:	2800031e 	bne	r5,zero,40c60 <__divdf3+0x75c>
   40c54:	99410f84 	addi	r5,r19,1086
   40c58:	a14a983a 	sll	r5,r20,r5
   40c5c:	9164b03a 	or	r18,r18,r5
   40c60:	9024c03a 	cmpne	r18,r18,zero
   40c64:	90e4b03a 	or	r18,r18,r3
   40c68:	910001cc 	andi	r4,r18,7
   40c6c:	20002b1e 	bne	r4,zero,40d1c <__divdf3+0x818>
   40c70:	000b883a 	mov	r5,zero
   40c74:	9024d0fa 	srli	r18,r18,3
   40c78:	0007883a 	mov	r3,zero
   40c7c:	9124b03a 	or	r18,r18,r4
   40c80:	003e7106 	br	40648 <__divdf3+0x144>
   40c84:	1025883a 	mov	r18,r2
   40c88:	b9ff8f1e 	bne	r23,r7,40ac8 <__divdf3+0x5c4>
   40c8c:	d8800017 	ldw	r2,0(sp)
   40c90:	20bf8d1e 	bne	r4,r2,40ac8 <__divdf3+0x5c4>
   40c94:	003ecf06 	br	407d4 <__divdf3+0x2d0>
   40c98:	047f950e 	bge	zero,r17,40af0 <__divdf3+0x5ec>
   40c9c:	000d883a 	mov	r6,zero
   40ca0:	01000044 	movi	r4,1
   40ca4:	a129883a 	add	r20,r20,r4
   40ca8:	003ece06 	br	407e4 <__divdf3+0x2e0>
   40cac:	908003cc 	andi	r2,r18,15
   40cb0:	10800118 	cmpnei	r2,r2,4
   40cb4:	103eca26 	beq	r2,zero,407e0 <__divdf3+0x2dc>
   40cb8:	91800104 	addi	r6,r18,4
   40cbc:	013ffec4 	movi	r4,-5
   40cc0:	300cd0fa 	srli	r6,r6,3
   40cc4:	2489803a 	cmpltu	r4,r4,r18
   40cc8:	003ff606 	br	40ca4 <__divdf3+0x7a0>
   40ccc:	1021883a 	mov	r16,r2
   40cd0:	003f6706 	br	40a70 <__divdf3+0x56c>
   40cd4:	1013883a 	mov	r9,r2
   40cd8:	003f4c06 	br	40a0c <__divdf3+0x508>
   40cdc:	84bfac2e 	bgeu	r16,r18,40b90 <__divdf3+0x68c>
   40ce0:	d8800017 	ldw	r2,0(sp)
   40ce4:	a53fff84 	addi	r20,r20,-2
   40ce8:	80a1883a 	add	r16,r16,r2
   40cec:	8085803a 	cmpltu	r2,r16,r2
   40cf0:	1585883a 	add	r2,r2,r22
   40cf4:	2089883a 	add	r4,r4,r2
   40cf8:	003f2706 	br	40998 <__divdf3+0x494>
   40cfc:	d8c00017 	ldw	r3,0(sp)
   40d00:	94bfff84 	addi	r18,r18,-2
   40d04:	18c5883a 	add	r2,r3,r3
   40d08:	10c7803a 	cmpltu	r3,r2,r3
   40d0c:	1d8d883a 	add	r6,r3,r22
   40d10:	b9af883a 	add	r23,r23,r6
   40d14:	d8800015 	stw	r2,0(sp)
   40d18:	003fdb06 	br	40c88 <__divdf3+0x784>
   40d1c:	908003cc 	andi	r2,r18,15
   40d20:	10800118 	cmpnei	r2,r2,4
   40d24:	000b883a 	mov	r5,zero
   40d28:	103f851e 	bne	r2,zero,40b40 <__divdf3+0x63c>
   40d2c:	2804927a 	slli	r2,r5,9
   40d30:	2808977a 	slli	r4,r5,29
   40d34:	100ad33a 	srli	r5,r2,12
   40d38:	003fce06 	br	40c74 <__divdf3+0x770>
   40d3c:	00800434 	movhi	r2,16
   40d40:	a1400234 	orhi	r5,r20,8
   40d44:	10bfffc4 	addi	r2,r2,-1
   40d48:	288a703a 	and	r5,r5,r2
   40d4c:	003eb706 	br	4082c <__divdf3+0x328>
   40d50:	d8c00017 	ldw	r3,0(sp)
   40d54:	193fe936 	bltu	r3,r4,40cfc <__divdf3+0x7f8>
   40d58:	1025883a 	mov	r18,r2
   40d5c:	003fcb06 	br	40c8c <__divdf3+0x788>

00040d60 <__extendsfdf2>:
   40d60:	200ad5fa 	srli	r5,r4,23
   40d64:	defffd04 	addi	sp,sp,-12
   40d68:	dc000015 	stw	r16,0(sp)
   40d6c:	29403fcc 	andi	r5,r5,255
   40d70:	04002034 	movhi	r16,128
   40d74:	28800044 	addi	r2,r5,1
   40d78:	dc400115 	stw	r17,4(sp)
   40d7c:	843fffc4 	addi	r16,r16,-1
   40d80:	dfc00215 	stw	ra,8(sp)
   40d84:	10803f8c 	andi	r2,r2,254
   40d88:	2022d7fa 	srli	r17,r4,31
   40d8c:	8120703a 	and	r16,r16,r4
   40d90:	10000d26 	beq	r2,zero,40dc8 <__extendsfdf2+0x68>
   40d94:	8008d0fa 	srli	r4,r16,3
   40d98:	8020977a 	slli	r16,r16,29
   40d9c:	28c0e004 	addi	r3,r5,896
   40da0:	180a953a 	slli	r5,r3,20
   40da4:	880697fa 	slli	r3,r17,31
   40da8:	8005883a 	mov	r2,r16
   40dac:	290ab03a 	or	r5,r5,r4
   40db0:	28c6b03a 	or	r3,r5,r3
   40db4:	dfc00217 	ldw	ra,8(sp)
   40db8:	dc400117 	ldw	r17,4(sp)
   40dbc:	dc000017 	ldw	r16,0(sp)
   40dc0:	dec00304 	addi	sp,sp,12
   40dc4:	f800283a 	ret
   40dc8:	2800111e 	bne	r5,zero,40e10 <__extendsfdf2+0xb0>
   40dcc:	80001926 	beq	r16,zero,40e34 <__extendsfdf2+0xd4>
   40dd0:	8009883a 	mov	r4,r16
   40dd4:	0040e5c0 	call	40e5c <__clzsi2>
   40dd8:	10c002c8 	cmpgei	r3,r2,11
   40ddc:	18001b1e 	bne	r3,zero,40e4c <__extendsfdf2+0xec>
   40de0:	010002c4 	movi	r4,11
   40de4:	2089c83a 	sub	r4,r4,r2
   40de8:	10c00544 	addi	r3,r2,21
   40dec:	810ad83a 	srl	r5,r16,r4
   40df0:	80e0983a 	sll	r16,r16,r3
   40df4:	01000434 	movhi	r4,16
   40df8:	00c0e244 	movi	r3,905
   40dfc:	213fffc4 	addi	r4,r4,-1
   40e00:	1887c83a 	sub	r3,r3,r2
   40e04:	2908703a 	and	r4,r5,r4
   40e08:	18c1ffcc 	andi	r3,r3,2047
   40e0c:	003fe406 	br	40da0 <__extendsfdf2+0x40>
   40e10:	80000b26 	beq	r16,zero,40e40 <__extendsfdf2+0xe0>
   40e14:	800ad0fa 	srli	r5,r16,3
   40e18:	00800434 	movhi	r2,16
   40e1c:	10bfffc4 	addi	r2,r2,-1
   40e20:	29000234 	orhi	r4,r5,8
   40e24:	8020977a 	slli	r16,r16,29
   40e28:	2088703a 	and	r4,r4,r2
   40e2c:	00c1ffc4 	movi	r3,2047
   40e30:	003fdb06 	br	40da0 <__extendsfdf2+0x40>
   40e34:	0007883a 	mov	r3,zero
   40e38:	0009883a 	mov	r4,zero
   40e3c:	003fd806 	br	40da0 <__extendsfdf2+0x40>
   40e40:	00c1ffc4 	movi	r3,2047
   40e44:	0009883a 	mov	r4,zero
   40e48:	003fd506 	br	40da0 <__extendsfdf2+0x40>
   40e4c:	113ffd44 	addi	r4,r2,-11
   40e50:	810a983a 	sll	r5,r16,r4
   40e54:	0021883a 	mov	r16,zero
   40e58:	003fe606 	br	40df4 <__extendsfdf2+0x94>

00040e5c <__clzsi2>:
   40e5c:	00bfffd4 	movui	r2,65535
   40e60:	11000436 	bltu	r2,r4,40e74 <__clzsi2+0x18>
   40e64:	20804030 	cmpltui	r2,r4,256
   40e68:	10000e26 	beq	r2,zero,40ea4 <__clzsi2+0x48>
   40e6c:	01400804 	movi	r5,32
   40e70:	00000406 	br	40e84 <__clzsi2+0x28>
   40e74:	00804034 	movhi	r2,256
   40e78:	20800736 	bltu	r4,r2,40e98 <__clzsi2+0x3c>
   40e7c:	2008d63a 	srli	r4,r4,24
   40e80:	01400204 	movi	r5,8
   40e84:	00c00174 	movhi	r3,5
   40e88:	20c7883a 	add	r3,r4,r3
   40e8c:	18bf3203 	ldbu	r2,-824(r3)
   40e90:	2885c83a 	sub	r2,r5,r2
   40e94:	f800283a 	ret
   40e98:	2008d43a 	srli	r4,r4,16
   40e9c:	01400404 	movi	r5,16
   40ea0:	003ff806 	br	40e84 <__clzsi2+0x28>
   40ea4:	2008d23a 	srli	r4,r4,8
   40ea8:	01400604 	movi	r5,24
   40eac:	003ff506 	br	40e84 <__clzsi2+0x28>

00040eb0 <__divsi3>:
   40eb0:	20001a16 	blt	r4,zero,40f1c <__divsi3+0x6c>
   40eb4:	000f883a 	mov	r7,zero
   40eb8:	2800020e 	bge	r5,zero,40ec4 <__divsi3+0x14>
   40ebc:	014bc83a 	sub	r5,zero,r5
   40ec0:	39c0005c 	xori	r7,r7,1
   40ec4:	200d883a 	mov	r6,r4
   40ec8:	00c00044 	movi	r3,1
   40ecc:	2900092e 	bgeu	r5,r4,40ef4 <__divsi3+0x44>
   40ed0:	00800804 	movi	r2,32
   40ed4:	00c00044 	movi	r3,1
   40ed8:	00000106 	br	40ee0 <__divsi3+0x30>
   40edc:	10001226 	beq	r2,zero,40f28 <__divsi3+0x78>
   40ee0:	294b883a 	add	r5,r5,r5
   40ee4:	10bfffc4 	addi	r2,r2,-1
   40ee8:	18c7883a 	add	r3,r3,r3
   40eec:	293ffb36 	bltu	r5,r4,40edc <__divsi3+0x2c>
   40ef0:	18000d26 	beq	r3,zero,40f28 <__divsi3+0x78>
   40ef4:	0005883a 	mov	r2,zero
   40ef8:	31400236 	bltu	r6,r5,40f04 <__divsi3+0x54>
   40efc:	314dc83a 	sub	r6,r6,r5
   40f00:	10c4b03a 	or	r2,r2,r3
   40f04:	1806d07a 	srli	r3,r3,1
   40f08:	280ad07a 	srli	r5,r5,1
   40f0c:	183ffa1e 	bne	r3,zero,40ef8 <__divsi3+0x48>
   40f10:	38000126 	beq	r7,zero,40f18 <__divsi3+0x68>
   40f14:	0085c83a 	sub	r2,zero,r2
   40f18:	f800283a 	ret
   40f1c:	0109c83a 	sub	r4,zero,r4
   40f20:	01c00044 	movi	r7,1
   40f24:	003fe406 	br	40eb8 <__divsi3+0x8>
   40f28:	0005883a 	mov	r2,zero
   40f2c:	003ff806 	br	40f10 <__divsi3+0x60>

00040f30 <__modsi3>:
   40f30:	20001916 	blt	r4,zero,40f98 <__modsi3+0x68>
   40f34:	000f883a 	mov	r7,zero
   40f38:	2005883a 	mov	r2,r4
   40f3c:	2800010e 	bge	r5,zero,40f44 <__modsi3+0x14>
   40f40:	014bc83a 	sub	r5,zero,r5
   40f44:	00c00044 	movi	r3,1
   40f48:	2900092e 	bgeu	r5,r4,40f70 <__modsi3+0x40>
   40f4c:	01800804 	movi	r6,32
   40f50:	00c00044 	movi	r3,1
   40f54:	00000106 	br	40f5c <__modsi3+0x2c>
   40f58:	30000d26 	beq	r6,zero,40f90 <__modsi3+0x60>
   40f5c:	294b883a 	add	r5,r5,r5
   40f60:	31bfffc4 	addi	r6,r6,-1
   40f64:	18c7883a 	add	r3,r3,r3
   40f68:	293ffb36 	bltu	r5,r4,40f58 <__modsi3+0x28>
   40f6c:	18000826 	beq	r3,zero,40f90 <__modsi3+0x60>
   40f70:	1806d07a 	srli	r3,r3,1
   40f74:	11400136 	bltu	r2,r5,40f7c <__modsi3+0x4c>
   40f78:	1145c83a 	sub	r2,r2,r5
   40f7c:	280ad07a 	srli	r5,r5,1
   40f80:	183ffb1e 	bne	r3,zero,40f70 <__modsi3+0x40>
   40f84:	38000126 	beq	r7,zero,40f8c <__modsi3+0x5c>
   40f88:	0085c83a 	sub	r2,zero,r2
   40f8c:	f800283a 	ret
   40f90:	2005883a 	mov	r2,r4
   40f94:	003ffb06 	br	40f84 <__modsi3+0x54>
   40f98:	0109c83a 	sub	r4,zero,r4
   40f9c:	01c00044 	movi	r7,1
   40fa0:	003fe506 	br	40f38 <__modsi3+0x8>

00040fa4 <__udivsi3>:
   40fa4:	200d883a 	mov	r6,r4
   40fa8:	2900152e 	bgeu	r5,r4,41000 <__udivsi3+0x5c>
   40fac:	28001416 	blt	r5,zero,41000 <__udivsi3+0x5c>
   40fb0:	00800804 	movi	r2,32
   40fb4:	00c00044 	movi	r3,1
   40fb8:	00000206 	br	40fc4 <__udivsi3+0x20>
   40fbc:	10000e26 	beq	r2,zero,40ff8 <__udivsi3+0x54>
   40fc0:	28000516 	blt	r5,zero,40fd8 <__udivsi3+0x34>
   40fc4:	294b883a 	add	r5,r5,r5
   40fc8:	10bfffc4 	addi	r2,r2,-1
   40fcc:	18c7883a 	add	r3,r3,r3
   40fd0:	293ffa36 	bltu	r5,r4,40fbc <__udivsi3+0x18>
   40fd4:	18000826 	beq	r3,zero,40ff8 <__udivsi3+0x54>
   40fd8:	0005883a 	mov	r2,zero
   40fdc:	31400236 	bltu	r6,r5,40fe8 <__udivsi3+0x44>
   40fe0:	314dc83a 	sub	r6,r6,r5
   40fe4:	10c4b03a 	or	r2,r2,r3
   40fe8:	1806d07a 	srli	r3,r3,1
   40fec:	280ad07a 	srli	r5,r5,1
   40ff0:	183ffa1e 	bne	r3,zero,40fdc <__udivsi3+0x38>
   40ff4:	f800283a 	ret
   40ff8:	0005883a 	mov	r2,zero
   40ffc:	f800283a 	ret
   41000:	00c00044 	movi	r3,1
   41004:	003ff406 	br	40fd8 <__udivsi3+0x34>

00041008 <__umodsi3>:
   41008:	2005883a 	mov	r2,r4
   4100c:	2900132e 	bgeu	r5,r4,4105c <__umodsi3+0x54>
   41010:	28001216 	blt	r5,zero,4105c <__umodsi3+0x54>
   41014:	01800804 	movi	r6,32
   41018:	00c00044 	movi	r3,1
   4101c:	00000206 	br	41028 <__umodsi3+0x20>
   41020:	30000c26 	beq	r6,zero,41054 <__umodsi3+0x4c>
   41024:	28000516 	blt	r5,zero,4103c <__umodsi3+0x34>
   41028:	294b883a 	add	r5,r5,r5
   4102c:	31bfffc4 	addi	r6,r6,-1
   41030:	18c7883a 	add	r3,r3,r3
   41034:	293ffa36 	bltu	r5,r4,41020 <__umodsi3+0x18>
   41038:	18000626 	beq	r3,zero,41054 <__umodsi3+0x4c>
   4103c:	1806d07a 	srli	r3,r3,1
   41040:	11400136 	bltu	r2,r5,41048 <__umodsi3+0x40>
   41044:	1145c83a 	sub	r2,r2,r5
   41048:	280ad07a 	srli	r5,r5,1
   4104c:	183ffb1e 	bne	r3,zero,4103c <__umodsi3+0x34>
   41050:	f800283a 	ret
   41054:	2005883a 	mov	r2,r4
   41058:	f800283a 	ret
   4105c:	00c00044 	movi	r3,1
   41060:	003ff606 	br	4103c <__umodsi3+0x34>

00041064 <_printf_r>:
   41064:	defffd04 	addi	sp,sp,-12
   41068:	2805883a 	mov	r2,r5
   4106c:	dfc00015 	stw	ra,0(sp)
   41070:	d9800115 	stw	r6,4(sp)
   41074:	d9c00215 	stw	r7,8(sp)
   41078:	21400217 	ldw	r5,8(r4)
   4107c:	d9c00104 	addi	r7,sp,4
   41080:	100d883a 	mov	r6,r2
   41084:	00412400 	call	41240 <___vfprintf_internal_r>
   41088:	dfc00017 	ldw	ra,0(sp)
   4108c:	dec00304 	addi	sp,sp,12
   41090:	f800283a 	ret

00041094 <printf>:
   41094:	defffc04 	addi	sp,sp,-16
   41098:	dfc00015 	stw	ra,0(sp)
   4109c:	d9400115 	stw	r5,4(sp)
   410a0:	d9800215 	stw	r6,8(sp)
   410a4:	d9c00315 	stw	r7,12(sp)
   410a8:	00800174 	movhi	r2,5
   410ac:	1087ad17 	ldw	r2,7860(r2)
   410b0:	200b883a 	mov	r5,r4
   410b4:	d9800104 	addi	r6,sp,4
   410b8:	11000217 	ldw	r4,8(r2)
   410bc:	00433340 	call	43334 <__vfprintf_internal>
   410c0:	dfc00017 	ldw	ra,0(sp)
   410c4:	dec00404 	addi	sp,sp,16
   410c8:	f800283a 	ret

000410cc <_puts_r>:
   410cc:	defff504 	addi	sp,sp,-44
   410d0:	dc000815 	stw	r16,32(sp)
   410d4:	2021883a 	mov	r16,r4
   410d8:	2809883a 	mov	r4,r5
   410dc:	dc400915 	stw	r17,36(sp)
   410e0:	dfc00a15 	stw	ra,40(sp)
   410e4:	2823883a 	mov	r17,r5
   410e8:	00411a80 	call	411a8 <strlen>
   410ec:	11000044 	addi	r4,r2,1
   410f0:	d8800515 	stw	r2,20(sp)
   410f4:	00800044 	movi	r2,1
   410f8:	00c00174 	movhi	r3,5
   410fc:	d8800715 	stw	r2,28(sp)
   41100:	d8800404 	addi	r2,sp,16
   41104:	18ff7204 	addi	r3,r3,-568
   41108:	d8800115 	stw	r2,4(sp)
   4110c:	00800084 	movi	r2,2
   41110:	dc400415 	stw	r17,16(sp)
   41114:	d8c00615 	stw	r3,24(sp)
   41118:	d9000315 	stw	r4,12(sp)
   4111c:	d8800215 	stw	r2,8(sp)
   41120:	81400217 	ldw	r5,8(r16)
   41124:	80000226 	beq	r16,zero,41130 <_puts_r+0x64>
   41128:	80800e17 	ldw	r2,56(r16)
   4112c:	10001326 	beq	r2,zero,4117c <_puts_r+0xb0>
   41130:	2880030b 	ldhu	r2,12(r5)
   41134:	10c8000c 	andi	r3,r2,8192
   41138:	1800061e 	bne	r3,zero,41154 <_puts_r+0x88>
   4113c:	28c01917 	ldw	r3,100(r5)
   41140:	0137ffc4 	movi	r4,-8193
   41144:	10880014 	ori	r2,r2,8192
   41148:	1906703a 	and	r3,r3,r4
   4114c:	2880030d 	sth	r2,12(r5)
   41150:	28c01915 	stw	r3,100(r5)
   41154:	d9800104 	addi	r6,sp,4
   41158:	8009883a 	mov	r4,r16
   4115c:	00459780 	call	45978 <__sfvwrite_r>
   41160:	10000b1e 	bne	r2,zero,41190 <_puts_r+0xc4>
   41164:	00800284 	movi	r2,10
   41168:	dfc00a17 	ldw	ra,40(sp)
   4116c:	dc400917 	ldw	r17,36(sp)
   41170:	dc000817 	ldw	r16,32(sp)
   41174:	dec00b04 	addi	sp,sp,44
   41178:	f800283a 	ret
   4117c:	8009883a 	mov	r4,r16
   41180:	d9400015 	stw	r5,0(sp)
   41184:	00455180 	call	45518 <__sinit>
   41188:	d9400017 	ldw	r5,0(sp)
   4118c:	003fe806 	br	41130 <_puts_r+0x64>
   41190:	00bfffc4 	movi	r2,-1
   41194:	003ff406 	br	41168 <_puts_r+0x9c>

00041198 <puts>:
   41198:	00800174 	movhi	r2,5
   4119c:	200b883a 	mov	r5,r4
   411a0:	1107ad17 	ldw	r4,7860(r2)
   411a4:	00410cc1 	jmpi	410cc <_puts_r>

000411a8 <strlen>:
   411a8:	208000cc 	andi	r2,r4,3
   411ac:	10000926 	beq	r2,zero,411d4 <strlen+0x2c>
   411b0:	2005883a 	mov	r2,r4
   411b4:	00000306 	br	411c4 <strlen+0x1c>
   411b8:	10800044 	addi	r2,r2,1
   411bc:	10c000cc 	andi	r3,r2,3
   411c0:	18000526 	beq	r3,zero,411d8 <strlen+0x30>
   411c4:	10c00007 	ldb	r3,0(r2)
   411c8:	183ffb1e 	bne	r3,zero,411b8 <strlen+0x10>
   411cc:	1105c83a 	sub	r2,r2,r4
   411d0:	f800283a 	ret
   411d4:	2005883a 	mov	r2,r4
   411d8:	11400017 	ldw	r5,0(r2)
   411dc:	01ffbff4 	movhi	r7,65279
   411e0:	39ffbfc4 	addi	r7,r7,-257
   411e4:	29c7883a 	add	r3,r5,r7
   411e8:	01a02074 	movhi	r6,32897
   411ec:	014a303a 	nor	r5,zero,r5
   411f0:	1946703a 	and	r3,r3,r5
   411f4:	31a02004 	addi	r6,r6,-32640
   411f8:	1986703a 	and	r3,r3,r6
   411fc:	1800071e 	bne	r3,zero,4121c <strlen+0x74>
   41200:	11400117 	ldw	r5,4(r2)
   41204:	10800104 	addi	r2,r2,4
   41208:	29c7883a 	add	r3,r5,r7
   4120c:	014a303a 	nor	r5,zero,r5
   41210:	1946703a 	and	r3,r3,r5
   41214:	1986703a 	and	r3,r3,r6
   41218:	183ff926 	beq	r3,zero,41200 <strlen+0x58>
   4121c:	10c00007 	ldb	r3,0(r2)
   41220:	183fea26 	beq	r3,zero,411cc <strlen+0x24>
   41224:	10c00047 	ldb	r3,1(r2)
   41228:	10800044 	addi	r2,r2,1
   4122c:	183fe726 	beq	r3,zero,411cc <strlen+0x24>
   41230:	10c00047 	ldb	r3,1(r2)
   41234:	10800044 	addi	r2,r2,1
   41238:	183ffa1e 	bne	r3,zero,41224 <strlen+0x7c>
   4123c:	003fe306 	br	411cc <strlen+0x24>

00041240 <___vfprintf_internal_r>:
   41240:	deffbf04 	addi	sp,sp,-260
   41244:	dfc04015 	stw	ra,256(sp)
   41248:	dd803d15 	stw	r22,244(sp)
   4124c:	dcc03a15 	stw	r19,232(sp)
   41250:	dc803915 	stw	r18,228(sp)
   41254:	2027883a 	mov	r19,r4
   41258:	2825883a 	mov	r18,r5
   4125c:	302d883a 	mov	r22,r6
   41260:	d9c00615 	stw	r7,24(sp)
   41264:	df003f15 	stw	fp,252(sp)
   41268:	ddc03e15 	stw	r23,248(sp)
   4126c:	dd403c15 	stw	r21,240(sp)
   41270:	dd003b15 	stw	r20,236(sp)
   41274:	dc403815 	stw	r17,224(sp)
   41278:	dc003715 	stw	r16,220(sp)
   4127c:	0045f780 	call	45f78 <_localeconv_r>
   41280:	10800017 	ldw	r2,0(r2)
   41284:	1009883a 	mov	r4,r2
   41288:	d8800d15 	stw	r2,52(sp)
   4128c:	00411a80 	call	411a8 <strlen>
   41290:	d8800b15 	stw	r2,44(sp)
   41294:	98000226 	beq	r19,zero,412a0 <___vfprintf_internal_r+0x60>
   41298:	98800e17 	ldw	r2,56(r19)
   4129c:	1001de26 	beq	r2,zero,41a18 <___vfprintf_internal_r+0x7d8>
   412a0:	9080030b 	ldhu	r2,12(r18)
   412a4:	10c8000c 	andi	r3,r2,8192
   412a8:	1800061e 	bne	r3,zero,412c4 <___vfprintf_internal_r+0x84>
   412ac:	90c01917 	ldw	r3,100(r18)
   412b0:	0137ffc4 	movi	r4,-8193
   412b4:	10880014 	ori	r2,r2,8192
   412b8:	1906703a 	and	r3,r3,r4
   412bc:	9080030d 	sth	r2,12(r18)
   412c0:	90c01915 	stw	r3,100(r18)
   412c4:	10c0020c 	andi	r3,r2,8
   412c8:	1800fa26 	beq	r3,zero,416b4 <___vfprintf_internal_r+0x474>
   412cc:	90c00417 	ldw	r3,16(r18)
   412d0:	1800f826 	beq	r3,zero,416b4 <___vfprintf_internal_r+0x474>
   412d4:	1080068c 	andi	r2,r2,26
   412d8:	10800298 	cmpnei	r2,r2,10
   412dc:	1000fd26 	beq	r2,zero,416d4 <___vfprintf_internal_r+0x494>
   412e0:	d8802704 	addi	r2,sp,156
   412e4:	b02f883a 	mov	r23,r22
   412e8:	d8801a15 	stw	r2,104(sp)
   412ec:	d8001c15 	stw	zero,112(sp)
   412f0:	d8001b15 	stw	zero,108(sp)
   412f4:	d8000815 	stw	zero,32(sp)
   412f8:	d8000915 	stw	zero,36(sp)
   412fc:	d8000a15 	stw	zero,40(sp)
   41300:	d8000c15 	stw	zero,48(sp)
   41304:	d8001015 	stw	zero,64(sp)
   41308:	d8000515 	stw	zero,20(sp)
   4130c:	102d883a 	mov	r22,r2
   41310:	b8800007 	ldb	r2,0(r23)
   41314:	1000d526 	beq	r2,zero,4166c <___vfprintf_internal_r+0x42c>
   41318:	b821883a 	mov	r16,r23
   4131c:	00000306 	br	4132c <___vfprintf_internal_r+0xec>
   41320:	80800047 	ldb	r2,1(r16)
   41324:	84000044 	addi	r16,r16,1
   41328:	10012026 	beq	r2,zero,417ac <___vfprintf_internal_r+0x56c>
   4132c:	10800958 	cmpnei	r2,r2,37
   41330:	103ffb1e 	bne	r2,zero,41320 <___vfprintf_internal_r+0xe0>
   41334:	85e3c83a 	sub	r17,r16,r23
   41338:	85c11e1e 	bne	r16,r23,417b4 <___vfprintf_internal_r+0x574>
   4133c:	80800003 	ldbu	r2,0(r16)
   41340:	10803fcc 	andi	r2,r2,255
   41344:	1080201c 	xori	r2,r2,128
   41348:	10bfe004 	addi	r2,r2,-128
   4134c:	1000c726 	beq	r2,zero,4166c <___vfprintf_internal_r+0x42c>
   41350:	82c00047 	ldb	r11,1(r16)
   41354:	85c00044 	addi	r23,r16,1
   41358:	d8001345 	stb	zero,77(sp)
   4135c:	0009883a 	mov	r4,zero
   41360:	000b883a 	mov	r5,zero
   41364:	023fffc4 	movi	r8,-1
   41368:	0021883a 	mov	r16,zero
   4136c:	0019883a 	mov	r12,zero
   41370:	bdc00044 	addi	r23,r23,1
   41374:	5839883a 	mov	fp,r11
   41378:	e0bff804 	addi	r2,fp,-32
   4137c:	10c01668 	cmpgeui	r3,r2,89
   41380:	18006a1e 	bne	r3,zero,4152c <___vfprintf_internal_r+0x2ec>
   41384:	100490ba 	slli	r2,r2,2
   41388:	00c00134 	movhi	r3,4
   4138c:	10c7883a 	add	r3,r2,r3
   41390:	1884e617 	ldw	r2,5016(r3)
   41394:	1000683a 	jmp	r2
   41398:	00041cd8 	cmpnei	zero,zero,4211
   4139c:	0004152c 	andhi	zero,zero,4180
   413a0:	0004152c 	andhi	zero,zero,4180
   413a4:	00041ccc 	andi	zero,zero,4211
   413a8:	0004152c 	andhi	zero,zero,4180
   413ac:	0004152c 	andhi	zero,zero,4180
   413b0:	0004152c 	andhi	zero,zero,4180
   413b4:	0004152c 	andhi	zero,zero,4180
   413b8:	0004152c 	andhi	zero,zero,4180
   413bc:	0004152c 	andhi	zero,zero,4180
   413c0:	00041ca4 	muli	zero,zero,4210
   413c4:	00041c94 	movui	zero,4210
   413c8:	0004152c 	andhi	zero,zero,4180
   413cc:	00041c7c 	xorhi	zero,zero,4209
   413d0:	00041c38 	rdprs	zero,zero,4208
   413d4:	0004152c 	andhi	zero,zero,4180
   413d8:	00041c2c 	andhi	zero,zero,4208
   413dc:	000414fc 	xorhi	zero,zero,4179
   413e0:	000414fc 	xorhi	zero,zero,4179
   413e4:	000414fc 	xorhi	zero,zero,4179
   413e8:	000414fc 	xorhi	zero,zero,4179
   413ec:	000414fc 	xorhi	zero,zero,4179
   413f0:	000414fc 	xorhi	zero,zero,4179
   413f4:	000414fc 	xorhi	zero,zero,4179
   413f8:	000414fc 	xorhi	zero,zero,4179
   413fc:	000414fc 	xorhi	zero,zero,4179
   41400:	0004152c 	andhi	zero,zero,4180
   41404:	0004152c 	andhi	zero,zero,4180
   41408:	0004152c 	andhi	zero,zero,4180
   4140c:	0004152c 	andhi	zero,zero,4180
   41410:	0004152c 	andhi	zero,zero,4180
   41414:	0004152c 	andhi	zero,zero,4180
   41418:	0004152c 	andhi	zero,zero,4180
   4141c:	0004152c 	andhi	zero,zero,4180
   41420:	0004152c 	andhi	zero,zero,4180
   41424:	0004152c 	andhi	zero,zero,4180
   41428:	00041b44 	movi	zero,4205
   4142c:	00041810 	cmplti	zero,zero,4192
   41430:	0004152c 	andhi	zero,zero,4180
   41434:	00041810 	cmplti	zero,zero,4192
   41438:	0004152c 	andhi	zero,zero,4180
   4143c:	0004152c 	andhi	zero,zero,4180
   41440:	0004152c 	andhi	zero,zero,4180
   41444:	0004152c 	andhi	zero,zero,4180
   41448:	00041b38 	rdprs	zero,zero,4204
   4144c:	0004152c 	andhi	zero,zero,4180
   41450:	0004152c 	andhi	zero,zero,4180
   41454:	00041744 	movi	zero,4189
   41458:	0004152c 	andhi	zero,zero,4180
   4145c:	0004152c 	andhi	zero,zero,4180
   41460:	0004152c 	andhi	zero,zero,4180
   41464:	0004152c 	andhi	zero,zero,4180
   41468:	0004152c 	andhi	zero,zero,4180
   4146c:	0004171c 	xori	zero,zero,4188
   41470:	0004152c 	andhi	zero,zero,4180
   41474:	0004152c 	andhi	zero,zero,4180
   41478:	00041af0 	cmpltui	zero,zero,4203
   4147c:	0004152c 	andhi	zero,zero,4180
   41480:	0004152c 	andhi	zero,zero,4180
   41484:	0004152c 	andhi	zero,zero,4180
   41488:	0004152c 	andhi	zero,zero,4180
   4148c:	0004152c 	andhi	zero,zero,4180
   41490:	0004152c 	andhi	zero,zero,4180
   41494:	0004152c 	andhi	zero,zero,4180
   41498:	0004152c 	andhi	zero,zero,4180
   4149c:	0004152c 	andhi	zero,zero,4180
   414a0:	0004152c 	andhi	zero,zero,4180
   414a4:	00041ac8 	cmpgei	zero,zero,4203
   414a8:	00041a24 	muli	zero,zero,4200
   414ac:	00041810 	cmplti	zero,zero,4192
   414b0:	00041810 	cmplti	zero,zero,4192
   414b4:	00041810 	cmplti	zero,zero,4192
   414b8:	00041abc 	xorhi	zero,zero,4202
   414bc:	00041a24 	muli	zero,zero,4200
   414c0:	0004152c 	andhi	zero,zero,4180
   414c4:	0004152c 	andhi	zero,zero,4180
   414c8:	00041e2c 	andhi	zero,zero,4216
   414cc:	0004152c 	andhi	zero,zero,4180
   414d0:	00041df0 	cmpltui	zero,zero,4215
   414d4:	00041748 	cmpgei	zero,zero,4189
   414d8:	00041db0 	cmpltui	zero,zero,4214
   414dc:	00041da4 	muli	zero,zero,4214
   414e0:	0004152c 	andhi	zero,zero,4180
   414e4:	00041d4c 	andi	zero,zero,4213
   414e8:	0004152c 	andhi	zero,zero,4180
   414ec:	00041720 	cmpeqi	zero,zero,4188
   414f0:	0004152c 	andhi	zero,zero,4180
   414f4:	0004152c 	andhi	zero,zero,4180
   414f8:	00041d04 	movi	zero,4212
   414fc:	0021883a 	mov	r16,zero
   41500:	e0bff404 	addi	r2,fp,-48
   41504:	bf000007 	ldb	fp,0(r23)
   41508:	840002a4 	muli	r16,r16,10
   4150c:	bdc00044 	addi	r23,r23,1
   41510:	1421883a 	add	r16,r2,r16
   41514:	e0bff404 	addi	r2,fp,-48
   41518:	10c002b0 	cmpltui	r3,r2,10
   4151c:	183ff91e 	bne	r3,zero,41504 <___vfprintf_internal_r+0x2c4>
   41520:	e0bff804 	addi	r2,fp,-32
   41524:	10c01668 	cmpgeui	r3,r2,89
   41528:	183f9626 	beq	r3,zero,41384 <___vfprintf_internal_r+0x144>
   4152c:	21003fcc 	andi	r4,r4,255
   41530:	2006851e 	bne	r4,zero,42f48 <___vfprintf_internal_r+0x1d08>
   41534:	e0004d26 	beq	fp,zero,4166c <___vfprintf_internal_r+0x42c>
   41538:	df001d05 	stb	fp,116(sp)
   4153c:	d8001345 	stb	zero,77(sp)
   41540:	05000044 	movi	r20,1
   41544:	05400044 	movi	r21,1
   41548:	dc401d04 	addi	r17,sp,116
   4154c:	db000415 	stw	r12,16(sp)
   41550:	0011883a 	mov	r8,zero
   41554:	d8000715 	stw	zero,28(sp)
   41558:	d8800417 	ldw	r2,16(sp)
   4155c:	1380008c 	andi	r14,r2,2
   41560:	70000126 	beq	r14,zero,41568 <___vfprintf_internal_r+0x328>
   41564:	a5000084 	addi	r20,r20,2
   41568:	d8800417 	ldw	r2,16(sp)
   4156c:	d8c01c17 	ldw	r3,112(sp)
   41570:	1340210c 	andi	r13,r2,132
   41574:	6800021e 	bne	r13,zero,41580 <___vfprintf_internal_r+0x340>
   41578:	850fc83a 	sub	r7,r16,r20
   4157c:	01c34316 	blt	zero,r7,4228c <___vfprintf_internal_r+0x104c>
   41580:	d8801347 	ldb	r2,77(sp)
   41584:	10000c26 	beq	r2,zero,415b8 <___vfprintf_internal_r+0x378>
   41588:	d8801b17 	ldw	r2,108(sp)
   4158c:	d9001344 	addi	r4,sp,77
   41590:	18c00044 	addi	r3,r3,1
   41594:	10800044 	addi	r2,r2,1
   41598:	b1000015 	stw	r4,0(r22)
   4159c:	01000044 	movi	r4,1
   415a0:	d8801b15 	stw	r2,108(sp)
   415a4:	b1000115 	stw	r4,4(r22)
   415a8:	d8c01c15 	stw	r3,112(sp)
   415ac:	10800208 	cmpgei	r2,r2,8
   415b0:	1003771e 	bne	r2,zero,42390 <___vfprintf_internal_r+0x1150>
   415b4:	b5800204 	addi	r22,r22,8
   415b8:	70000c26 	beq	r14,zero,415ec <___vfprintf_internal_r+0x3ac>
   415bc:	d8801b17 	ldw	r2,108(sp)
   415c0:	d9001384 	addi	r4,sp,78
   415c4:	18c00084 	addi	r3,r3,2
   415c8:	10800044 	addi	r2,r2,1
   415cc:	b1000015 	stw	r4,0(r22)
   415d0:	01000084 	movi	r4,2
   415d4:	d8801b15 	stw	r2,108(sp)
   415d8:	b1000115 	stw	r4,4(r22)
   415dc:	d8c01c15 	stw	r3,112(sp)
   415e0:	10800208 	cmpgei	r2,r2,8
   415e4:	1003781e 	bne	r2,zero,423c8 <___vfprintf_internal_r+0x1188>
   415e8:	b5800204 	addi	r22,r22,8
   415ec:	6b402018 	cmpnei	r13,r13,128
   415f0:	68025926 	beq	r13,zero,41f58 <___vfprintf_internal_r+0xd18>
   415f4:	4551c83a 	sub	r8,r8,r21
   415f8:	02029116 	blt	zero,r8,42040 <___vfprintf_internal_r+0xe00>
   415fc:	d8800417 	ldw	r2,16(sp)
   41600:	1080400c 	andi	r2,r2,256
   41604:	10020e1e 	bne	r2,zero,41e40 <___vfprintf_internal_r+0xc00>
   41608:	d8801b17 	ldw	r2,108(sp)
   4160c:	1d47883a 	add	r3,r3,r21
   41610:	b4400015 	stw	r17,0(r22)
   41614:	10800044 	addi	r2,r2,1
   41618:	b5400115 	stw	r21,4(r22)
   4161c:	d8801b15 	stw	r2,108(sp)
   41620:	d8c01c15 	stw	r3,112(sp)
   41624:	10800208 	cmpgei	r2,r2,8
   41628:	10030e1e 	bne	r2,zero,42264 <___vfprintf_internal_r+0x1024>
   4162c:	b5800204 	addi	r22,r22,8
   41630:	d8800417 	ldw	r2,16(sp)
   41634:	1440010c 	andi	r17,r2,4
   41638:	88000226 	beq	r17,zero,41644 <___vfprintf_internal_r+0x404>
   4163c:	8523c83a 	sub	r17,r16,r20
   41640:	0440c616 	blt	zero,r17,4195c <___vfprintf_internal_r+0x71c>
   41644:	8500010e 	bge	r16,r20,4164c <___vfprintf_internal_r+0x40c>
   41648:	a021883a 	mov	r16,r20
   4164c:	d8800517 	ldw	r2,20(sp)
   41650:	1405883a 	add	r2,r2,r16
   41654:	d8800515 	stw	r2,20(sp)
   41658:	1802c01e 	bne	r3,zero,4215c <___vfprintf_internal_r+0xf1c>
   4165c:	b8800007 	ldb	r2,0(r23)
   41660:	d8001b15 	stw	zero,108(sp)
   41664:	dd802704 	addi	r22,sp,156
   41668:	103f2b1e 	bne	r2,zero,41318 <___vfprintf_internal_r+0xd8>
   4166c:	d8801c17 	ldw	r2,112(sp)
   41670:	1006371e 	bne	r2,zero,42f50 <___vfprintf_internal_r+0x1d10>
   41674:	9080030b 	ldhu	r2,12(r18)
   41678:	1080100c 	andi	r2,r2,64
   4167c:	1006cd1e 	bne	r2,zero,431b4 <___vfprintf_internal_r+0x1f74>
   41680:	d8800517 	ldw	r2,20(sp)
   41684:	dfc04017 	ldw	ra,256(sp)
   41688:	df003f17 	ldw	fp,252(sp)
   4168c:	ddc03e17 	ldw	r23,248(sp)
   41690:	dd803d17 	ldw	r22,244(sp)
   41694:	dd403c17 	ldw	r21,240(sp)
   41698:	dd003b17 	ldw	r20,236(sp)
   4169c:	dcc03a17 	ldw	r19,232(sp)
   416a0:	dc803917 	ldw	r18,228(sp)
   416a4:	dc403817 	ldw	r17,224(sp)
   416a8:	dc003717 	ldw	r16,220(sp)
   416ac:	dec04104 	addi	sp,sp,260
   416b0:	f800283a 	ret
   416b4:	900b883a 	mov	r5,r18
   416b8:	9809883a 	mov	r4,r19
   416bc:	00434100 	call	43410 <__swsetup_r>
   416c0:	1006bc1e 	bne	r2,zero,431b4 <___vfprintf_internal_r+0x1f74>
   416c4:	9080030b 	ldhu	r2,12(r18)
   416c8:	1080068c 	andi	r2,r2,26
   416cc:	10800298 	cmpnei	r2,r2,10
   416d0:	103f031e 	bne	r2,zero,412e0 <___vfprintf_internal_r+0xa0>
   416d4:	9080038f 	ldh	r2,14(r18)
   416d8:	103f0116 	blt	r2,zero,412e0 <___vfprintf_internal_r+0xa0>
   416dc:	d9c00617 	ldw	r7,24(sp)
   416e0:	b00d883a 	mov	r6,r22
   416e4:	900b883a 	mov	r5,r18
   416e8:	9809883a 	mov	r4,r19
   416ec:	dfc04017 	ldw	ra,256(sp)
   416f0:	df003f17 	ldw	fp,252(sp)
   416f4:	ddc03e17 	ldw	r23,248(sp)
   416f8:	dd803d17 	ldw	r22,244(sp)
   416fc:	dd403c17 	ldw	r21,240(sp)
   41700:	dd003b17 	ldw	r20,236(sp)
   41704:	dcc03a17 	ldw	r19,232(sp)
   41708:	dc803917 	ldw	r18,228(sp)
   4170c:	dc403817 	ldw	r17,224(sp)
   41710:	dc003717 	ldw	r16,220(sp)
   41714:	dec04104 	addi	sp,sp,260
   41718:	00433501 	jmpi	43350 <__sbprintf>
   4171c:	63000414 	ori	r12,r12,16
   41720:	6080080c 	andi	r2,r12,32
   41724:	10008126 	beq	r2,zero,4192c <___vfprintf_internal_r+0x6ec>
   41728:	d8c00617 	ldw	r3,24(sp)
   4172c:	00800044 	movi	r2,1
   41730:	1d000017 	ldw	r20,0(r3)
   41734:	1d400117 	ldw	r21,4(r3)
   41738:	18c00204 	addi	r3,r3,8
   4173c:	d8c00615 	stw	r3,24(sp)
   41740:	00000906 	br	41768 <___vfprintf_internal_r+0x528>
   41744:	63000414 	ori	r12,r12,16
   41748:	6080080c 	andi	r2,r12,32
   4174c:	10006b26 	beq	r2,zero,418fc <___vfprintf_internal_r+0x6bc>
   41750:	d8c00617 	ldw	r3,24(sp)
   41754:	0005883a 	mov	r2,zero
   41758:	1d000017 	ldw	r20,0(r3)
   4175c:	1d400117 	ldw	r21,4(r3)
   41760:	18c00204 	addi	r3,r3,8
   41764:	d8c00615 	stw	r3,24(sp)
   41768:	d8001345 	stb	zero,77(sp)
   4176c:	40ffffe0 	cmpeqi	r3,r8,-1
   41770:	001b883a 	mov	r13,zero
   41774:	18010e1e 	bne	r3,zero,41bb0 <___vfprintf_internal_r+0x970>
   41778:	047fdfc4 	movi	r17,-129
   4177c:	6448703a 	and	r4,r12,r17
   41780:	a546b03a 	or	r3,r20,r21
   41784:	d9000415 	stw	r4,16(sp)
   41788:	1802be1e 	bne	r3,zero,42284 <___vfprintf_internal_r+0x1044>
   4178c:	40025d1e 	bne	r8,zero,42104 <___vfprintf_internal_r+0xec4>
   41790:	1003731e 	bne	r2,zero,42560 <___vfprintf_internal_r+0x1320>
   41794:	6540004c 	andi	r21,r12,1
   41798:	a803ae26 	beq	r21,zero,42654 <___vfprintf_internal_r+0x1414>
   4179c:	00800c04 	movi	r2,48
   417a0:	d88026c5 	stb	r2,155(sp)
   417a4:	dc4026c4 	addi	r17,sp,155
   417a8:	0000ba06 	br	41a94 <___vfprintf_internal_r+0x854>
   417ac:	85e3c83a 	sub	r17,r16,r23
   417b0:	85ffae26 	beq	r16,r23,4166c <___vfprintf_internal_r+0x42c>
   417b4:	d8c01c17 	ldw	r3,112(sp)
   417b8:	d8801b17 	ldw	r2,108(sp)
   417bc:	b5c00015 	stw	r23,0(r22)
   417c0:	1c47883a 	add	r3,r3,r17
   417c4:	10800044 	addi	r2,r2,1
   417c8:	d8801b15 	stw	r2,108(sp)
   417cc:	b4400115 	stw	r17,4(r22)
   417d0:	d8c01c15 	stw	r3,112(sp)
   417d4:	10800208 	cmpgei	r2,r2,8
   417d8:	1000061e 	bne	r2,zero,417f4 <___vfprintf_internal_r+0x5b4>
   417dc:	b5800204 	addi	r22,r22,8
   417e0:	d8c00517 	ldw	r3,20(sp)
   417e4:	80800003 	ldbu	r2,0(r16)
   417e8:	1c47883a 	add	r3,r3,r17
   417ec:	d8c00515 	stw	r3,20(sp)
   417f0:	003ed306 	br	41340 <___vfprintf_internal_r+0x100>
   417f4:	d9801a04 	addi	r6,sp,104
   417f8:	900b883a 	mov	r5,r18
   417fc:	9809883a 	mov	r4,r19
   41800:	00486f40 	call	486f4 <__sprint_r>
   41804:	103f9b1e 	bne	r2,zero,41674 <___vfprintf_internal_r+0x434>
   41808:	dd802704 	addi	r22,sp,156
   4180c:	003ff406 	br	417e0 <___vfprintf_internal_r+0x5a0>
   41810:	21003fcc 	andi	r4,r4,255
   41814:	2006651e 	bne	r4,zero,431ac <___vfprintf_internal_r+0x1f6c>
   41818:	d8c00617 	ldw	r3,24(sp)
   4181c:	6080020c 	andi	r2,r12,8
   41820:	19000204 	addi	r4,r3,8
   41824:	d9000e15 	stw	r4,56(sp)
   41828:	1003a51e 	bne	r2,zero,426c0 <___vfprintf_internal_r+0x1480>
   4182c:	d8800617 	ldw	r2,24(sp)
   41830:	10c00017 	ldw	r3,0(r2)
   41834:	10800117 	ldw	r2,4(r2)
   41838:	d8c00915 	stw	r3,36(sp)
   4183c:	d8800a15 	stw	r2,40(sp)
   41840:	dd400a17 	ldw	r21,40(sp)
   41844:	dd000917 	ldw	r20,36(sp)
   41848:	00a00034 	movhi	r2,32768
   4184c:	10bfffc4 	addi	r2,r2,-1
   41850:	a8a2703a 	and	r17,r21,r2
   41854:	01dffc34 	movhi	r7,32752
   41858:	01bfffc4 	movi	r6,-1
   4185c:	39ffffc4 	addi	r7,r7,-1
   41860:	a009883a 	mov	r4,r20
   41864:	880b883a 	mov	r5,r17
   41868:	da000615 	stw	r8,24(sp)
   4186c:	db000415 	stw	r12,16(sp)
   41870:	004d1a00 	call	4d1a0 <__unorddf2>
   41874:	db000417 	ldw	r12,16(sp)
   41878:	da000617 	ldw	r8,24(sp)
   4187c:	1004621e 	bne	r2,zero,42a08 <___vfprintf_internal_r+0x17c8>
   41880:	01dffc34 	movhi	r7,32752
   41884:	01bfffc4 	movi	r6,-1
   41888:	39ffffc4 	addi	r7,r7,-1
   4188c:	a009883a 	mov	r4,r20
   41890:	880b883a 	mov	r5,r17
   41894:	004c1900 	call	4c190 <__ledf2>
   41898:	db000417 	ldw	r12,16(sp)
   4189c:	da000617 	ldw	r8,24(sp)
   418a0:	0084590e 	bge	zero,r2,42a08 <___vfprintf_internal_r+0x17c8>
   418a4:	000d883a 	mov	r6,zero
   418a8:	000f883a 	mov	r7,zero
   418ac:	a009883a 	mov	r4,r20
   418b0:	a80b883a 	mov	r5,r21
   418b4:	004c1900 	call	4c190 <__ledf2>
   418b8:	db000417 	ldw	r12,16(sp)
   418bc:	10058f16 	blt	r2,zero,42efc <___vfprintf_internal_r+0x1cbc>
   418c0:	db401343 	ldbu	r13,77(sp)
   418c4:	e0801210 	cmplti	r2,fp,72
   418c8:	1005371e 	bne	r2,zero,42da8 <___vfprintf_internal_r+0x1b68>
   418cc:	04400174 	movhi	r17,5
   418d0:	8c7f7404 	addi	r17,r17,-560
   418d4:	00bfdfc4 	movi	r2,-129
   418d8:	6084703a 	and	r2,r12,r2
   418dc:	d8800415 	stw	r2,16(sp)
   418e0:	d8800e17 	ldw	r2,56(sp)
   418e4:	050000c4 	movi	r20,3
   418e8:	054000c4 	movi	r21,3
   418ec:	d8800615 	stw	r2,24(sp)
   418f0:	0011883a 	mov	r8,zero
   418f4:	d8000715 	stw	zero,28(sp)
   418f8:	00006a06 	br	41aa4 <___vfprintf_internal_r+0x864>
   418fc:	d9000617 	ldw	r4,24(sp)
   41900:	6080040c 	andi	r2,r12,16
   41904:	20c00104 	addi	r3,r4,4
   41908:	1003681e 	bne	r2,zero,426ac <___vfprintf_internal_r+0x146c>
   4190c:	6080100c 	andi	r2,r12,64
   41910:	10051f26 	beq	r2,zero,42d90 <___vfprintf_internal_r+0x1b50>
   41914:	d8800617 	ldw	r2,24(sp)
   41918:	002b883a 	mov	r21,zero
   4191c:	d8c00615 	stw	r3,24(sp)
   41920:	1500000b 	ldhu	r20,0(r2)
   41924:	0005883a 	mov	r2,zero
   41928:	003f8f06 	br	41768 <___vfprintf_internal_r+0x528>
   4192c:	d9000617 	ldw	r4,24(sp)
   41930:	6080040c 	andi	r2,r12,16
   41934:	20c00104 	addi	r3,r4,4
   41938:	10034e1e 	bne	r2,zero,42674 <___vfprintf_internal_r+0x1434>
   4193c:	6080100c 	andi	r2,r12,64
   41940:	10055726 	beq	r2,zero,42ea0 <___vfprintf_internal_r+0x1c60>
   41944:	d8800617 	ldw	r2,24(sp)
   41948:	002b883a 	mov	r21,zero
   4194c:	d8c00615 	stw	r3,24(sp)
   41950:	1500000b 	ldhu	r20,0(r2)
   41954:	00800044 	movi	r2,1
   41958:	003f8306 	br	41768 <___vfprintf_internal_r+0x528>
   4195c:	03000174 	movhi	r12,5
   41960:	89000450 	cmplti	r4,r17,17
   41964:	d8801b17 	ldw	r2,108(sp)
   41968:	633f8804 	addi	r12,r12,-480
   4196c:	20001b1e 	bne	r4,zero,419dc <___vfprintf_internal_r+0x79c>
   41970:	05400404 	movi	r21,16
   41974:	6039883a 	mov	fp,r12
   41978:	00000406 	br	4198c <___vfprintf_internal_r+0x74c>
   4197c:	8c7ffc04 	addi	r17,r17,-16
   41980:	89000448 	cmpgei	r4,r17,17
   41984:	b5800204 	addi	r22,r22,8
   41988:	20001326 	beq	r4,zero,419d8 <___vfprintf_internal_r+0x798>
   4198c:	10800044 	addi	r2,r2,1
   41990:	18c00404 	addi	r3,r3,16
   41994:	b7000015 	stw	fp,0(r22)
   41998:	b5400115 	stw	r21,4(r22)
   4199c:	d8c01c15 	stw	r3,112(sp)
   419a0:	d8801b15 	stw	r2,108(sp)
   419a4:	11000208 	cmpgei	r4,r2,8
   419a8:	203ff426 	beq	r4,zero,4197c <___vfprintf_internal_r+0x73c>
   419ac:	d9801a04 	addi	r6,sp,104
   419b0:	900b883a 	mov	r5,r18
   419b4:	9809883a 	mov	r4,r19
   419b8:	00486f40 	call	486f4 <__sprint_r>
   419bc:	103f2d1e 	bne	r2,zero,41674 <___vfprintf_internal_r+0x434>
   419c0:	8c7ffc04 	addi	r17,r17,-16
   419c4:	89000448 	cmpgei	r4,r17,17
   419c8:	d8c01c17 	ldw	r3,112(sp)
   419cc:	d8801b17 	ldw	r2,108(sp)
   419d0:	dd802704 	addi	r22,sp,156
   419d4:	203fed1e 	bne	r4,zero,4198c <___vfprintf_internal_r+0x74c>
   419d8:	e019883a 	mov	r12,fp
   419dc:	10800044 	addi	r2,r2,1
   419e0:	1c47883a 	add	r3,r3,r17
   419e4:	d8801b15 	stw	r2,108(sp)
   419e8:	b3000015 	stw	r12,0(r22)
   419ec:	b4400115 	stw	r17,4(r22)
   419f0:	d8c01c15 	stw	r3,112(sp)
   419f4:	10800210 	cmplti	r2,r2,8
   419f8:	103f121e 	bne	r2,zero,41644 <___vfprintf_internal_r+0x404>
   419fc:	d9801a04 	addi	r6,sp,104
   41a00:	900b883a 	mov	r5,r18
   41a04:	9809883a 	mov	r4,r19
   41a08:	00486f40 	call	486f4 <__sprint_r>
   41a0c:	103f191e 	bne	r2,zero,41674 <___vfprintf_internal_r+0x434>
   41a10:	d8c01c17 	ldw	r3,112(sp)
   41a14:	003f0b06 	br	41644 <___vfprintf_internal_r+0x404>
   41a18:	9809883a 	mov	r4,r19
   41a1c:	00455180 	call	45518 <__sinit>
   41a20:	003e1f06 	br	412a0 <___vfprintf_internal_r+0x60>
   41a24:	21003fcc 	andi	r4,r4,255
   41a28:	2005dc1e 	bne	r4,zero,4319c <___vfprintf_internal_r+0x1f5c>
   41a2c:	6080080c 	andi	r2,r12,32
   41a30:	10004926 	beq	r2,zero,41b58 <___vfprintf_internal_r+0x918>
   41a34:	d8c00617 	ldw	r3,24(sp)
   41a38:	18800117 	ldw	r2,4(r3)
   41a3c:	1d000017 	ldw	r20,0(r3)
   41a40:	18c00204 	addi	r3,r3,8
   41a44:	d8c00615 	stw	r3,24(sp)
   41a48:	102b883a 	mov	r21,r2
   41a4c:	10004e16 	blt	r2,zero,41b88 <___vfprintf_internal_r+0x948>
   41a50:	40bfffd8 	cmpnei	r2,r8,-1
   41a54:	db401343 	ldbu	r13,77(sp)
   41a58:	10000626 	beq	r2,zero,41a74 <___vfprintf_internal_r+0x834>
   41a5c:	047fdfc4 	movi	r17,-129
   41a60:	6446703a 	and	r3,r12,r17
   41a64:	a544b03a 	or	r2,r20,r21
   41a68:	d8c00415 	stw	r3,16(sp)
   41a6c:	1002bb26 	beq	r2,zero,4255c <___vfprintf_internal_r+0x131c>
   41a70:	db000417 	ldw	r12,16(sp)
   41a74:	a8036e1e 	bne	r21,zero,42830 <___vfprintf_internal_r+0x15f0>
   41a78:	a08002a8 	cmpgeui	r2,r20,10
   41a7c:	10036c1e 	bne	r2,zero,42830 <___vfprintf_internal_r+0x15f0>
   41a80:	a5000c04 	addi	r20,r20,48
   41a84:	dd0026c5 	stb	r20,155(sp)
   41a88:	db000415 	stw	r12,16(sp)
   41a8c:	05400044 	movi	r21,1
   41a90:	dc4026c4 	addi	r17,sp,155
   41a94:	4029883a 	mov	r20,r8
   41a98:	4540010e 	bge	r8,r21,41aa0 <___vfprintf_internal_r+0x860>
   41a9c:	a829883a 	mov	r20,r21
   41aa0:	d8000715 	stw	zero,28(sp)
   41aa4:	6b403fcc 	andi	r13,r13,255
   41aa8:	6b40201c 	xori	r13,r13,128
   41aac:	6b7fe004 	addi	r13,r13,-128
   41ab0:	683ea926 	beq	r13,zero,41558 <___vfprintf_internal_r+0x318>
   41ab4:	a5000044 	addi	r20,r20,1
   41ab8:	003ea706 	br	41558 <___vfprintf_internal_r+0x318>
   41abc:	bac00007 	ldb	r11,0(r23)
   41ac0:	63001014 	ori	r12,r12,64
   41ac4:	003e2a06 	br	41370 <___vfprintf_internal_r+0x130>
   41ac8:	d8c00617 	ldw	r3,24(sp)
   41acc:	d8001345 	stb	zero,77(sp)
   41ad0:	05000044 	movi	r20,1
   41ad4:	18800017 	ldw	r2,0(r3)
   41ad8:	18c00104 	addi	r3,r3,4
   41adc:	d8c00615 	stw	r3,24(sp)
   41ae0:	d8801d05 	stb	r2,116(sp)
   41ae4:	05400044 	movi	r21,1
   41ae8:	dc401d04 	addi	r17,sp,116
   41aec:	003e9706 	br	4154c <___vfprintf_internal_r+0x30c>
   41af0:	21003fcc 	andi	r4,r4,255
   41af4:	2005a51e 	bne	r4,zero,4318c <___vfprintf_internal_r+0x1f4c>
   41af8:	00800174 	movhi	r2,5
   41afc:	10bf7c04 	addi	r2,r2,-528
   41b00:	d8800c15 	stw	r2,48(sp)
   41b04:	6080080c 	andi	r2,r12,32
   41b08:	10008526 	beq	r2,zero,41d20 <___vfprintf_internal_r+0xae0>
   41b0c:	d8800617 	ldw	r2,24(sp)
   41b10:	15000017 	ldw	r20,0(r2)
   41b14:	15400117 	ldw	r21,4(r2)
   41b18:	10800204 	addi	r2,r2,8
   41b1c:	d8800615 	stw	r2,24(sp)
   41b20:	6080004c 	andi	r2,r12,1
   41b24:	10000226 	beq	r2,zero,41b30 <___vfprintf_internal_r+0x8f0>
   41b28:	a544b03a 	or	r2,r20,r21
   41b2c:	1002cb1e 	bne	r2,zero,4265c <___vfprintf_internal_r+0x141c>
   41b30:	00800084 	movi	r2,2
   41b34:	003f0c06 	br	41768 <___vfprintf_internal_r+0x528>
   41b38:	bac00007 	ldb	r11,0(r23)
   41b3c:	63000214 	ori	r12,r12,8
   41b40:	003e0b06 	br	41370 <___vfprintf_internal_r+0x130>
   41b44:	21003fcc 	andi	r4,r4,255
   41b48:	2005961e 	bne	r4,zero,431a4 <___vfprintf_internal_r+0x1f64>
   41b4c:	63000414 	ori	r12,r12,16
   41b50:	6080080c 	andi	r2,r12,32
   41b54:	103fb71e 	bne	r2,zero,41a34 <___vfprintf_internal_r+0x7f4>
   41b58:	d9000617 	ldw	r4,24(sp)
   41b5c:	6080040c 	andi	r2,r12,16
   41b60:	20c00104 	addi	r3,r4,4
   41b64:	1002db1e 	bne	r2,zero,426d4 <___vfprintf_internal_r+0x1494>
   41b68:	6080100c 	andi	r2,r12,64
   41b6c:	10048226 	beq	r2,zero,42d78 <___vfprintf_internal_r+0x1b38>
   41b70:	d8800617 	ldw	r2,24(sp)
   41b74:	d8c00615 	stw	r3,24(sp)
   41b78:	1500000f 	ldh	r20,0(r2)
   41b7c:	a02bd7fa 	srai	r21,r20,31
   41b80:	a805883a 	mov	r2,r21
   41b84:	103fb20e 	bge	r2,zero,41a50 <___vfprintf_internal_r+0x810>
   41b88:	a004c03a 	cmpne	r2,r20,zero
   41b8c:	056bc83a 	sub	r21,zero,r21
   41b90:	a8abc83a 	sub	r21,r21,r2
   41b94:	00800b44 	movi	r2,45
   41b98:	d8801345 	stb	r2,77(sp)
   41b9c:	40ffffe0 	cmpeqi	r3,r8,-1
   41ba0:	0529c83a 	sub	r20,zero,r20
   41ba4:	03400b44 	movi	r13,45
   41ba8:	00800044 	movi	r2,1
   41bac:	183ef226 	beq	r3,zero,41778 <___vfprintf_internal_r+0x538>
   41bb0:	10c00060 	cmpeqi	r3,r2,1
   41bb4:	183faf1e 	bne	r3,zero,41a74 <___vfprintf_internal_r+0x834>
   41bb8:	108000a0 	cmpeqi	r2,r2,2
   41bbc:	1001561e 	bne	r2,zero,42118 <___vfprintf_internal_r+0xed8>
   41bc0:	dc402704 	addi	r17,sp,156
   41bc4:	a006d0fa 	srli	r3,r20,3
   41bc8:	a808977a 	slli	r4,r21,29
   41bcc:	a82ad0fa 	srli	r21,r21,3
   41bd0:	a50001cc 	andi	r20,r20,7
   41bd4:	a0800c04 	addi	r2,r20,48
   41bd8:	20e8b03a 	or	r20,r4,r3
   41bdc:	88bfffc5 	stb	r2,-1(r17)
   41be0:	a546b03a 	or	r3,r20,r21
   41be4:	880b883a 	mov	r5,r17
   41be8:	8c7fffc4 	addi	r17,r17,-1
   41bec:	183ff51e 	bne	r3,zero,41bc4 <___vfprintf_internal_r+0x984>
   41bf0:	60c0004c 	andi	r3,r12,1
   41bf4:	18015526 	beq	r3,zero,4214c <___vfprintf_internal_r+0xf0c>
   41bf8:	10803fcc 	andi	r2,r2,255
   41bfc:	1080201c 	xori	r2,r2,128
   41c00:	10bfe004 	addi	r2,r2,-128
   41c04:	10800c18 	cmpnei	r2,r2,48
   41c08:	10015026 	beq	r2,zero,4214c <___vfprintf_internal_r+0xf0c>
   41c0c:	00800c04 	movi	r2,48
   41c10:	297fff84 	addi	r5,r5,-2
   41c14:	88bfffc5 	stb	r2,-1(r17)
   41c18:	d8802704 	addi	r2,sp,156
   41c1c:	116bc83a 	sub	r21,r2,r5
   41c20:	db000415 	stw	r12,16(sp)
   41c24:	2823883a 	mov	r17,r5
   41c28:	003f9a06 	br	41a94 <___vfprintf_internal_r+0x854>
   41c2c:	bac00007 	ldb	r11,0(r23)
   41c30:	63002014 	ori	r12,r12,128
   41c34:	003dce06 	br	41370 <___vfprintf_internal_r+0x130>
   41c38:	bf000007 	ldb	fp,0(r23)
   41c3c:	b8c00044 	addi	r3,r23,1
   41c40:	e0800aa0 	cmpeqi	r2,fp,42
   41c44:	1005af1e 	bne	r2,zero,43304 <___vfprintf_internal_r+0x20c4>
   41c48:	e0bff404 	addi	r2,fp,-48
   41c4c:	118002b0 	cmpltui	r6,r2,10
   41c50:	182f883a 	mov	r23,r3
   41c54:	0011883a 	mov	r8,zero
   41c58:	303dc726 	beq	r6,zero,41378 <___vfprintf_internal_r+0x138>
   41c5c:	bf000007 	ldb	fp,0(r23)
   41c60:	420002a4 	muli	r8,r8,10
   41c64:	bdc00044 	addi	r23,r23,1
   41c68:	4091883a 	add	r8,r8,r2
   41c6c:	e0bff404 	addi	r2,fp,-48
   41c70:	10c002b0 	cmpltui	r3,r2,10
   41c74:	183ff91e 	bne	r3,zero,41c5c <___vfprintf_internal_r+0xa1c>
   41c78:	003dbf06 	br	41378 <___vfprintf_internal_r+0x138>
   41c7c:	bf000003 	ldbu	fp,0(r23)
   41c80:	e2c03fcc 	andi	r11,fp,255
   41c84:	5ac0201c 	xori	r11,r11,128
   41c88:	63000114 	ori	r12,r12,4
   41c8c:	5affe004 	addi	r11,r11,-128
   41c90:	003db706 	br	41370 <___vfprintf_internal_r+0x130>
   41c94:	bac00007 	ldb	r11,0(r23)
   41c98:	01000044 	movi	r4,1
   41c9c:	01400ac4 	movi	r5,43
   41ca0:	003db306 	br	41370 <___vfprintf_internal_r+0x130>
   41ca4:	d8800617 	ldw	r2,24(sp)
   41ca8:	bf000003 	ldbu	fp,0(r23)
   41cac:	14000017 	ldw	r16,0(r2)
   41cb0:	10800104 	addi	r2,r2,4
   41cb4:	80028c16 	blt	r16,zero,426e8 <___vfprintf_internal_r+0x14a8>
   41cb8:	d8800615 	stw	r2,24(sp)
   41cbc:	e2c03fcc 	andi	r11,fp,255
   41cc0:	5ac0201c 	xori	r11,r11,128
   41cc4:	5affe004 	addi	r11,r11,-128
   41cc8:	003da906 	br	41370 <___vfprintf_internal_r+0x130>
   41ccc:	bac00007 	ldb	r11,0(r23)
   41cd0:	63000054 	ori	r12,r12,1
   41cd4:	003da606 	br	41370 <___vfprintf_internal_r+0x130>
   41cd8:	28803fcc 	andi	r2,r5,255
   41cdc:	1080201c 	xori	r2,r2,128
   41ce0:	10bfe004 	addi	r2,r2,-128
   41ce4:	bf000003 	ldbu	fp,0(r23)
   41ce8:	103ff41e 	bne	r2,zero,41cbc <___vfprintf_internal_r+0xa7c>
   41cec:	e2c03fcc 	andi	r11,fp,255
   41cf0:	5ac0201c 	xori	r11,r11,128
   41cf4:	01000044 	movi	r4,1
   41cf8:	01400804 	movi	r5,32
   41cfc:	5affe004 	addi	r11,r11,-128
   41d00:	003d9b06 	br	41370 <___vfprintf_internal_r+0x130>
   41d04:	21003fcc 	andi	r4,r4,255
   41d08:	20051e1e 	bne	r4,zero,43184 <___vfprintf_internal_r+0x1f44>
   41d0c:	00800174 	movhi	r2,5
   41d10:	10bf7704 	addi	r2,r2,-548
   41d14:	d8800c15 	stw	r2,48(sp)
   41d18:	6080080c 	andi	r2,r12,32
   41d1c:	103f7b1e 	bne	r2,zero,41b0c <___vfprintf_internal_r+0x8cc>
   41d20:	d9000617 	ldw	r4,24(sp)
   41d24:	6080040c 	andi	r2,r12,16
   41d28:	20c00104 	addi	r3,r4,4
   41d2c:	10025b1e 	bne	r2,zero,4269c <___vfprintf_internal_r+0x145c>
   41d30:	6080100c 	andi	r2,r12,64
   41d34:	10046026 	beq	r2,zero,42eb8 <___vfprintf_internal_r+0x1c78>
   41d38:	d8800617 	ldw	r2,24(sp)
   41d3c:	002b883a 	mov	r21,zero
   41d40:	d8c00615 	stw	r3,24(sp)
   41d44:	1500000b 	ldhu	r20,0(r2)
   41d48:	003f7506 	br	41b20 <___vfprintf_internal_r+0x8e0>
   41d4c:	d8800617 	ldw	r2,24(sp)
   41d50:	d8001345 	stb	zero,77(sp)
   41d54:	14400017 	ldw	r17,0(r2)
   41d58:	10c00104 	addi	r3,r2,4
   41d5c:	88028e26 	beq	r17,zero,42798 <___vfprintf_internal_r+0x1558>
   41d60:	40bfffe0 	cmpeqi	r2,r8,-1
   41d64:	1003c01e 	bne	r2,zero,42c68 <___vfprintf_internal_r+0x1a28>
   41d68:	400d883a 	mov	r6,r8
   41d6c:	000b883a 	mov	r5,zero
   41d70:	8809883a 	mov	r4,r17
   41d74:	d8c00715 	stw	r3,28(sp)
   41d78:	db000615 	stw	r12,24(sp)
   41d7c:	da000415 	stw	r8,16(sp)
   41d80:	00469b80 	call	469b8 <memchr>
   41d84:	da000417 	ldw	r8,16(sp)
   41d88:	db000617 	ldw	r12,24(sp)
   41d8c:	d8c00717 	ldw	r3,28(sp)
   41d90:	1004ec26 	beq	r2,zero,43144 <___vfprintf_internal_r+0x1f04>
   41d94:	146bc83a 	sub	r21,r2,r17
   41d98:	a829883a 	mov	r20,r21
   41d9c:	d8c00615 	stw	r3,24(sp)
   41da0:	003dea06 	br	4154c <___vfprintf_internal_r+0x30c>
   41da4:	bac00007 	ldb	r11,0(r23)
   41da8:	63000814 	ori	r12,r12,32
   41dac:	003d7006 	br	41370 <___vfprintf_internal_r+0x130>
   41db0:	d8c00617 	ldw	r3,24(sp)
   41db4:	00800c04 	movi	r2,48
   41db8:	d8801385 	stb	r2,78(sp)
   41dbc:	00801e04 	movi	r2,120
   41dc0:	01000174 	movhi	r4,5
   41dc4:	d88013c5 	stb	r2,79(sp)
   41dc8:	18800104 	addi	r2,r3,4
   41dcc:	d8800615 	stw	r2,24(sp)
   41dd0:	20bf7704 	addi	r2,r4,-548
   41dd4:	d8800c15 	stw	r2,48(sp)
   41dd8:	1d000017 	ldw	r20,0(r3)
   41ddc:	002b883a 	mov	r21,zero
   41de0:	63000094 	ori	r12,r12,2
   41de4:	00800084 	movi	r2,2
   41de8:	07001e04 	movi	fp,120
   41dec:	003e5e06 	br	41768 <___vfprintf_internal_r+0x528>
   41df0:	21003fcc 	andi	r4,r4,255
   41df4:	2004e71e 	bne	r4,zero,43194 <___vfprintf_internal_r+0x1f54>
   41df8:	d9000617 	ldw	r4,24(sp)
   41dfc:	6080080c 	andi	r2,r12,32
   41e00:	20c00017 	ldw	r3,0(r4)
   41e04:	21000104 	addi	r4,r4,4
   41e08:	d9000615 	stw	r4,24(sp)
   41e0c:	10021e1e 	bne	r2,zero,42688 <___vfprintf_internal_r+0x1448>
   41e10:	6080040c 	andi	r2,r12,16
   41e14:	1002ae1e 	bne	r2,zero,428d0 <___vfprintf_internal_r+0x1690>
   41e18:	6300100c 	andi	r12,r12,64
   41e1c:	6002ac26 	beq	r12,zero,428d0 <___vfprintf_internal_r+0x1690>
   41e20:	d8800517 	ldw	r2,20(sp)
   41e24:	1880000d 	sth	r2,0(r3)
   41e28:	003d3906 	br	41310 <___vfprintf_internal_r+0xd0>
   41e2c:	bac00007 	ldb	r11,0(r23)
   41e30:	58801b18 	cmpnei	r2,r11,108
   41e34:	10024926 	beq	r2,zero,4275c <___vfprintf_internal_r+0x151c>
   41e38:	63000414 	ori	r12,r12,16
   41e3c:	003d4c06 	br	41370 <___vfprintf_internal_r+0x130>
   41e40:	e2c01990 	cmplti	r11,fp,102
   41e44:	5800cb1e 	bne	r11,zero,42174 <___vfprintf_internal_r+0xf34>
   41e48:	d9000917 	ldw	r4,36(sp)
   41e4c:	d9400a17 	ldw	r5,40(sp)
   41e50:	000d883a 	mov	r6,zero
   41e54:	000f883a 	mov	r7,zero
   41e58:	d8c00e15 	stw	r3,56(sp)
   41e5c:	004c0280 	call	4c028 <__eqdf2>
   41e60:	d8c00e17 	ldw	r3,56(sp)
   41e64:	1001641e 	bne	r2,zero,423f8 <___vfprintf_internal_r+0x11b8>
   41e68:	d8801b17 	ldw	r2,108(sp)
   41e6c:	01000174 	movhi	r4,5
   41e70:	213f8304 	addi	r4,r4,-500
   41e74:	10800044 	addi	r2,r2,1
   41e78:	18c00044 	addi	r3,r3,1
   41e7c:	b1000015 	stw	r4,0(r22)
   41e80:	01000044 	movi	r4,1
   41e84:	d8801b15 	stw	r2,108(sp)
   41e88:	b1000115 	stw	r4,4(r22)
   41e8c:	d8c01c15 	stw	r3,112(sp)
   41e90:	10800208 	cmpgei	r2,r2,8
   41e94:	1003621e 	bne	r2,zero,42c20 <___vfprintf_internal_r+0x19e0>
   41e98:	b5800204 	addi	r22,r22,8
   41e9c:	d8801417 	ldw	r2,80(sp)
   41ea0:	d9000817 	ldw	r4,32(sp)
   41ea4:	1101e70e 	bge	r2,r4,42644 <___vfprintf_internal_r+0x1404>
   41ea8:	d8800d17 	ldw	r2,52(sp)
   41eac:	d9000b17 	ldw	r4,44(sp)
   41eb0:	b0800015 	stw	r2,0(r22)
   41eb4:	d8801b17 	ldw	r2,108(sp)
   41eb8:	1907883a 	add	r3,r3,r4
   41ebc:	b1000115 	stw	r4,4(r22)
   41ec0:	10800044 	addi	r2,r2,1
   41ec4:	d8801b15 	stw	r2,108(sp)
   41ec8:	d8c01c15 	stw	r3,112(sp)
   41ecc:	10800208 	cmpgei	r2,r2,8
   41ed0:	1002291e 	bne	r2,zero,42778 <___vfprintf_internal_r+0x1538>
   41ed4:	b5800204 	addi	r22,r22,8
   41ed8:	d8800817 	ldw	r2,32(sp)
   41edc:	157fffc4 	addi	r21,r2,-1
   41ee0:	057dd30e 	bge	zero,r21,41630 <___vfprintf_internal_r+0x3f0>
   41ee4:	01c00174 	movhi	r7,5
   41ee8:	a9000450 	cmplti	r4,r21,17
   41eec:	d8801b17 	ldw	r2,108(sp)
   41ef0:	39ff8404 	addi	r7,r7,-496
   41ef4:	2003461e 	bne	r4,zero,42c10 <___vfprintf_internal_r+0x19d0>
   41ef8:	07000404 	movi	fp,16
   41efc:	3823883a 	mov	r17,r7
   41f00:	00000406 	br	41f14 <___vfprintf_internal_r+0xcd4>
   41f04:	b5800204 	addi	r22,r22,8
   41f08:	ad7ffc04 	addi	r21,r21,-16
   41f0c:	a9000448 	cmpgei	r4,r21,17
   41f10:	20033e26 	beq	r4,zero,42c0c <___vfprintf_internal_r+0x19cc>
   41f14:	10800044 	addi	r2,r2,1
   41f18:	18c00404 	addi	r3,r3,16
   41f1c:	b4400015 	stw	r17,0(r22)
   41f20:	b7000115 	stw	fp,4(r22)
   41f24:	d8c01c15 	stw	r3,112(sp)
   41f28:	d8801b15 	stw	r2,108(sp)
   41f2c:	11000208 	cmpgei	r4,r2,8
   41f30:	203ff426 	beq	r4,zero,41f04 <___vfprintf_internal_r+0xcc4>
   41f34:	d9801a04 	addi	r6,sp,104
   41f38:	900b883a 	mov	r5,r18
   41f3c:	9809883a 	mov	r4,r19
   41f40:	00486f40 	call	486f4 <__sprint_r>
   41f44:	103dcb1e 	bne	r2,zero,41674 <___vfprintf_internal_r+0x434>
   41f48:	d8c01c17 	ldw	r3,112(sp)
   41f4c:	d8801b17 	ldw	r2,108(sp)
   41f50:	dd802704 	addi	r22,sp,156
   41f54:	003fec06 	br	41f08 <___vfprintf_internal_r+0xcc8>
   41f58:	8519c83a 	sub	r12,r16,r20
   41f5c:	033da50e 	bge	zero,r12,415f4 <___vfprintf_internal_r+0x3b4>
   41f60:	01c00174 	movhi	r7,5
   41f64:	61000450 	cmplti	r4,r12,17
   41f68:	d8801b17 	ldw	r2,108(sp)
   41f6c:	39ff8404 	addi	r7,r7,-496
   41f70:	2000281e 	bne	r4,zero,42014 <___vfprintf_internal_r+0xdd4>
   41f74:	dc400e15 	stw	r17,56(sp)
   41f78:	dc000f15 	stw	r16,60(sp)
   41f7c:	b009883a 	mov	r4,r22
   41f80:	03400404 	movi	r13,16
   41f84:	a02d883a 	mov	r22,r20
   41f88:	6021883a 	mov	r16,r12
   41f8c:	4029883a 	mov	r20,r8
   41f90:	3823883a 	mov	r17,r7
   41f94:	00000406 	br	41fa8 <___vfprintf_internal_r+0xd68>
   41f98:	843ffc04 	addi	r16,r16,-16
   41f9c:	81400448 	cmpgei	r5,r16,17
   41fa0:	21000204 	addi	r4,r4,8
   41fa4:	28001426 	beq	r5,zero,41ff8 <___vfprintf_internal_r+0xdb8>
   41fa8:	10800044 	addi	r2,r2,1
   41fac:	18c00404 	addi	r3,r3,16
   41fb0:	24400015 	stw	r17,0(r4)
   41fb4:	23400115 	stw	r13,4(r4)
   41fb8:	d8c01c15 	stw	r3,112(sp)
   41fbc:	d8801b15 	stw	r2,108(sp)
   41fc0:	11400208 	cmpgei	r5,r2,8
   41fc4:	283ff426 	beq	r5,zero,41f98 <___vfprintf_internal_r+0xd58>
   41fc8:	d9801a04 	addi	r6,sp,104
   41fcc:	900b883a 	mov	r5,r18
   41fd0:	9809883a 	mov	r4,r19
   41fd4:	00486f40 	call	486f4 <__sprint_r>
   41fd8:	103da61e 	bne	r2,zero,41674 <___vfprintf_internal_r+0x434>
   41fdc:	843ffc04 	addi	r16,r16,-16
   41fe0:	81400448 	cmpgei	r5,r16,17
   41fe4:	d8c01c17 	ldw	r3,112(sp)
   41fe8:	d8801b17 	ldw	r2,108(sp)
   41fec:	d9002704 	addi	r4,sp,156
   41ff0:	03400404 	movi	r13,16
   41ff4:	283fec1e 	bne	r5,zero,41fa8 <___vfprintf_internal_r+0xd68>
   41ff8:	8019883a 	mov	r12,r16
   41ffc:	880f883a 	mov	r7,r17
   42000:	dc000f17 	ldw	r16,60(sp)
   42004:	dc400e17 	ldw	r17,56(sp)
   42008:	a011883a 	mov	r8,r20
   4200c:	b029883a 	mov	r20,r22
   42010:	202d883a 	mov	r22,r4
   42014:	10800044 	addi	r2,r2,1
   42018:	1b07883a 	add	r3,r3,r12
   4201c:	d8801b15 	stw	r2,108(sp)
   42020:	b1c00015 	stw	r7,0(r22)
   42024:	b3000115 	stw	r12,4(r22)
   42028:	d8c01c15 	stw	r3,112(sp)
   4202c:	10800208 	cmpgei	r2,r2,8
   42030:	1003031e 	bne	r2,zero,42c40 <___vfprintf_internal_r+0x1a00>
   42034:	4551c83a 	sub	r8,r8,r21
   42038:	b5800204 	addi	r22,r22,8
   4203c:	023d6f0e 	bge	zero,r8,415fc <___vfprintf_internal_r+0x3bc>
   42040:	01c00174 	movhi	r7,5
   42044:	41000450 	cmplti	r4,r8,17
   42048:	d8801b17 	ldw	r2,108(sp)
   4204c:	39ff8404 	addi	r7,r7,-496
   42050:	2000221e 	bne	r4,zero,420dc <___vfprintf_internal_r+0xe9c>
   42054:	dc400e15 	stw	r17,56(sp)
   42058:	dc000f15 	stw	r16,60(sp)
   4205c:	03000404 	movi	r12,16
   42060:	4021883a 	mov	r16,r8
   42064:	3823883a 	mov	r17,r7
   42068:	00000406 	br	4207c <___vfprintf_internal_r+0xe3c>
   4206c:	843ffc04 	addi	r16,r16,-16
   42070:	81000448 	cmpgei	r4,r16,17
   42074:	b5800204 	addi	r22,r22,8
   42078:	20001426 	beq	r4,zero,420cc <___vfprintf_internal_r+0xe8c>
   4207c:	10800044 	addi	r2,r2,1
   42080:	18c00404 	addi	r3,r3,16
   42084:	b4400015 	stw	r17,0(r22)
   42088:	b3000115 	stw	r12,4(r22)
   4208c:	d8c01c15 	stw	r3,112(sp)
   42090:	d8801b15 	stw	r2,108(sp)
   42094:	11000208 	cmpgei	r4,r2,8
   42098:	203ff426 	beq	r4,zero,4206c <___vfprintf_internal_r+0xe2c>
   4209c:	d9801a04 	addi	r6,sp,104
   420a0:	900b883a 	mov	r5,r18
   420a4:	9809883a 	mov	r4,r19
   420a8:	00486f40 	call	486f4 <__sprint_r>
   420ac:	103d711e 	bne	r2,zero,41674 <___vfprintf_internal_r+0x434>
   420b0:	843ffc04 	addi	r16,r16,-16
   420b4:	81000448 	cmpgei	r4,r16,17
   420b8:	d8c01c17 	ldw	r3,112(sp)
   420bc:	d8801b17 	ldw	r2,108(sp)
   420c0:	dd802704 	addi	r22,sp,156
   420c4:	03000404 	movi	r12,16
   420c8:	203fec1e 	bne	r4,zero,4207c <___vfprintf_internal_r+0xe3c>
   420cc:	8011883a 	mov	r8,r16
   420d0:	880f883a 	mov	r7,r17
   420d4:	dc000f17 	ldw	r16,60(sp)
   420d8:	dc400e17 	ldw	r17,56(sp)
   420dc:	10800044 	addi	r2,r2,1
   420e0:	1a07883a 	add	r3,r3,r8
   420e4:	d8801b15 	stw	r2,108(sp)
   420e8:	b1c00015 	stw	r7,0(r22)
   420ec:	b2000115 	stw	r8,4(r22)
   420f0:	d8c01c15 	stw	r3,112(sp)
   420f4:	10800208 	cmpgei	r2,r2,8
   420f8:	10014a1e 	bne	r2,zero,42624 <___vfprintf_internal_r+0x13e4>
   420fc:	b5800204 	addi	r22,r22,8
   42100:	003d3e06 	br	415fc <___vfprintf_internal_r+0x3bc>
   42104:	10c00060 	cmpeqi	r3,r2,1
   42108:	1803bc1e 	bne	r3,zero,42ffc <___vfprintf_internal_r+0x1dbc>
   4210c:	108000a0 	cmpeqi	r2,r2,2
   42110:	db000417 	ldw	r12,16(sp)
   42114:	103eaa26 	beq	r2,zero,41bc0 <___vfprintf_internal_r+0x980>
   42118:	d9000c17 	ldw	r4,48(sp)
   4211c:	dc402704 	addi	r17,sp,156
   42120:	a08003cc 	andi	r2,r20,15
   42124:	a806973a 	slli	r3,r21,28
   42128:	a028d13a 	srli	r20,r20,4
   4212c:	2085883a 	add	r2,r4,r2
   42130:	10800003 	ldbu	r2,0(r2)
   42134:	a82ad13a 	srli	r21,r21,4
   42138:	1d28b03a 	or	r20,r3,r20
   4213c:	88bfffc5 	stb	r2,-1(r17)
   42140:	a544b03a 	or	r2,r20,r21
   42144:	8c7fffc4 	addi	r17,r17,-1
   42148:	103ff51e 	bne	r2,zero,42120 <___vfprintf_internal_r+0xee0>
   4214c:	d8802704 	addi	r2,sp,156
   42150:	146bc83a 	sub	r21,r2,r17
   42154:	db000415 	stw	r12,16(sp)
   42158:	003e4e06 	br	41a94 <___vfprintf_internal_r+0x854>
   4215c:	d9801a04 	addi	r6,sp,104
   42160:	900b883a 	mov	r5,r18
   42164:	9809883a 	mov	r4,r19
   42168:	00486f40 	call	486f4 <__sprint_r>
   4216c:	103d3b26 	beq	r2,zero,4165c <___vfprintf_internal_r+0x41c>
   42170:	003d4006 	br	41674 <___vfprintf_internal_r+0x434>
   42174:	d8800817 	ldw	r2,32(sp)
   42178:	da001b17 	ldw	r8,108(sp)
   4217c:	18c00044 	addi	r3,r3,1
   42180:	10800088 	cmpgei	r2,r2,2
   42184:	45400044 	addi	r21,r8,1
   42188:	b7000204 	addi	fp,r22,8
   4218c:	1000f826 	beq	r2,zero,42570 <___vfprintf_internal_r+0x1330>
   42190:	00800044 	movi	r2,1
   42194:	b0800115 	stw	r2,4(r22)
   42198:	b4400015 	stw	r17,0(r22)
   4219c:	d8c01c15 	stw	r3,112(sp)
   421a0:	dd401b15 	stw	r21,108(sp)
   421a4:	a8800210 	cmplti	r2,r21,8
   421a8:	1001cc26 	beq	r2,zero,428dc <___vfprintf_internal_r+0x169c>
   421ac:	d8800b17 	ldw	r2,44(sp)
   421b0:	d9000d17 	ldw	r4,52(sp)
   421b4:	ad400044 	addi	r21,r21,1
   421b8:	1887883a 	add	r3,r3,r2
   421bc:	e0800115 	stw	r2,4(fp)
   421c0:	e1000015 	stw	r4,0(fp)
   421c4:	d8c01c15 	stw	r3,112(sp)
   421c8:	dd401b15 	stw	r21,108(sp)
   421cc:	a8800208 	cmpgei	r2,r21,8
   421d0:	1001cb1e 	bne	r2,zero,42900 <___vfprintf_internal_r+0x16c0>
   421d4:	e7000204 	addi	fp,fp,8
   421d8:	d9000917 	ldw	r4,36(sp)
   421dc:	d9400a17 	ldw	r5,40(sp)
   421e0:	aa000044 	addi	r8,r21,1
   421e4:	000d883a 	mov	r6,zero
   421e8:	000f883a 	mov	r7,zero
   421ec:	d8c00e15 	stw	r3,56(sp)
   421f0:	da000715 	stw	r8,28(sp)
   421f4:	004c0280 	call	4c028 <__eqdf2>
   421f8:	d8c00817 	ldw	r3,32(sp)
   421fc:	da000717 	ldw	r8,28(sp)
   42200:	e5800204 	addi	r22,fp,8
   42204:	1affffc4 	addi	r11,r3,-1
   42208:	d8c00e17 	ldw	r3,56(sp)
   4220c:	1000e526 	beq	r2,zero,425a4 <___vfprintf_internal_r+0x1364>
   42210:	8a400044 	addi	r9,r17,1
   42214:	1ac7883a 	add	r3,r3,r11
   42218:	da001b15 	stw	r8,108(sp)
   4221c:	e2400015 	stw	r9,0(fp)
   42220:	e2c00115 	stw	r11,4(fp)
   42224:	d8c01c15 	stw	r3,112(sp)
   42228:	42000208 	cmpgei	r8,r8,8
   4222c:	40013e1e 	bne	r8,zero,42728 <___vfprintf_internal_r+0x14e8>
   42230:	e0800404 	addi	r2,fp,16
   42234:	aa000084 	addi	r8,r21,2
   42238:	b039883a 	mov	fp,r22
   4223c:	102d883a 	mov	r22,r2
   42240:	d9001017 	ldw	r4,64(sp)
   42244:	d8801644 	addi	r2,sp,89
   42248:	da001b15 	stw	r8,108(sp)
   4224c:	20c7883a 	add	r3,r4,r3
   42250:	e0800015 	stw	r2,0(fp)
   42254:	e1000115 	stw	r4,4(fp)
   42258:	d8c01c15 	stw	r3,112(sp)
   4225c:	42000210 	cmplti	r8,r8,8
   42260:	403cf31e 	bne	r8,zero,41630 <___vfprintf_internal_r+0x3f0>
   42264:	d9801a04 	addi	r6,sp,104
   42268:	900b883a 	mov	r5,r18
   4226c:	9809883a 	mov	r4,r19
   42270:	00486f40 	call	486f4 <__sprint_r>
   42274:	103cff1e 	bne	r2,zero,41674 <___vfprintf_internal_r+0x434>
   42278:	d8c01c17 	ldw	r3,112(sp)
   4227c:	dd802704 	addi	r22,sp,156
   42280:	003ceb06 	br	41630 <___vfprintf_internal_r+0x3f0>
   42284:	db000417 	ldw	r12,16(sp)
   42288:	003e4906 	br	41bb0 <___vfprintf_internal_r+0x970>
   4228c:	03000174 	movhi	r12,5
   42290:	39000450 	cmplti	r4,r7,17
   42294:	d8801b17 	ldw	r2,108(sp)
   42298:	633f8804 	addi	r12,r12,-480
   4229c:	2000321e 	bne	r4,zero,42368 <___vfprintf_internal_r+0x1128>
   422a0:	dc401115 	stw	r17,68(sp)
   422a4:	b009883a 	mov	r4,r22
   422a8:	9023883a 	mov	r17,r18
   422ac:	a82d883a 	mov	r22,r21
   422b0:	ddc01215 	stw	r23,72(sp)
   422b4:	03c00404 	movi	r15,16
   422b8:	a02f883a 	mov	r23,r20
   422bc:	db800e15 	stw	r14,56(sp)
   422c0:	8029883a 	mov	r20,r16
   422c4:	db400f15 	stw	r13,60(sp)
   422c8:	402b883a 	mov	r21,r8
   422cc:	3821883a 	mov	r16,r7
   422d0:	6025883a 	mov	r18,r12
   422d4:	00000406 	br	422e8 <___vfprintf_internal_r+0x10a8>
   422d8:	843ffc04 	addi	r16,r16,-16
   422dc:	81800448 	cmpgei	r6,r16,17
   422e0:	21000204 	addi	r4,r4,8
   422e4:	30001426 	beq	r6,zero,42338 <___vfprintf_internal_r+0x10f8>
   422e8:	10800044 	addi	r2,r2,1
   422ec:	18c00404 	addi	r3,r3,16
   422f0:	24800015 	stw	r18,0(r4)
   422f4:	23c00115 	stw	r15,4(r4)
   422f8:	d8c01c15 	stw	r3,112(sp)
   422fc:	d8801b15 	stw	r2,108(sp)
   42300:	11800208 	cmpgei	r6,r2,8
   42304:	303ff426 	beq	r6,zero,422d8 <___vfprintf_internal_r+0x1098>
   42308:	d9801a04 	addi	r6,sp,104
   4230c:	880b883a 	mov	r5,r17
   42310:	9809883a 	mov	r4,r19
   42314:	00486f40 	call	486f4 <__sprint_r>
   42318:	1001b91e 	bne	r2,zero,42a00 <___vfprintf_internal_r+0x17c0>
   4231c:	843ffc04 	addi	r16,r16,-16
   42320:	81800448 	cmpgei	r6,r16,17
   42324:	d8c01c17 	ldw	r3,112(sp)
   42328:	d8801b17 	ldw	r2,108(sp)
   4232c:	d9002704 	addi	r4,sp,156
   42330:	03c00404 	movi	r15,16
   42334:	303fec1e 	bne	r6,zero,422e8 <___vfprintf_internal_r+0x10a8>
   42338:	800f883a 	mov	r7,r16
   4233c:	9019883a 	mov	r12,r18
   42340:	a021883a 	mov	r16,r20
   42344:	8825883a 	mov	r18,r17
   42348:	b829883a 	mov	r20,r23
   4234c:	db800e17 	ldw	r14,56(sp)
   42350:	db400f17 	ldw	r13,60(sp)
   42354:	ddc01217 	ldw	r23,72(sp)
   42358:	dc401117 	ldw	r17,68(sp)
   4235c:	a811883a 	mov	r8,r21
   42360:	b02b883a 	mov	r21,r22
   42364:	202d883a 	mov	r22,r4
   42368:	10800044 	addi	r2,r2,1
   4236c:	19c7883a 	add	r3,r3,r7
   42370:	d8801b15 	stw	r2,108(sp)
   42374:	b3000015 	stw	r12,0(r22)
   42378:	b1c00115 	stw	r7,4(r22)
   4237c:	d8c01c15 	stw	r3,112(sp)
   42380:	10800208 	cmpgei	r2,r2,8
   42384:	1001671e 	bne	r2,zero,42924 <___vfprintf_internal_r+0x16e4>
   42388:	b5800204 	addi	r22,r22,8
   4238c:	003c7c06 	br	41580 <___vfprintf_internal_r+0x340>
   42390:	d9801a04 	addi	r6,sp,104
   42394:	900b883a 	mov	r5,r18
   42398:	9809883a 	mov	r4,r19
   4239c:	da001115 	stw	r8,68(sp)
   423a0:	db400f15 	stw	r13,60(sp)
   423a4:	db800e15 	stw	r14,56(sp)
   423a8:	00486f40 	call	486f4 <__sprint_r>
   423ac:	103cb11e 	bne	r2,zero,41674 <___vfprintf_internal_r+0x434>
   423b0:	d8c01c17 	ldw	r3,112(sp)
   423b4:	da001117 	ldw	r8,68(sp)
   423b8:	db400f17 	ldw	r13,60(sp)
   423bc:	db800e17 	ldw	r14,56(sp)
   423c0:	dd802704 	addi	r22,sp,156
   423c4:	003c7c06 	br	415b8 <___vfprintf_internal_r+0x378>
   423c8:	d9801a04 	addi	r6,sp,104
   423cc:	900b883a 	mov	r5,r18
   423d0:	9809883a 	mov	r4,r19
   423d4:	da000f15 	stw	r8,60(sp)
   423d8:	db400e15 	stw	r13,56(sp)
   423dc:	00486f40 	call	486f4 <__sprint_r>
   423e0:	103ca41e 	bne	r2,zero,41674 <___vfprintf_internal_r+0x434>
   423e4:	d8c01c17 	ldw	r3,112(sp)
   423e8:	da000f17 	ldw	r8,60(sp)
   423ec:	db400e17 	ldw	r13,56(sp)
   423f0:	dd802704 	addi	r22,sp,156
   423f4:	003c7d06 	br	415ec <___vfprintf_internal_r+0x3ac>
   423f8:	d9401417 	ldw	r5,80(sp)
   423fc:	0141570e 	bge	zero,r5,4295c <___vfprintf_internal_r+0x171c>
   42400:	d8800717 	ldw	r2,28(sp)
   42404:	d9000817 	ldw	r4,32(sp)
   42408:	102b883a 	mov	r21,r2
   4240c:	2080b916 	blt	r4,r2,426f4 <___vfprintf_internal_r+0x14b4>
   42410:	05400a0e 	bge	zero,r21,4243c <___vfprintf_internal_r+0x11fc>
   42414:	d8801b17 	ldw	r2,108(sp)
   42418:	1d47883a 	add	r3,r3,r21
   4241c:	b4400015 	stw	r17,0(r22)
   42420:	10800044 	addi	r2,r2,1
   42424:	d8801b15 	stw	r2,108(sp)
   42428:	b5400115 	stw	r21,4(r22)
   4242c:	d8c01c15 	stw	r3,112(sp)
   42430:	10800208 	cmpgei	r2,r2,8
   42434:	10032d1e 	bne	r2,zero,430ec <___vfprintf_internal_r+0x1eac>
   42438:	b5800204 	addi	r22,r22,8
   4243c:	a800c516 	blt	r21,zero,42754 <___vfprintf_internal_r+0x1514>
   42440:	d8800717 	ldw	r2,28(sp)
   42444:	156bc83a 	sub	r21,r2,r21
   42448:	0540db16 	blt	zero,r21,427b8 <___vfprintf_internal_r+0x1578>
   4244c:	dd401417 	ldw	r21,80(sp)
   42450:	d8800817 	ldw	r2,32(sp)
   42454:	a880aa0e 	bge	r21,r2,42700 <___vfprintf_internal_r+0x14c0>
   42458:	d8800d17 	ldw	r2,52(sp)
   4245c:	d9000b17 	ldw	r4,44(sp)
   42460:	b0800015 	stw	r2,0(r22)
   42464:	d8801b17 	ldw	r2,108(sp)
   42468:	1907883a 	add	r3,r3,r4
   4246c:	b1000115 	stw	r4,4(r22)
   42470:	10800044 	addi	r2,r2,1
   42474:	d8801b15 	stw	r2,108(sp)
   42478:	d8c01c15 	stw	r3,112(sp)
   4247c:	10800208 	cmpgei	r2,r2,8
   42480:	1003111e 	bne	r2,zero,430c8 <___vfprintf_internal_r+0x1e88>
   42484:	b5800204 	addi	r22,r22,8
   42488:	d9000817 	ldw	r4,32(sp)
   4248c:	d9400717 	ldw	r5,28(sp)
   42490:	2545c83a 	sub	r2,r4,r21
   42494:	2149c83a 	sub	r4,r4,r5
   42498:	102b883a 	mov	r21,r2
   4249c:	2080010e 	bge	r4,r2,424a4 <___vfprintf_internal_r+0x1264>
   424a0:	202b883a 	mov	r21,r4
   424a4:	05400c0e 	bge	zero,r21,424d8 <___vfprintf_internal_r+0x1298>
   424a8:	d9000717 	ldw	r4,28(sp)
   424ac:	1d47883a 	add	r3,r3,r21
   424b0:	b5400115 	stw	r21,4(r22)
   424b4:	8913883a 	add	r9,r17,r4
   424b8:	d9001b17 	ldw	r4,108(sp)
   424bc:	b2400015 	stw	r9,0(r22)
   424c0:	d8c01c15 	stw	r3,112(sp)
   424c4:	21000044 	addi	r4,r4,1
   424c8:	d9001b15 	stw	r4,108(sp)
   424cc:	21000208 	cmpgei	r4,r4,8
   424d0:	2003111e 	bne	r4,zero,43118 <___vfprintf_internal_r+0x1ed8>
   424d4:	b5800204 	addi	r22,r22,8
   424d8:	a800010e 	bge	r21,zero,424e0 <___vfprintf_internal_r+0x12a0>
   424dc:	002b883a 	mov	r21,zero
   424e0:	156bc83a 	sub	r21,r2,r21
   424e4:	057c520e 	bge	zero,r21,41630 <___vfprintf_internal_r+0x3f0>
   424e8:	01c00174 	movhi	r7,5
   424ec:	a9000450 	cmplti	r4,r21,17
   424f0:	d8801b17 	ldw	r2,108(sp)
   424f4:	39ff8404 	addi	r7,r7,-496
   424f8:	2001c51e 	bne	r4,zero,42c10 <___vfprintf_internal_r+0x19d0>
   424fc:	07000404 	movi	fp,16
   42500:	3823883a 	mov	r17,r7
   42504:	00000406 	br	42518 <___vfprintf_internal_r+0x12d8>
   42508:	b5800204 	addi	r22,r22,8
   4250c:	ad7ffc04 	addi	r21,r21,-16
   42510:	a9000448 	cmpgei	r4,r21,17
   42514:	2001bd26 	beq	r4,zero,42c0c <___vfprintf_internal_r+0x19cc>
   42518:	10800044 	addi	r2,r2,1
   4251c:	18c00404 	addi	r3,r3,16
   42520:	b4400015 	stw	r17,0(r22)
   42524:	b7000115 	stw	fp,4(r22)
   42528:	d8c01c15 	stw	r3,112(sp)
   4252c:	d8801b15 	stw	r2,108(sp)
   42530:	11000208 	cmpgei	r4,r2,8
   42534:	203ff426 	beq	r4,zero,42508 <___vfprintf_internal_r+0x12c8>
   42538:	d9801a04 	addi	r6,sp,104
   4253c:	900b883a 	mov	r5,r18
   42540:	9809883a 	mov	r4,r19
   42544:	00486f40 	call	486f4 <__sprint_r>
   42548:	103c4a1e 	bne	r2,zero,41674 <___vfprintf_internal_r+0x434>
   4254c:	d8c01c17 	ldw	r3,112(sp)
   42550:	d8801b17 	ldw	r2,108(sp)
   42554:	dd802704 	addi	r22,sp,156
   42558:	003fec06 	br	4250c <___vfprintf_internal_r+0x12cc>
   4255c:	4002a71e 	bne	r8,zero,42ffc <___vfprintf_internal_r+0x1dbc>
   42560:	0011883a 	mov	r8,zero
   42564:	002b883a 	mov	r21,zero
   42568:	dc402704 	addi	r17,sp,156
   4256c:	003d4906 	br	41a94 <___vfprintf_internal_r+0x854>
   42570:	d8800417 	ldw	r2,16(sp)
   42574:	1080004c 	andi	r2,r2,1
   42578:	103f051e 	bne	r2,zero,42190 <___vfprintf_internal_r+0xf50>
   4257c:	00800044 	movi	r2,1
   42580:	dd401b15 	stw	r21,108(sp)
   42584:	b4400015 	stw	r17,0(r22)
   42588:	b0800115 	stw	r2,4(r22)
   4258c:	d8c01c15 	stw	r3,112(sp)
   42590:	ad400208 	cmpgei	r21,r21,8
   42594:	a800641e 	bne	r21,zero,42728 <___vfprintf_internal_r+0x14e8>
   42598:	42000084 	addi	r8,r8,2
   4259c:	b5800404 	addi	r22,r22,16
   425a0:	003f2706 	br	42240 <___vfprintf_internal_r+0x1000>
   425a4:	02ff260e 	bge	zero,r11,42240 <___vfprintf_internal_r+0x1000>
   425a8:	58800450 	cmplti	r2,r11,17
   425ac:	01c00174 	movhi	r7,5
   425b0:	10034c1e 	bne	r2,zero,432e4 <___vfprintf_internal_r+0x20a4>
   425b4:	39ff8404 	addi	r7,r7,-496
   425b8:	dc000715 	stw	r16,28(sp)
   425bc:	05800404 	movi	r22,16
   425c0:	5823883a 	mov	r17,r11
   425c4:	3821883a 	mov	r16,r7
   425c8:	402b883a 	mov	r21,r8
   425cc:	00000506 	br	425e4 <___vfprintf_internal_r+0x13a4>
   425d0:	e7000204 	addi	fp,fp,8
   425d4:	8c7ffc04 	addi	r17,r17,-16
   425d8:	88800448 	cmpgei	r2,r17,17
   425dc:	1001d626 	beq	r2,zero,42d38 <___vfprintf_internal_r+0x1af8>
   425e0:	ad400044 	addi	r21,r21,1
   425e4:	18c00404 	addi	r3,r3,16
   425e8:	e4000015 	stw	r16,0(fp)
   425ec:	e5800115 	stw	r22,4(fp)
   425f0:	d8c01c15 	stw	r3,112(sp)
   425f4:	dd401b15 	stw	r21,108(sp)
   425f8:	a8800208 	cmpgei	r2,r21,8
   425fc:	103ff426 	beq	r2,zero,425d0 <___vfprintf_internal_r+0x1390>
   42600:	d9801a04 	addi	r6,sp,104
   42604:	900b883a 	mov	r5,r18
   42608:	9809883a 	mov	r4,r19
   4260c:	00486f40 	call	486f4 <__sprint_r>
   42610:	103c181e 	bne	r2,zero,41674 <___vfprintf_internal_r+0x434>
   42614:	dd401b17 	ldw	r21,108(sp)
   42618:	d8c01c17 	ldw	r3,112(sp)
   4261c:	df002704 	addi	fp,sp,156
   42620:	003fec06 	br	425d4 <___vfprintf_internal_r+0x1394>
   42624:	d9801a04 	addi	r6,sp,104
   42628:	900b883a 	mov	r5,r18
   4262c:	9809883a 	mov	r4,r19
   42630:	00486f40 	call	486f4 <__sprint_r>
   42634:	103c0f1e 	bne	r2,zero,41674 <___vfprintf_internal_r+0x434>
   42638:	d8c01c17 	ldw	r3,112(sp)
   4263c:	dd802704 	addi	r22,sp,156
   42640:	003bee06 	br	415fc <___vfprintf_internal_r+0x3bc>
   42644:	d8800417 	ldw	r2,16(sp)
   42648:	1080004c 	andi	r2,r2,1
   4264c:	103bf826 	beq	r2,zero,41630 <___vfprintf_internal_r+0x3f0>
   42650:	003e1506 	br	41ea8 <___vfprintf_internal_r+0xc68>
   42654:	dc402704 	addi	r17,sp,156
   42658:	003d0e06 	br	41a94 <___vfprintf_internal_r+0x854>
   4265c:	00800c04 	movi	r2,48
   42660:	d8801385 	stb	r2,78(sp)
   42664:	df0013c5 	stb	fp,79(sp)
   42668:	63000094 	ori	r12,r12,2
   4266c:	00800084 	movi	r2,2
   42670:	003c3d06 	br	41768 <___vfprintf_internal_r+0x528>
   42674:	25000017 	ldw	r20,0(r4)
   42678:	002b883a 	mov	r21,zero
   4267c:	d8c00615 	stw	r3,24(sp)
   42680:	00800044 	movi	r2,1
   42684:	003c3806 	br	41768 <___vfprintf_internal_r+0x528>
   42688:	d9000517 	ldw	r4,20(sp)
   4268c:	2005d7fa 	srai	r2,r4,31
   42690:	19000015 	stw	r4,0(r3)
   42694:	18800115 	stw	r2,4(r3)
   42698:	003b1d06 	br	41310 <___vfprintf_internal_r+0xd0>
   4269c:	25000017 	ldw	r20,0(r4)
   426a0:	002b883a 	mov	r21,zero
   426a4:	d8c00615 	stw	r3,24(sp)
   426a8:	003d1d06 	br	41b20 <___vfprintf_internal_r+0x8e0>
   426ac:	25000017 	ldw	r20,0(r4)
   426b0:	002b883a 	mov	r21,zero
   426b4:	d8c00615 	stw	r3,24(sp)
   426b8:	0005883a 	mov	r2,zero
   426bc:	003c2a06 	br	41768 <___vfprintf_internal_r+0x528>
   426c0:	18800017 	ldw	r2,0(r3)
   426c4:	d8800915 	stw	r2,36(sp)
   426c8:	18800117 	ldw	r2,4(r3)
   426cc:	d8800a15 	stw	r2,40(sp)
   426d0:	003c5b06 	br	41840 <___vfprintf_internal_r+0x600>
   426d4:	25000017 	ldw	r20,0(r4)
   426d8:	d8c00615 	stw	r3,24(sp)
   426dc:	a02bd7fa 	srai	r21,r20,31
   426e0:	a805883a 	mov	r2,r21
   426e4:	003cd906 	br	41a4c <___vfprintf_internal_r+0x80c>
   426e8:	0421c83a 	sub	r16,zero,r16
   426ec:	d8800615 	stw	r2,24(sp)
   426f0:	003d6306 	br	41c80 <___vfprintf_internal_r+0xa40>
   426f4:	202b883a 	mov	r21,r4
   426f8:	057f4616 	blt	zero,r21,42414 <___vfprintf_internal_r+0x11d4>
   426fc:	003f4f06 	br	4243c <___vfprintf_internal_r+0x11fc>
   42700:	d8800417 	ldw	r2,16(sp)
   42704:	1080004c 	andi	r2,r2,1
   42708:	103f531e 	bne	r2,zero,42458 <___vfprintf_internal_r+0x1218>
   4270c:	d9000817 	ldw	r4,32(sp)
   42710:	d9400717 	ldw	r5,28(sp)
   42714:	2545c83a 	sub	r2,r4,r21
   42718:	216bc83a 	sub	r21,r4,r5
   4271c:	157f6e0e 	bge	r2,r21,424d8 <___vfprintf_internal_r+0x1298>
   42720:	102b883a 	mov	r21,r2
   42724:	003f6c06 	br	424d8 <___vfprintf_internal_r+0x1298>
   42728:	d9801a04 	addi	r6,sp,104
   4272c:	900b883a 	mov	r5,r18
   42730:	9809883a 	mov	r4,r19
   42734:	00486f40 	call	486f4 <__sprint_r>
   42738:	103bce1e 	bne	r2,zero,41674 <___vfprintf_internal_r+0x434>
   4273c:	da001b17 	ldw	r8,108(sp)
   42740:	d8c01c17 	ldw	r3,112(sp)
   42744:	dd802904 	addi	r22,sp,164
   42748:	42000044 	addi	r8,r8,1
   4274c:	df002704 	addi	fp,sp,156
   42750:	003ebb06 	br	42240 <___vfprintf_internal_r+0x1000>
   42754:	002b883a 	mov	r21,zero
   42758:	003f3906 	br	42440 <___vfprintf_internal_r+0x1200>
   4275c:	bf000043 	ldbu	fp,1(r23)
   42760:	63000814 	ori	r12,r12,32
   42764:	bdc00044 	addi	r23,r23,1
   42768:	e2c03fcc 	andi	r11,fp,255
   4276c:	5ac0201c 	xori	r11,r11,128
   42770:	5affe004 	addi	r11,r11,-128
   42774:	003afe06 	br	41370 <___vfprintf_internal_r+0x130>
   42778:	d9801a04 	addi	r6,sp,104
   4277c:	900b883a 	mov	r5,r18
   42780:	9809883a 	mov	r4,r19
   42784:	00486f40 	call	486f4 <__sprint_r>
   42788:	103bba1e 	bne	r2,zero,41674 <___vfprintf_internal_r+0x434>
   4278c:	d8c01c17 	ldw	r3,112(sp)
   42790:	dd802704 	addi	r22,sp,156
   42794:	003dd006 	br	41ed8 <___vfprintf_internal_r+0xc98>
   42798:	408001f0 	cmpltui	r2,r8,7
   4279c:	402b883a 	mov	r21,r8
   427a0:	1001e726 	beq	r2,zero,42f40 <___vfprintf_internal_r+0x1d00>
   427a4:	04400174 	movhi	r17,5
   427a8:	a829883a 	mov	r20,r21
   427ac:	d8c00615 	stw	r3,24(sp)
   427b0:	8c7f8104 	addi	r17,r17,-508
   427b4:	003b6506 	br	4154c <___vfprintf_internal_r+0x30c>
   427b8:	01c00174 	movhi	r7,5
   427bc:	a9000450 	cmplti	r4,r21,17
   427c0:	d8801b17 	ldw	r2,108(sp)
   427c4:	39ff8404 	addi	r7,r7,-496
   427c8:	2001c21e 	bne	r4,zero,42ed4 <___vfprintf_internal_r+0x1c94>
   427cc:	dc000e15 	stw	r16,56(sp)
   427d0:	07000404 	movi	fp,16
   427d4:	3821883a 	mov	r16,r7
   427d8:	00000406 	br	427ec <___vfprintf_internal_r+0x15ac>
   427dc:	b5800204 	addi	r22,r22,8
   427e0:	ad7ffc04 	addi	r21,r21,-16
   427e4:	a9000448 	cmpgei	r4,r21,17
   427e8:	2001b826 	beq	r4,zero,42ecc <___vfprintf_internal_r+0x1c8c>
   427ec:	10800044 	addi	r2,r2,1
   427f0:	18c00404 	addi	r3,r3,16
   427f4:	b4000015 	stw	r16,0(r22)
   427f8:	b7000115 	stw	fp,4(r22)
   427fc:	d8c01c15 	stw	r3,112(sp)
   42800:	d8801b15 	stw	r2,108(sp)
   42804:	11000208 	cmpgei	r4,r2,8
   42808:	203ff426 	beq	r4,zero,427dc <___vfprintf_internal_r+0x159c>
   4280c:	d9801a04 	addi	r6,sp,104
   42810:	900b883a 	mov	r5,r18
   42814:	9809883a 	mov	r4,r19
   42818:	00486f40 	call	486f4 <__sprint_r>
   4281c:	103b951e 	bne	r2,zero,41674 <___vfprintf_internal_r+0x434>
   42820:	d8c01c17 	ldw	r3,112(sp)
   42824:	d8801b17 	ldw	r2,108(sp)
   42828:	dd802704 	addi	r22,sp,156
   4282c:	003fec06 	br	427e0 <___vfprintf_internal_r+0x15a0>
   42830:	dc402704 	addi	r17,sp,156
   42834:	a805883a 	mov	r2,r21
   42838:	dc000715 	stw	r16,28(sp)
   4283c:	902b883a 	mov	r21,r18
   42840:	8821883a 	mov	r16,r17
   42844:	db000415 	stw	r12,16(sp)
   42848:	a023883a 	mov	r17,r20
   4284c:	da000e15 	stw	r8,56(sp)
   42850:	9829883a 	mov	r20,r19
   42854:	1025883a 	mov	r18,r2
   42858:	6827883a 	mov	r19,r13
   4285c:	8809883a 	mov	r4,r17
   42860:	900b883a 	mov	r5,r18
   42864:	01800284 	movi	r6,10
   42868:	000f883a 	mov	r7,zero
   4286c:	004b2040 	call	4b204 <__umoddi3>
   42870:	10800c04 	addi	r2,r2,48
   42874:	8809883a 	mov	r4,r17
   42878:	900b883a 	mov	r5,r18
   4287c:	01800284 	movi	r6,10
   42880:	000f883a 	mov	r7,zero
   42884:	80bfffc5 	stb	r2,-1(r16)
   42888:	004ac740 	call	4ac74 <__udivdi3>
   4288c:	900d883a 	mov	r6,r18
   42890:	880f883a 	mov	r7,r17
   42894:	843fffc4 	addi	r16,r16,-1
   42898:	1023883a 	mov	r17,r2
   4289c:	1825883a 	mov	r18,r3
   428a0:	303fee1e 	bne	r6,zero,4285c <___vfprintf_internal_r+0x161c>
   428a4:	39c002a8 	cmpgeui	r7,r7,10
   428a8:	383fec1e 	bne	r7,zero,4285c <___vfprintf_internal_r+0x161c>
   428ac:	8023883a 	mov	r17,r16
   428b0:	d8802704 	addi	r2,sp,156
   428b4:	981b883a 	mov	r13,r19
   428b8:	a825883a 	mov	r18,r21
   428bc:	dc000717 	ldw	r16,28(sp)
   428c0:	da000e17 	ldw	r8,56(sp)
   428c4:	a027883a 	mov	r19,r20
   428c8:	146bc83a 	sub	r21,r2,r17
   428cc:	003c7106 	br	41a94 <___vfprintf_internal_r+0x854>
   428d0:	d8800517 	ldw	r2,20(sp)
   428d4:	18800015 	stw	r2,0(r3)
   428d8:	003a8d06 	br	41310 <___vfprintf_internal_r+0xd0>
   428dc:	d9801a04 	addi	r6,sp,104
   428e0:	900b883a 	mov	r5,r18
   428e4:	9809883a 	mov	r4,r19
   428e8:	00486f40 	call	486f4 <__sprint_r>
   428ec:	103b611e 	bne	r2,zero,41674 <___vfprintf_internal_r+0x434>
   428f0:	d8c01c17 	ldw	r3,112(sp)
   428f4:	dd401b17 	ldw	r21,108(sp)
   428f8:	df002704 	addi	fp,sp,156
   428fc:	003e2b06 	br	421ac <___vfprintf_internal_r+0xf6c>
   42900:	d9801a04 	addi	r6,sp,104
   42904:	900b883a 	mov	r5,r18
   42908:	9809883a 	mov	r4,r19
   4290c:	00486f40 	call	486f4 <__sprint_r>
   42910:	103b581e 	bne	r2,zero,41674 <___vfprintf_internal_r+0x434>
   42914:	d8c01c17 	ldw	r3,112(sp)
   42918:	dd401b17 	ldw	r21,108(sp)
   4291c:	df002704 	addi	fp,sp,156
   42920:	003e2d06 	br	421d8 <___vfprintf_internal_r+0xf98>
   42924:	d9801a04 	addi	r6,sp,104
   42928:	900b883a 	mov	r5,r18
   4292c:	9809883a 	mov	r4,r19
   42930:	da001115 	stw	r8,68(sp)
   42934:	db400f15 	stw	r13,60(sp)
   42938:	db800e15 	stw	r14,56(sp)
   4293c:	00486f40 	call	486f4 <__sprint_r>
   42940:	103b4c1e 	bne	r2,zero,41674 <___vfprintf_internal_r+0x434>
   42944:	d8c01c17 	ldw	r3,112(sp)
   42948:	da001117 	ldw	r8,68(sp)
   4294c:	db400f17 	ldw	r13,60(sp)
   42950:	db800e17 	ldw	r14,56(sp)
   42954:	dd802704 	addi	r22,sp,156
   42958:	003b0906 	br	41580 <___vfprintf_internal_r+0x340>
   4295c:	d8801b17 	ldw	r2,108(sp)
   42960:	01000174 	movhi	r4,5
   42964:	213f8304 	addi	r4,r4,-500
   42968:	10800044 	addi	r2,r2,1
   4296c:	18c00044 	addi	r3,r3,1
   42970:	b1000015 	stw	r4,0(r22)
   42974:	01000044 	movi	r4,1
   42978:	d8801b15 	stw	r2,108(sp)
   4297c:	b1000115 	stw	r4,4(r22)
   42980:	d8c01c15 	stw	r3,112(sp)
   42984:	10800208 	cmpgei	r2,r2,8
   42988:	1001641e 	bne	r2,zero,42f1c <___vfprintf_internal_r+0x1cdc>
   4298c:	b5800204 	addi	r22,r22,8
   42990:	2800bd1e 	bne	r5,zero,42c88 <___vfprintf_internal_r+0x1a48>
   42994:	d8800417 	ldw	r2,16(sp)
   42998:	d9000817 	ldw	r4,32(sp)
   4299c:	1080004c 	andi	r2,r2,1
   429a0:	1104b03a 	or	r2,r2,r4
   429a4:	103b2226 	beq	r2,zero,41630 <___vfprintf_internal_r+0x3f0>
   429a8:	d8800d17 	ldw	r2,52(sp)
   429ac:	d9000b17 	ldw	r4,44(sp)
   429b0:	b0800015 	stw	r2,0(r22)
   429b4:	d8801b17 	ldw	r2,108(sp)
   429b8:	20c7883a 	add	r3,r4,r3
   429bc:	b1000115 	stw	r4,4(r22)
   429c0:	10800044 	addi	r2,r2,1
   429c4:	d8c01c15 	stw	r3,112(sp)
   429c8:	d8801b15 	stw	r2,108(sp)
   429cc:	11000208 	cmpgei	r4,r2,8
   429d0:	2001771e 	bne	r4,zero,42fb0 <___vfprintf_internal_r+0x1d70>
   429d4:	b5800204 	addi	r22,r22,8
   429d8:	d9000817 	ldw	r4,32(sp)
   429dc:	10800044 	addi	r2,r2,1
   429e0:	d8801b15 	stw	r2,108(sp)
   429e4:	20c7883a 	add	r3,r4,r3
   429e8:	b4400015 	stw	r17,0(r22)
   429ec:	b1000115 	stw	r4,4(r22)
   429f0:	d8c01c15 	stw	r3,112(sp)
   429f4:	10800208 	cmpgei	r2,r2,8
   429f8:	103b0c26 	beq	r2,zero,4162c <___vfprintf_internal_r+0x3ec>
   429fc:	003e1906 	br	42264 <___vfprintf_internal_r+0x1024>
   42a00:	8825883a 	mov	r18,r17
   42a04:	003b1b06 	br	41674 <___vfprintf_internal_r+0x434>
   42a08:	d9000917 	ldw	r4,36(sp)
   42a0c:	d9400a17 	ldw	r5,40(sp)
   42a10:	da000615 	stw	r8,24(sp)
   42a14:	200d883a 	mov	r6,r4
   42a18:	280f883a 	mov	r7,r5
   42a1c:	db000415 	stw	r12,16(sp)
   42a20:	004d1a00 	call	4d1a0 <__unorddf2>
   42a24:	db000417 	ldw	r12,16(sp)
   42a28:	da000617 	ldw	r8,24(sp)
   42a2c:	1002061e 	bne	r2,zero,43248 <___vfprintf_internal_r+0x2008>
   42a30:	057ff7c4 	movi	r21,-33
   42a34:	40bfffe0 	cmpeqi	r2,r8,-1
   42a38:	e56a703a 	and	r21,fp,r21
   42a3c:	1001b41e 	bne	r2,zero,43110 <___vfprintf_internal_r+0x1ed0>
   42a40:	a88011d8 	cmpnei	r2,r21,71
   42a44:	10015726 	beq	r2,zero,42fa4 <___vfprintf_internal_r+0x1d64>
   42a48:	60804014 	ori	r2,r12,256
   42a4c:	d8800415 	stw	r2,16(sp)
   42a50:	d8800a17 	ldw	r2,40(sp)
   42a54:	10012d16 	blt	r2,zero,42f0c <___vfprintf_internal_r+0x1ccc>
   42a58:	dd000a17 	ldw	r20,40(sp)
   42a5c:	d8000605 	stb	zero,24(sp)
   42a60:	e08019a0 	cmpeqi	r2,fp,102
   42a64:	d8800f15 	stw	r2,60(sp)
   42a68:	1000d21e 	bne	r2,zero,42db4 <___vfprintf_internal_r+0x1b74>
   42a6c:	e08011a0 	cmpeqi	r2,fp,70
   42a70:	1000d01e 	bne	r2,zero,42db4 <___vfprintf_internal_r+0x1b74>
   42a74:	a8801158 	cmpnei	r2,r21,69
   42a78:	10016226 	beq	r2,zero,43004 <___vfprintf_internal_r+0x1dc4>
   42a7c:	d8801804 	addi	r2,sp,96
   42a80:	d8800315 	stw	r2,12(sp)
   42a84:	d9400917 	ldw	r5,36(sp)
   42a88:	d8801504 	addi	r2,sp,84
   42a8c:	d8800215 	stw	r2,8(sp)
   42a90:	d8801404 	addi	r2,sp,80
   42a94:	da000015 	stw	r8,0(sp)
   42a98:	9809883a 	mov	r4,r19
   42a9c:	d8800115 	stw	r2,4(sp)
   42aa0:	01c00084 	movi	r7,2
   42aa4:	a00d883a 	mov	r6,r20
   42aa8:	db000815 	stw	r12,32(sp)
   42aac:	da000715 	stw	r8,28(sp)
   42ab0:	00437700 	call	43770 <_dtoa_r>
   42ab4:	da000717 	ldw	r8,28(sp)
   42ab8:	e10019d8 	cmpnei	r4,fp,103
   42abc:	db000817 	ldw	r12,32(sp)
   42ac0:	1023883a 	mov	r17,r2
   42ac4:	4007883a 	mov	r3,r8
   42ac8:	2001621e 	bne	r4,zero,43054 <___vfprintf_internal_r+0x1e14>
   42acc:	6080004c 	andi	r2,r12,1
   42ad0:	1001621e 	bne	r2,zero,4305c <___vfprintf_internal_r+0x1e1c>
   42ad4:	d8801417 	ldw	r2,80(sp)
   42ad8:	ad4011e0 	cmpeqi	r21,r21,71
   42adc:	d8800715 	stw	r2,28(sp)
   42ae0:	d8801817 	ldw	r2,96(sp)
   42ae4:	1445c83a 	sub	r2,r2,r17
   42ae8:	d8800815 	stw	r2,32(sp)
   42aec:	a8000526 	beq	r21,zero,42b04 <___vfprintf_internal_r+0x18c4>
   42af0:	d8c00717 	ldw	r3,28(sp)
   42af4:	18bfff50 	cmplti	r2,r3,-3
   42af8:	1000011e 	bne	r2,zero,42b00 <___vfprintf_internal_r+0x18c0>
   42afc:	40c1670e 	bge	r8,r3,4309c <___vfprintf_internal_r+0x1e5c>
   42b00:	e73fff84 	addi	fp,fp,-2
   42b04:	d8800717 	ldw	r2,28(sp)
   42b08:	df001645 	stb	fp,89(sp)
   42b0c:	157fffc4 	addi	r21,r2,-1
   42b10:	dd401415 	stw	r21,80(sp)
   42b14:	a801d416 	blt	r21,zero,43268 <___vfprintf_internal_r+0x2028>
   42b18:	00800ac4 	movi	r2,43
   42b1c:	d8801685 	stb	r2,90(sp)
   42b20:	a8800290 	cmplti	r2,r21,10
   42b24:	1001c11e 	bne	r2,zero,4322c <___vfprintf_internal_r+0x1fec>
   42b28:	d98019c4 	addi	r6,sp,103
   42b2c:	9029883a 	mov	r20,r18
   42b30:	dc400715 	stw	r17,28(sp)
   42b34:	8025883a 	mov	r18,r16
   42b38:	db000f15 	stw	r12,60(sp)
   42b3c:	3021883a 	mov	r16,r6
   42b40:	a809883a 	mov	r4,r21
   42b44:	01400284 	movi	r5,10
   42b48:	0040f300 	call	40f30 <__modsi3>
   42b4c:	10800c04 	addi	r2,r2,48
   42b50:	a809883a 	mov	r4,r21
   42b54:	80bfffc5 	stb	r2,-1(r16)
   42b58:	01400284 	movi	r5,10
   42b5c:	0040eb00 	call	40eb0 <__divsi3>
   42b60:	a9001908 	cmpgei	r4,r21,100
   42b64:	8023883a 	mov	r17,r16
   42b68:	102b883a 	mov	r21,r2
   42b6c:	843fffc4 	addi	r16,r16,-1
   42b70:	203ff31e 	bne	r4,zero,42b40 <___vfprintf_internal_r+0x1900>
   42b74:	800d883a 	mov	r6,r16
   42b78:	11000c04 	addi	r4,r2,48
   42b7c:	9021883a 	mov	r16,r18
   42b80:	a025883a 	mov	r18,r20
   42b84:	8829883a 	mov	r20,r17
   42b88:	a0bfff84 	addi	r2,r20,-2
   42b8c:	313fffc5 	stb	r4,-1(r6)
   42b90:	d8c019c4 	addi	r3,sp,103
   42b94:	db000f17 	ldw	r12,60(sp)
   42b98:	dc400717 	ldw	r17,28(sp)
   42b9c:	10c1d62e 	bgeu	r2,r3,432f8 <___vfprintf_internal_r+0x20b8>
   42ba0:	d8c016c4 	addi	r3,sp,91
   42ba4:	00000106 	br	42bac <___vfprintf_internal_r+0x196c>
   42ba8:	11000003 	ldbu	r4,0(r2)
   42bac:	19000005 	stb	r4,0(r3)
   42bb0:	10800044 	addi	r2,r2,1
   42bb4:	d90019c4 	addi	r4,sp,103
   42bb8:	18c00044 	addi	r3,r3,1
   42bbc:	113ffa1e 	bne	r2,r4,42ba8 <___vfprintf_internal_r+0x1968>
   42bc0:	d8801a44 	addi	r2,sp,105
   42bc4:	d8c016c4 	addi	r3,sp,91
   42bc8:	1505c83a 	sub	r2,r2,r20
   42bcc:	1885883a 	add	r2,r3,r2
   42bd0:	d8c01644 	addi	r3,sp,89
   42bd4:	10c5c83a 	sub	r2,r2,r3
   42bd8:	d8801015 	stw	r2,64(sp)
   42bdc:	d8c00817 	ldw	r3,32(sp)
   42be0:	d9001017 	ldw	r4,64(sp)
   42be4:	18800088 	cmpgei	r2,r3,2
   42be8:	192b883a 	add	r21,r3,r4
   42bec:	1001aa26 	beq	r2,zero,43298 <___vfprintf_internal_r+0x2058>
   42bf0:	d8800b17 	ldw	r2,44(sp)
   42bf4:	a8ab883a 	add	r21,r21,r2
   42bf8:	a829883a 	mov	r20,r21
   42bfc:	a800010e 	bge	r21,zero,42c04 <___vfprintf_internal_r+0x19c4>
   42c00:	0029883a 	mov	r20,zero
   42c04:	d8000715 	stw	zero,28(sp)
   42c08:	00009d06 	br	42e80 <___vfprintf_internal_r+0x1c40>
   42c0c:	880f883a 	mov	r7,r17
   42c10:	10800044 	addi	r2,r2,1
   42c14:	1d47883a 	add	r3,r3,r21
   42c18:	b1c00015 	stw	r7,0(r22)
   42c1c:	003a7e06 	br	41618 <___vfprintf_internal_r+0x3d8>
   42c20:	d9801a04 	addi	r6,sp,104
   42c24:	900b883a 	mov	r5,r18
   42c28:	9809883a 	mov	r4,r19
   42c2c:	00486f40 	call	486f4 <__sprint_r>
   42c30:	103a901e 	bne	r2,zero,41674 <___vfprintf_internal_r+0x434>
   42c34:	d8c01c17 	ldw	r3,112(sp)
   42c38:	dd802704 	addi	r22,sp,156
   42c3c:	003c9706 	br	41e9c <___vfprintf_internal_r+0xc5c>
   42c40:	d9801a04 	addi	r6,sp,104
   42c44:	900b883a 	mov	r5,r18
   42c48:	9809883a 	mov	r4,r19
   42c4c:	da000e15 	stw	r8,56(sp)
   42c50:	00486f40 	call	486f4 <__sprint_r>
   42c54:	103a871e 	bne	r2,zero,41674 <___vfprintf_internal_r+0x434>
   42c58:	d8c01c17 	ldw	r3,112(sp)
   42c5c:	da000e17 	ldw	r8,56(sp)
   42c60:	dd802704 	addi	r22,sp,156
   42c64:	003a6306 	br	415f4 <___vfprintf_internal_r+0x3b4>
   42c68:	8809883a 	mov	r4,r17
   42c6c:	db000415 	stw	r12,16(sp)
   42c70:	d8c00615 	stw	r3,24(sp)
   42c74:	00411a80 	call	411a8 <strlen>
   42c78:	db000417 	ldw	r12,16(sp)
   42c7c:	102b883a 	mov	r21,r2
   42c80:	1029883a 	mov	r20,r2
   42c84:	003a3106 	br	4154c <___vfprintf_internal_r+0x30c>
   42c88:	d8800d17 	ldw	r2,52(sp)
   42c8c:	d9000b17 	ldw	r4,44(sp)
   42c90:	b0800015 	stw	r2,0(r22)
   42c94:	d8801b17 	ldw	r2,108(sp)
   42c98:	20c7883a 	add	r3,r4,r3
   42c9c:	b1000115 	stw	r4,4(r22)
   42ca0:	10800044 	addi	r2,r2,1
   42ca4:	d8c01c15 	stw	r3,112(sp)
   42ca8:	d8801b15 	stw	r2,108(sp)
   42cac:	11000208 	cmpgei	r4,r2,8
   42cb0:	2000bf1e 	bne	r4,zero,42fb0 <___vfprintf_internal_r+0x1d70>
   42cb4:	b5800204 	addi	r22,r22,8
   42cb8:	283f470e 	bge	r5,zero,429d8 <___vfprintf_internal_r+0x1798>
   42cbc:	01c00174 	movhi	r7,5
   42cc0:	293ffc08 	cmpgei	r4,r5,-16
   42cc4:	39ff8404 	addi	r7,r7,-496
   42cc8:	0179c83a 	sub	fp,zero,r5
   42ccc:	20013f1e 	bne	r4,zero,431cc <___vfprintf_internal_r+0x1f8c>
   42cd0:	dc000715 	stw	r16,28(sp)
   42cd4:	05400404 	movi	r21,16
   42cd8:	9021883a 	mov	r16,r18
   42cdc:	3825883a 	mov	r18,r7
   42ce0:	00000406 	br	42cf4 <___vfprintf_internal_r+0x1ab4>
   42ce4:	b5800204 	addi	r22,r22,8
   42ce8:	e73ffc04 	addi	fp,fp,-16
   42cec:	e1800448 	cmpgei	r6,fp,17
   42cf0:	30013326 	beq	r6,zero,431c0 <___vfprintf_internal_r+0x1f80>
   42cf4:	10800044 	addi	r2,r2,1
   42cf8:	18c00404 	addi	r3,r3,16
   42cfc:	b4800015 	stw	r18,0(r22)
   42d00:	b5400115 	stw	r21,4(r22)
   42d04:	d8c01c15 	stw	r3,112(sp)
   42d08:	d8801b15 	stw	r2,108(sp)
   42d0c:	11800208 	cmpgei	r6,r2,8
   42d10:	303ff426 	beq	r6,zero,42ce4 <___vfprintf_internal_r+0x1aa4>
   42d14:	d9801a04 	addi	r6,sp,104
   42d18:	800b883a 	mov	r5,r16
   42d1c:	9809883a 	mov	r4,r19
   42d20:	00486f40 	call	486f4 <__sprint_r>
   42d24:	1001721e 	bne	r2,zero,432f0 <___vfprintf_internal_r+0x20b0>
   42d28:	d8c01c17 	ldw	r3,112(sp)
   42d2c:	d8801b17 	ldw	r2,108(sp)
   42d30:	dd802704 	addi	r22,sp,156
   42d34:	003fec06 	br	42ce8 <___vfprintf_internal_r+0x1aa8>
   42d38:	800f883a 	mov	r7,r16
   42d3c:	dc000717 	ldw	r16,28(sp)
   42d40:	8817883a 	mov	r11,r17
   42d44:	aa000044 	addi	r8,r21,1
   42d48:	e0800204 	addi	r2,fp,8
   42d4c:	1ac7883a 	add	r3,r3,r11
   42d50:	e1c00015 	stw	r7,0(fp)
   42d54:	e2c00115 	stw	r11,4(fp)
   42d58:	d8c01c15 	stw	r3,112(sp)
   42d5c:	da001b15 	stw	r8,108(sp)
   42d60:	41000208 	cmpgei	r4,r8,8
   42d64:	203e701e 	bne	r4,zero,42728 <___vfprintf_internal_r+0x14e8>
   42d68:	42000044 	addi	r8,r8,1
   42d6c:	15800204 	addi	r22,r2,8
   42d70:	1039883a 	mov	fp,r2
   42d74:	003d3206 	br	42240 <___vfprintf_internal_r+0x1000>
   42d78:	d8800617 	ldw	r2,24(sp)
   42d7c:	d8c00615 	stw	r3,24(sp)
   42d80:	15000017 	ldw	r20,0(r2)
   42d84:	a02bd7fa 	srai	r21,r20,31
   42d88:	a805883a 	mov	r2,r21
   42d8c:	003b2f06 	br	41a4c <___vfprintf_internal_r+0x80c>
   42d90:	d8800617 	ldw	r2,24(sp)
   42d94:	002b883a 	mov	r21,zero
   42d98:	d8c00615 	stw	r3,24(sp)
   42d9c:	15000017 	ldw	r20,0(r2)
   42da0:	0005883a 	mov	r2,zero
   42da4:	003a7006 	br	41768 <___vfprintf_internal_r+0x528>
   42da8:	04400174 	movhi	r17,5
   42dac:	8c7f7304 	addi	r17,r17,-564
   42db0:	003ac806 	br	418d4 <___vfprintf_internal_r+0x694>
   42db4:	d8801804 	addi	r2,sp,96
   42db8:	d8800315 	stw	r2,12(sp)
   42dbc:	d9400917 	ldw	r5,36(sp)
   42dc0:	d8801504 	addi	r2,sp,84
   42dc4:	d8800215 	stw	r2,8(sp)
   42dc8:	d8801404 	addi	r2,sp,80
   42dcc:	da000015 	stw	r8,0(sp)
   42dd0:	d8800115 	stw	r2,4(sp)
   42dd4:	01c000c4 	movi	r7,3
   42dd8:	a00d883a 	mov	r6,r20
   42ddc:	9809883a 	mov	r4,r19
   42de0:	db000815 	stw	r12,32(sp)
   42de4:	da000715 	stw	r8,28(sp)
   42de8:	00437700 	call	43770 <_dtoa_r>
   42dec:	da000717 	ldw	r8,28(sp)
   42df0:	1023883a 	mov	r17,r2
   42df4:	db000817 	ldw	r12,32(sp)
   42df8:	1207883a 	add	r3,r2,r8
   42dfc:	88800007 	ldb	r2,0(r17)
   42e00:	10800c20 	cmpeqi	r2,r2,48
   42e04:	1000571e 	bne	r2,zero,42f64 <___vfprintf_internal_r+0x1d24>
   42e08:	d8801417 	ldw	r2,80(sp)
   42e0c:	1893883a 	add	r9,r3,r2
   42e10:	d9000917 	ldw	r4,36(sp)
   42e14:	000d883a 	mov	r6,zero
   42e18:	000f883a 	mov	r7,zero
   42e1c:	a00b883a 	mov	r5,r20
   42e20:	da401115 	stw	r9,68(sp)
   42e24:	da000815 	stw	r8,32(sp)
   42e28:	db000715 	stw	r12,28(sp)
   42e2c:	004c0280 	call	4c028 <__eqdf2>
   42e30:	db000717 	ldw	r12,28(sp)
   42e34:	da000817 	ldw	r8,32(sp)
   42e38:	da401117 	ldw	r9,68(sp)
   42e3c:	1000891e 	bne	r2,zero,43064 <___vfprintf_internal_r+0x1e24>
   42e40:	4805883a 	mov	r2,r9
   42e44:	d8c01417 	ldw	r3,80(sp)
   42e48:	1445c83a 	sub	r2,r2,r17
   42e4c:	ad4011d8 	cmpnei	r21,r21,71
   42e50:	d8c00715 	stw	r3,28(sp)
   42e54:	d8800815 	stw	r2,32(sp)
   42e58:	a83f2526 	beq	r21,zero,42af0 <___vfprintf_internal_r+0x18b0>
   42e5c:	d8800f17 	ldw	r2,60(sp)
   42e60:	103f2826 	beq	r2,zero,42b04 <___vfprintf_internal_r+0x18c4>
   42e64:	d8c00717 	ldw	r3,28(sp)
   42e68:	6080004c 	andi	r2,r12,1
   42e6c:	1204b03a 	or	r2,r2,r8
   42e70:	00c1140e 	bge	zero,r3,432c4 <___vfprintf_internal_r+0x2084>
   42e74:	1001011e 	bne	r2,zero,4327c <___vfprintf_internal_r+0x203c>
   42e78:	dd400717 	ldw	r21,28(sp)
   42e7c:	a829883a 	mov	r20,r21
   42e80:	d8800607 	ldb	r2,24(sp)
   42e84:	10008026 	beq	r2,zero,43088 <___vfprintf_internal_r+0x1e48>
   42e88:	00800b44 	movi	r2,45
   42e8c:	d8801345 	stb	r2,77(sp)
   42e90:	d8800e17 	ldw	r2,56(sp)
   42e94:	0011883a 	mov	r8,zero
   42e98:	d8800615 	stw	r2,24(sp)
   42e9c:	003b0506 	br	41ab4 <___vfprintf_internal_r+0x874>
   42ea0:	d8800617 	ldw	r2,24(sp)
   42ea4:	002b883a 	mov	r21,zero
   42ea8:	d8c00615 	stw	r3,24(sp)
   42eac:	15000017 	ldw	r20,0(r2)
   42eb0:	00800044 	movi	r2,1
   42eb4:	003a2c06 	br	41768 <___vfprintf_internal_r+0x528>
   42eb8:	d8800617 	ldw	r2,24(sp)
   42ebc:	002b883a 	mov	r21,zero
   42ec0:	d8c00615 	stw	r3,24(sp)
   42ec4:	15000017 	ldw	r20,0(r2)
   42ec8:	003b1506 	br	41b20 <___vfprintf_internal_r+0x8e0>
   42ecc:	800f883a 	mov	r7,r16
   42ed0:	dc000e17 	ldw	r16,56(sp)
   42ed4:	10800044 	addi	r2,r2,1
   42ed8:	1d47883a 	add	r3,r3,r21
   42edc:	d8801b15 	stw	r2,108(sp)
   42ee0:	b1c00015 	stw	r7,0(r22)
   42ee4:	b5400115 	stw	r21,4(r22)
   42ee8:	d8c01c15 	stw	r3,112(sp)
   42eec:	10800208 	cmpgei	r2,r2,8
   42ef0:	10003a1e 	bne	r2,zero,42fdc <___vfprintf_internal_r+0x1d9c>
   42ef4:	b5800204 	addi	r22,r22,8
   42ef8:	003d5406 	br	4244c <___vfprintf_internal_r+0x120c>
   42efc:	00800b44 	movi	r2,45
   42f00:	d8801345 	stb	r2,77(sp)
   42f04:	03400b44 	movi	r13,45
   42f08:	003a6e06 	br	418c4 <___vfprintf_internal_r+0x684>
   42f0c:	1520003c 	xorhi	r20,r2,32768
   42f10:	00800b44 	movi	r2,45
   42f14:	d8800605 	stb	r2,24(sp)
   42f18:	003ed106 	br	42a60 <___vfprintf_internal_r+0x1820>
   42f1c:	d9801a04 	addi	r6,sp,104
   42f20:	900b883a 	mov	r5,r18
   42f24:	9809883a 	mov	r4,r19
   42f28:	00486f40 	call	486f4 <__sprint_r>
   42f2c:	1039d11e 	bne	r2,zero,41674 <___vfprintf_internal_r+0x434>
   42f30:	d9401417 	ldw	r5,80(sp)
   42f34:	d8c01c17 	ldw	r3,112(sp)
   42f38:	dd802704 	addi	r22,sp,156
   42f3c:	003e9406 	br	42990 <___vfprintf_internal_r+0x1750>
   42f40:	05400184 	movi	r21,6
   42f44:	003e1706 	br	427a4 <___vfprintf_internal_r+0x1564>
   42f48:	d9401345 	stb	r5,77(sp)
   42f4c:	00397906 	br	41534 <___vfprintf_internal_r+0x2f4>
   42f50:	d9801a04 	addi	r6,sp,104
   42f54:	900b883a 	mov	r5,r18
   42f58:	9809883a 	mov	r4,r19
   42f5c:	00486f40 	call	486f4 <__sprint_r>
   42f60:	0039c406 	br	41674 <___vfprintf_internal_r+0x434>
   42f64:	d9000917 	ldw	r4,36(sp)
   42f68:	000d883a 	mov	r6,zero
   42f6c:	000f883a 	mov	r7,zero
   42f70:	a00b883a 	mov	r5,r20
   42f74:	d8c01115 	stw	r3,68(sp)
   42f78:	da000815 	stw	r8,32(sp)
   42f7c:	db000715 	stw	r12,28(sp)
   42f80:	004c0280 	call	4c028 <__eqdf2>
   42f84:	db000717 	ldw	r12,28(sp)
   42f88:	da000817 	ldw	r8,32(sp)
   42f8c:	d8c01117 	ldw	r3,68(sp)
   42f90:	103f9d26 	beq	r2,zero,42e08 <___vfprintf_internal_r+0x1bc8>
   42f94:	00800044 	movi	r2,1
   42f98:	1205c83a 	sub	r2,r2,r8
   42f9c:	d8801415 	stw	r2,80(sp)
   42fa0:	003f9a06 	br	42e0c <___vfprintf_internal_r+0x1bcc>
   42fa4:	403ea81e 	bne	r8,zero,42a48 <___vfprintf_internal_r+0x1808>
   42fa8:	02000044 	movi	r8,1
   42fac:	003ea606 	br	42a48 <___vfprintf_internal_r+0x1808>
   42fb0:	d9801a04 	addi	r6,sp,104
   42fb4:	900b883a 	mov	r5,r18
   42fb8:	9809883a 	mov	r4,r19
   42fbc:	00486f40 	call	486f4 <__sprint_r>
   42fc0:	1039ac1e 	bne	r2,zero,41674 <___vfprintf_internal_r+0x434>
   42fc4:	d9401417 	ldw	r5,80(sp)
   42fc8:	d8c01c17 	ldw	r3,112(sp)
   42fcc:	d8801b17 	ldw	r2,108(sp)
   42fd0:	dd802704 	addi	r22,sp,156
   42fd4:	283e800e 	bge	r5,zero,429d8 <___vfprintf_internal_r+0x1798>
   42fd8:	003f3806 	br	42cbc <___vfprintf_internal_r+0x1a7c>
   42fdc:	d9801a04 	addi	r6,sp,104
   42fe0:	900b883a 	mov	r5,r18
   42fe4:	9809883a 	mov	r4,r19
   42fe8:	00486f40 	call	486f4 <__sprint_r>
   42fec:	1039a11e 	bne	r2,zero,41674 <___vfprintf_internal_r+0x434>
   42ff0:	d8c01c17 	ldw	r3,112(sp)
   42ff4:	dd802704 	addi	r22,sp,156
   42ff8:	003d1406 	br	4244c <___vfprintf_internal_r+0x120c>
   42ffc:	db000417 	ldw	r12,16(sp)
   43000:	003a9f06 	br	41a80 <___vfprintf_internal_r+0x840>
   43004:	d8801804 	addi	r2,sp,96
   43008:	d8800315 	stw	r2,12(sp)
   4300c:	d9400917 	ldw	r5,36(sp)
   43010:	d8801504 	addi	r2,sp,84
   43014:	40c00044 	addi	r3,r8,1
   43018:	d8800215 	stw	r2,8(sp)
   4301c:	d8801404 	addi	r2,sp,80
   43020:	d8c00015 	stw	r3,0(sp)
   43024:	d8800115 	stw	r2,4(sp)
   43028:	01c00084 	movi	r7,2
   4302c:	a00d883a 	mov	r6,r20
   43030:	9809883a 	mov	r4,r19
   43034:	db001115 	stw	r12,68(sp)
   43038:	da000815 	stw	r8,32(sp)
   4303c:	d8c00715 	stw	r3,28(sp)
   43040:	00437700 	call	43770 <_dtoa_r>
   43044:	d8c00717 	ldw	r3,28(sp)
   43048:	da000817 	ldw	r8,32(sp)
   4304c:	db001117 	ldw	r12,68(sp)
   43050:	1023883a 	mov	r17,r2
   43054:	e08011d8 	cmpnei	r2,fp,71
   43058:	103e9c26 	beq	r2,zero,42acc <___vfprintf_internal_r+0x188c>
   4305c:	88d3883a 	add	r9,r17,r3
   43060:	003f6b06 	br	42e10 <___vfprintf_internal_r+0x1bd0>
   43064:	d8801817 	ldw	r2,96(sp)
   43068:	127f762e 	bgeu	r2,r9,42e44 <___vfprintf_internal_r+0x1c04>
   4306c:	01000c04 	movi	r4,48
   43070:	10c00044 	addi	r3,r2,1
   43074:	d8c01815 	stw	r3,96(sp)
   43078:	11000005 	stb	r4,0(r2)
   4307c:	d8801817 	ldw	r2,96(sp)
   43080:	127ffb36 	bltu	r2,r9,43070 <___vfprintf_internal_r+0x1e30>
   43084:	003f6f06 	br	42e44 <___vfprintf_internal_r+0x1c04>
   43088:	d8800e17 	ldw	r2,56(sp)
   4308c:	db401343 	ldbu	r13,77(sp)
   43090:	0011883a 	mov	r8,zero
   43094:	d8800615 	stw	r2,24(sp)
   43098:	003a8206 	br	41aa4 <___vfprintf_internal_r+0x864>
   4309c:	d8800717 	ldw	r2,28(sp)
   430a0:	d8c00817 	ldw	r3,32(sp)
   430a4:	10c02b16 	blt	r2,r3,43154 <___vfprintf_internal_r+0x1f14>
   430a8:	6300004c 	andi	r12,r12,1
   430ac:	6000581e 	bne	r12,zero,43210 <___vfprintf_internal_r+0x1fd0>
   430b0:	1029883a 	mov	r20,r2
   430b4:	1000010e 	bge	r2,zero,430bc <___vfprintf_internal_r+0x1e7c>
   430b8:	0029883a 	mov	r20,zero
   430bc:	dd400717 	ldw	r21,28(sp)
   430c0:	070019c4 	movi	fp,103
   430c4:	003f6e06 	br	42e80 <___vfprintf_internal_r+0x1c40>
   430c8:	d9801a04 	addi	r6,sp,104
   430cc:	900b883a 	mov	r5,r18
   430d0:	9809883a 	mov	r4,r19
   430d4:	00486f40 	call	486f4 <__sprint_r>
   430d8:	1039661e 	bne	r2,zero,41674 <___vfprintf_internal_r+0x434>
   430dc:	dd401417 	ldw	r21,80(sp)
   430e0:	d8c01c17 	ldw	r3,112(sp)
   430e4:	dd802704 	addi	r22,sp,156
   430e8:	003ce706 	br	42488 <___vfprintf_internal_r+0x1248>
   430ec:	d9801a04 	addi	r6,sp,104
   430f0:	900b883a 	mov	r5,r18
   430f4:	9809883a 	mov	r4,r19
   430f8:	00486f40 	call	486f4 <__sprint_r>
   430fc:	10395d1e 	bne	r2,zero,41674 <___vfprintf_internal_r+0x434>
   43100:	d8c01c17 	ldw	r3,112(sp)
   43104:	dd802704 	addi	r22,sp,156
   43108:	a83ccd0e 	bge	r21,zero,42440 <___vfprintf_internal_r+0x1200>
   4310c:	003d9106 	br	42754 <___vfprintf_internal_r+0x1514>
   43110:	02000184 	movi	r8,6
   43114:	003e4c06 	br	42a48 <___vfprintf_internal_r+0x1808>
   43118:	d9801a04 	addi	r6,sp,104
   4311c:	900b883a 	mov	r5,r18
   43120:	9809883a 	mov	r4,r19
   43124:	00486f40 	call	486f4 <__sprint_r>
   43128:	1039521e 	bne	r2,zero,41674 <___vfprintf_internal_r+0x434>
   4312c:	d8801417 	ldw	r2,80(sp)
   43130:	d9000817 	ldw	r4,32(sp)
   43134:	d8c01c17 	ldw	r3,112(sp)
   43138:	dd802704 	addi	r22,sp,156
   4313c:	2085c83a 	sub	r2,r4,r2
   43140:	003ce506 	br	424d8 <___vfprintf_internal_r+0x1298>
   43144:	4029883a 	mov	r20,r8
   43148:	d8c00615 	stw	r3,24(sp)
   4314c:	402b883a 	mov	r21,r8
   43150:	0038fe06 	br	4154c <___vfprintf_internal_r+0x30c>
   43154:	d8800817 	ldw	r2,32(sp)
   43158:	d8c00b17 	ldw	r3,44(sp)
   4315c:	10eb883a 	add	r21,r2,r3
   43160:	d8800717 	ldw	r2,28(sp)
   43164:	00800316 	blt	zero,r2,43174 <___vfprintf_internal_r+0x1f34>
   43168:	d8800717 	ldw	r2,28(sp)
   4316c:	a8abc83a 	sub	r21,r21,r2
   43170:	ad400044 	addi	r21,r21,1
   43174:	a829883a 	mov	r20,r21
   43178:	a8002a16 	blt	r21,zero,43224 <___vfprintf_internal_r+0x1fe4>
   4317c:	070019c4 	movi	fp,103
   43180:	003f3f06 	br	42e80 <___vfprintf_internal_r+0x1c40>
   43184:	d9401345 	stb	r5,77(sp)
   43188:	003ae006 	br	41d0c <___vfprintf_internal_r+0xacc>
   4318c:	d9401345 	stb	r5,77(sp)
   43190:	003a5906 	br	41af8 <___vfprintf_internal_r+0x8b8>
   43194:	d9401345 	stb	r5,77(sp)
   43198:	003b1706 	br	41df8 <___vfprintf_internal_r+0xbb8>
   4319c:	d9401345 	stb	r5,77(sp)
   431a0:	003a2206 	br	41a2c <___vfprintf_internal_r+0x7ec>
   431a4:	d9401345 	stb	r5,77(sp)
   431a8:	003a6806 	br	41b4c <___vfprintf_internal_r+0x90c>
   431ac:	d9401345 	stb	r5,77(sp)
   431b0:	00399906 	br	41818 <___vfprintf_internal_r+0x5d8>
   431b4:	00bfffc4 	movi	r2,-1
   431b8:	d8800515 	stw	r2,20(sp)
   431bc:	00393006 	br	41680 <___vfprintf_internal_r+0x440>
   431c0:	900f883a 	mov	r7,r18
   431c4:	8025883a 	mov	r18,r16
   431c8:	dc000717 	ldw	r16,28(sp)
   431cc:	10800044 	addi	r2,r2,1
   431d0:	1f07883a 	add	r3,r3,fp
   431d4:	b1c00015 	stw	r7,0(r22)
   431d8:	b7000115 	stw	fp,4(r22)
   431dc:	d8c01c15 	stw	r3,112(sp)
   431e0:	d8801b15 	stw	r2,108(sp)
   431e4:	11000208 	cmpgei	r4,r2,8
   431e8:	203dfa26 	beq	r4,zero,429d4 <___vfprintf_internal_r+0x1794>
   431ec:	d9801a04 	addi	r6,sp,104
   431f0:	900b883a 	mov	r5,r18
   431f4:	9809883a 	mov	r4,r19
   431f8:	00486f40 	call	486f4 <__sprint_r>
   431fc:	10391d1e 	bne	r2,zero,41674 <___vfprintf_internal_r+0x434>
   43200:	d8c01c17 	ldw	r3,112(sp)
   43204:	d8801b17 	ldw	r2,108(sp)
   43208:	dd802704 	addi	r22,sp,156
   4320c:	003df206 	br	429d8 <___vfprintf_internal_r+0x1798>
   43210:	d8800717 	ldw	r2,28(sp)
   43214:	d8c00b17 	ldw	r3,44(sp)
   43218:	10eb883a 	add	r21,r2,r3
   4321c:	a829883a 	mov	r20,r21
   43220:	a83fd60e 	bge	r21,zero,4317c <___vfprintf_internal_r+0x1f3c>
   43224:	0029883a 	mov	r20,zero
   43228:	003fd406 	br	4317c <___vfprintf_internal_r+0x1f3c>
   4322c:	00800c04 	movi	r2,48
   43230:	ad400c04 	addi	r21,r21,48
   43234:	d88016c5 	stb	r2,91(sp)
   43238:	00800104 	movi	r2,4
   4323c:	dd401705 	stb	r21,92(sp)
   43240:	d8801015 	stw	r2,64(sp)
   43244:	003e6506 	br	42bdc <___vfprintf_internal_r+0x199c>
   43248:	d8800a17 	ldw	r2,40(sp)
   4324c:	10001916 	blt	r2,zero,432b4 <___vfprintf_internal_r+0x2074>
   43250:	db401343 	ldbu	r13,77(sp)
   43254:	e0801210 	cmplti	r2,fp,72
   43258:	1000131e 	bne	r2,zero,432a8 <___vfprintf_internal_r+0x2068>
   4325c:	04400174 	movhi	r17,5
   43260:	8c7f7604 	addi	r17,r17,-552
   43264:	00399b06 	br	418d4 <___vfprintf_internal_r+0x694>
   43268:	05400044 	movi	r21,1
   4326c:	a8abc83a 	sub	r21,r21,r2
   43270:	00800b44 	movi	r2,45
   43274:	d8801685 	stb	r2,90(sp)
   43278:	003e2906 	br	42b20 <___vfprintf_internal_r+0x18e0>
   4327c:	d8800b17 	ldw	r2,44(sp)
   43280:	18ab883a 	add	r21,r3,r2
   43284:	aa2b883a 	add	r21,r21,r8
   43288:	a829883a 	mov	r20,r21
   4328c:	a83efc0e 	bge	r21,zero,42e80 <___vfprintf_internal_r+0x1c40>
   43290:	0029883a 	mov	r20,zero
   43294:	003efa06 	br	42e80 <___vfprintf_internal_r+0x1c40>
   43298:	6080004c 	andi	r2,r12,1
   4329c:	d8800715 	stw	r2,28(sp)
   432a0:	103e531e 	bne	r2,zero,42bf0 <___vfprintf_internal_r+0x19b0>
   432a4:	003ff806 	br	43288 <___vfprintf_internal_r+0x2048>
   432a8:	04400174 	movhi	r17,5
   432ac:	8c7f7504 	addi	r17,r17,-556
   432b0:	00398806 	br	418d4 <___vfprintf_internal_r+0x694>
   432b4:	00800b44 	movi	r2,45
   432b8:	d8801345 	stb	r2,77(sp)
   432bc:	03400b44 	movi	r13,45
   432c0:	003fe406 	br	43254 <___vfprintf_internal_r+0x2014>
   432c4:	1000031e 	bne	r2,zero,432d4 <___vfprintf_internal_r+0x2094>
   432c8:	05000044 	movi	r20,1
   432cc:	05400044 	movi	r21,1
   432d0:	003eeb06 	br	42e80 <___vfprintf_internal_r+0x1c40>
   432d4:	d8800b17 	ldw	r2,44(sp)
   432d8:	15400044 	addi	r21,r2,1
   432dc:	aa2b883a 	add	r21,r21,r8
   432e0:	003fe906 	br	43288 <___vfprintf_internal_r+0x2048>
   432e4:	b005883a 	mov	r2,r22
   432e8:	39ff8404 	addi	r7,r7,-496
   432ec:	003e9706 	br	42d4c <___vfprintf_internal_r+0x1b0c>
   432f0:	8025883a 	mov	r18,r16
   432f4:	0038df06 	br	41674 <___vfprintf_internal_r+0x434>
   432f8:	00800084 	movi	r2,2
   432fc:	d8801015 	stw	r2,64(sp)
   43300:	003e3606 	br	42bdc <___vfprintf_internal_r+0x199c>
   43304:	d8800617 	ldw	r2,24(sp)
   43308:	12000017 	ldw	r8,0(r2)
   4330c:	10800104 	addi	r2,r2,4
   43310:	4000010e 	bge	r8,zero,43318 <___vfprintf_internal_r+0x20d8>
   43314:	023fffc4 	movi	r8,-1
   43318:	bf000043 	ldbu	fp,1(r23)
   4331c:	d8800615 	stw	r2,24(sp)
   43320:	182f883a 	mov	r23,r3
   43324:	e2c03fcc 	andi	r11,fp,255
   43328:	5ac0201c 	xori	r11,r11,128
   4332c:	5affe004 	addi	r11,r11,-128
   43330:	00380f06 	br	41370 <___vfprintf_internal_r+0x130>

00043334 <__vfprintf_internal>:
   43334:	00c00174 	movhi	r3,5
   43338:	2005883a 	mov	r2,r4
   4333c:	1907ad17 	ldw	r4,7860(r3)
   43340:	300f883a 	mov	r7,r6
   43344:	280d883a 	mov	r6,r5
   43348:	100b883a 	mov	r5,r2
   4334c:	00412401 	jmpi	41240 <___vfprintf_internal_r>

00043350 <__sbprintf>:
   43350:	2880030b 	ldhu	r2,12(r5)
   43354:	2b001917 	ldw	r12,100(r5)
   43358:	2ac0038b 	ldhu	r11,14(r5)
   4335c:	2a800717 	ldw	r10,28(r5)
   43360:	2a400917 	ldw	r9,36(r5)
   43364:	defee204 	addi	sp,sp,-1144
   43368:	da001a04 	addi	r8,sp,104
   4336c:	00c10004 	movi	r3,1024
   43370:	dc011a15 	stw	r16,1128(sp)
   43374:	10bfff4c 	andi	r2,r2,65533
   43378:	2821883a 	mov	r16,r5
   4337c:	d80b883a 	mov	r5,sp
   43380:	dc811c15 	stw	r18,1136(sp)
   43384:	dc411b15 	stw	r17,1132(sp)
   43388:	dfc11d15 	stw	ra,1140(sp)
   4338c:	2025883a 	mov	r18,r4
   43390:	d880030d 	sth	r2,12(sp)
   43394:	db001915 	stw	r12,100(sp)
   43398:	dac0038d 	sth	r11,14(sp)
   4339c:	da800715 	stw	r10,28(sp)
   433a0:	da400915 	stw	r9,36(sp)
   433a4:	da000015 	stw	r8,0(sp)
   433a8:	da000415 	stw	r8,16(sp)
   433ac:	d8c00215 	stw	r3,8(sp)
   433b0:	d8c00515 	stw	r3,20(sp)
   433b4:	d8000615 	stw	zero,24(sp)
   433b8:	00412400 	call	41240 <___vfprintf_internal_r>
   433bc:	1023883a 	mov	r17,r2
   433c0:	10000d0e 	bge	r2,zero,433f8 <__sbprintf+0xa8>
   433c4:	d880030b 	ldhu	r2,12(sp)
   433c8:	1080100c 	andi	r2,r2,64
   433cc:	10000326 	beq	r2,zero,433dc <__sbprintf+0x8c>
   433d0:	8080030b 	ldhu	r2,12(r16)
   433d4:	10801014 	ori	r2,r2,64
   433d8:	8080030d 	sth	r2,12(r16)
   433dc:	8805883a 	mov	r2,r17
   433e0:	dfc11d17 	ldw	ra,1140(sp)
   433e4:	dc811c17 	ldw	r18,1136(sp)
   433e8:	dc411b17 	ldw	r17,1132(sp)
   433ec:	dc011a17 	ldw	r16,1128(sp)
   433f0:	dec11e04 	addi	sp,sp,1144
   433f4:	f800283a 	ret
   433f8:	d80b883a 	mov	r5,sp
   433fc:	9009883a 	mov	r4,r18
   43400:	00450e00 	call	450e0 <_fflush_r>
   43404:	103fef26 	beq	r2,zero,433c4 <__sbprintf+0x74>
   43408:	047fffc4 	movi	r17,-1
   4340c:	003fed06 	br	433c4 <__sbprintf+0x74>

00043410 <__swsetup_r>:
   43410:	00800174 	movhi	r2,5
   43414:	1087ad17 	ldw	r2,7860(r2)
   43418:	defffd04 	addi	sp,sp,-12
   4341c:	dc400115 	stw	r17,4(sp)
   43420:	dc000015 	stw	r16,0(sp)
   43424:	dfc00215 	stw	ra,8(sp)
   43428:	2023883a 	mov	r17,r4
   4342c:	2821883a 	mov	r16,r5
   43430:	10000226 	beq	r2,zero,4343c <__swsetup_r+0x2c>
   43434:	10c00e17 	ldw	r3,56(r2)
   43438:	18001f26 	beq	r3,zero,434b8 <__swsetup_r+0xa8>
   4343c:	8180030b 	ldhu	r6,12(r16)
   43440:	30c0020c 	andi	r3,r6,8
   43444:	3005883a 	mov	r2,r6
   43448:	18002126 	beq	r3,zero,434d0 <__swsetup_r+0xc0>
   4344c:	80c00417 	ldw	r3,16(r16)
   43450:	18002826 	beq	r3,zero,434f4 <__swsetup_r+0xe4>
   43454:	1100004c 	andi	r4,r2,1
   43458:	20000b1e 	bne	r4,zero,43488 <__swsetup_r+0x78>
   4345c:	1100008c 	andi	r4,r2,2
   43460:	20002e1e 	bne	r4,zero,4351c <__swsetup_r+0x10c>
   43464:	81000517 	ldw	r4,20(r16)
   43468:	81000215 	stw	r4,8(r16)
   4346c:	18000b26 	beq	r3,zero,4349c <__swsetup_r+0x8c>
   43470:	0005883a 	mov	r2,zero
   43474:	dfc00217 	ldw	ra,8(sp)
   43478:	dc400117 	ldw	r17,4(sp)
   4347c:	dc000017 	ldw	r16,0(sp)
   43480:	dec00304 	addi	sp,sp,12
   43484:	f800283a 	ret
   43488:	81000517 	ldw	r4,20(r16)
   4348c:	80000215 	stw	zero,8(r16)
   43490:	0109c83a 	sub	r4,zero,r4
   43494:	81000615 	stw	r4,24(r16)
   43498:	183ff51e 	bne	r3,zero,43470 <__swsetup_r+0x60>
   4349c:	10c0200c 	andi	r3,r2,128
   434a0:	0005883a 	mov	r2,zero
   434a4:	183ff326 	beq	r3,zero,43474 <__swsetup_r+0x64>
   434a8:	31801014 	ori	r6,r6,64
   434ac:	8180030d 	sth	r6,12(r16)
   434b0:	00bfffc4 	movi	r2,-1
   434b4:	003fef06 	br	43474 <__swsetup_r+0x64>
   434b8:	1009883a 	mov	r4,r2
   434bc:	00455180 	call	45518 <__sinit>
   434c0:	8180030b 	ldhu	r6,12(r16)
   434c4:	30c0020c 	andi	r3,r6,8
   434c8:	3005883a 	mov	r2,r6
   434cc:	183fdf1e 	bne	r3,zero,4344c <__swsetup_r+0x3c>
   434d0:	3080040c 	andi	r2,r6,16
   434d4:	10002126 	beq	r2,zero,4355c <__swsetup_r+0x14c>
   434d8:	3080010c 	andi	r2,r6,4
   434dc:	1000111e 	bne	r2,zero,43524 <__swsetup_r+0x114>
   434e0:	80c00417 	ldw	r3,16(r16)
   434e4:	30800214 	ori	r2,r6,8
   434e8:	8080030d 	sth	r2,12(r16)
   434ec:	100d883a 	mov	r6,r2
   434f0:	183fd81e 	bne	r3,zero,43454 <__swsetup_r+0x44>
   434f4:	1100a00c 	andi	r4,r2,640
   434f8:	21008020 	cmpeqi	r4,r4,512
   434fc:	203fd51e 	bne	r4,zero,43454 <__swsetup_r+0x44>
   43500:	800b883a 	mov	r5,r16
   43504:	8809883a 	mov	r4,r17
   43508:	0045f900 	call	45f90 <__smakebuf_r>
   4350c:	8180030b 	ldhu	r6,12(r16)
   43510:	80c00417 	ldw	r3,16(r16)
   43514:	3005883a 	mov	r2,r6
   43518:	003fce06 	br	43454 <__swsetup_r+0x44>
   4351c:	0009883a 	mov	r4,zero
   43520:	003fd106 	br	43468 <__swsetup_r+0x58>
   43524:	81400c17 	ldw	r5,48(r16)
   43528:	28000626 	beq	r5,zero,43544 <__swsetup_r+0x134>
   4352c:	80801004 	addi	r2,r16,64
   43530:	28800326 	beq	r5,r2,43540 <__swsetup_r+0x130>
   43534:	8809883a 	mov	r4,r17
   43538:	004567c0 	call	4567c <_free_r>
   4353c:	8180030b 	ldhu	r6,12(r16)
   43540:	80000c15 	stw	zero,48(r16)
   43544:	80c00417 	ldw	r3,16(r16)
   43548:	00bff6c4 	movi	r2,-37
   4354c:	118c703a 	and	r6,r2,r6
   43550:	80000115 	stw	zero,4(r16)
   43554:	80c00015 	stw	r3,0(r16)
   43558:	003fe206 	br	434e4 <__swsetup_r+0xd4>
   4355c:	00800244 	movi	r2,9
   43560:	88800015 	stw	r2,0(r17)
   43564:	31801014 	ori	r6,r6,64
   43568:	8180030d 	sth	r6,12(r16)
   4356c:	00bfffc4 	movi	r2,-1
   43570:	003fc006 	br	43474 <__swsetup_r+0x64>

00043574 <quorem>:
   43574:	defff504 	addi	sp,sp,-44
   43578:	dc800315 	stw	r18,12(sp)
   4357c:	20800417 	ldw	r2,16(r4)
   43580:	2c800417 	ldw	r18,16(r5)
   43584:	dfc00a15 	stw	ra,40(sp)
   43588:	df000915 	stw	fp,36(sp)
   4358c:	ddc00815 	stw	r23,32(sp)
   43590:	dd800715 	stw	r22,28(sp)
   43594:	dd400615 	stw	r21,24(sp)
   43598:	dd000515 	stw	r20,20(sp)
   4359c:	dcc00415 	stw	r19,16(sp)
   435a0:	dc400215 	stw	r17,8(sp)
   435a4:	dc000115 	stw	r16,4(sp)
   435a8:	14806f16 	blt	r2,r18,43768 <quorem+0x1f4>
   435ac:	94bfffc4 	addi	r18,r18,-1
   435b0:	902c90ba 	slli	r22,r18,2
   435b4:	2c000504 	addi	r16,r5,20
   435b8:	25000504 	addi	r20,r4,20
   435bc:	85a7883a 	add	r19,r16,r22
   435c0:	9f000017 	ldw	fp,0(r19)
   435c4:	a5ad883a 	add	r22,r20,r22
   435c8:	202b883a 	mov	r21,r4
   435cc:	b1000017 	ldw	r4,0(r22)
   435d0:	e7000044 	addi	fp,fp,1
   435d4:	282f883a 	mov	r23,r5
   435d8:	e00b883a 	mov	r5,fp
   435dc:	d9000015 	stw	r4,0(sp)
   435e0:	0040fa40 	call	40fa4 <__udivsi3>
   435e4:	d9000017 	ldw	r4,0(sp)
   435e8:	1023883a 	mov	r17,r2
   435ec:	27002a36 	bltu	r4,fp,43698 <quorem+0x124>
   435f0:	800b883a 	mov	r5,r16
   435f4:	a009883a 	mov	r4,r20
   435f8:	0013883a 	mov	r9,zero
   435fc:	0007883a 	mov	r3,zero
   43600:	2a000017 	ldw	r8,0(r5)
   43604:	21800017 	ldw	r6,0(r4)
   43608:	21000104 	addi	r4,r4,4
   4360c:	40bfffcc 	andi	r2,r8,65535
   43610:	1445383a 	mul	r2,r2,r17
   43614:	400ed43a 	srli	r7,r8,16
   43618:	32bfffcc 	andi	r10,r6,65535
   4361c:	1245883a 	add	r2,r2,r9
   43620:	1012d43a 	srli	r9,r2,16
   43624:	123fffcc 	andi	r8,r2,65535
   43628:	3c4f383a 	mul	r7,r7,r17
   4362c:	1a07c83a 	sub	r3,r3,r8
   43630:	1a91883a 	add	r8,r3,r10
   43634:	3006d43a 	srli	r3,r6,16
   43638:	4005d43a 	srai	r2,r8,16
   4363c:	3a4f883a 	add	r7,r7,r9
   43640:	39bfffcc 	andi	r6,r7,65535
   43644:	1987c83a 	sub	r3,r3,r6
   43648:	1887883a 	add	r3,r3,r2
   4364c:	1804943a 	slli	r2,r3,16
   43650:	423fffcc 	andi	r8,r8,65535
   43654:	29400104 	addi	r5,r5,4
   43658:	1210b03a 	or	r8,r2,r8
   4365c:	223fff15 	stw	r8,-4(r4)
   43660:	3812d43a 	srli	r9,r7,16
   43664:	1807d43a 	srai	r3,r3,16
   43668:	997fe52e 	bgeu	r19,r5,43600 <quorem+0x8c>
   4366c:	b0800017 	ldw	r2,0(r22)
   43670:	1000091e 	bne	r2,zero,43698 <quorem+0x124>
   43674:	b5bfff04 	addi	r22,r22,-4
   43678:	a5800336 	bltu	r20,r22,43688 <quorem+0x114>
   4367c:	00000506 	br	43694 <quorem+0x120>
   43680:	94bfffc4 	addi	r18,r18,-1
   43684:	a580032e 	bgeu	r20,r22,43694 <quorem+0x120>
   43688:	b0800017 	ldw	r2,0(r22)
   4368c:	b5bfff04 	addi	r22,r22,-4
   43690:	103ffb26 	beq	r2,zero,43680 <quorem+0x10c>
   43694:	ac800415 	stw	r18,16(r21)
   43698:	b80b883a 	mov	r5,r23
   4369c:	a809883a 	mov	r4,r21
   436a0:	00477c40 	call	477c4 <__mcmp>
   436a4:	10002316 	blt	r2,zero,43734 <quorem+0x1c0>
   436a8:	8c400044 	addi	r17,r17,1
   436ac:	a00d883a 	mov	r6,r20
   436b0:	0007883a 	mov	r3,zero
   436b4:	81000017 	ldw	r4,0(r16)
   436b8:	31400017 	ldw	r5,0(r6)
   436bc:	31800104 	addi	r6,r6,4
   436c0:	20bfffcc 	andi	r2,r4,65535
   436c4:	1887c83a 	sub	r3,r3,r2
   436c8:	28bfffcc 	andi	r2,r5,65535
   436cc:	1885883a 	add	r2,r3,r2
   436d0:	2008d43a 	srli	r4,r4,16
   436d4:	2806d43a 	srli	r3,r5,16
   436d8:	100fd43a 	srai	r7,r2,16
   436dc:	117fffcc 	andi	r5,r2,65535
   436e0:	1907c83a 	sub	r3,r3,r4
   436e4:	19c7883a 	add	r3,r3,r7
   436e8:	1804943a 	slli	r2,r3,16
   436ec:	84000104 	addi	r16,r16,4
   436f0:	1807d43a 	srai	r3,r3,16
   436f4:	1144b03a 	or	r2,r2,r5
   436f8:	30bfff15 	stw	r2,-4(r6)
   436fc:	9c3fed2e 	bgeu	r19,r16,436b4 <quorem+0x140>
   43700:	900490ba 	slli	r2,r18,2
   43704:	a085883a 	add	r2,r20,r2
   43708:	10c00017 	ldw	r3,0(r2)
   4370c:	1800091e 	bne	r3,zero,43734 <quorem+0x1c0>
   43710:	10bfff04 	addi	r2,r2,-4
   43714:	a0800336 	bltu	r20,r2,43724 <quorem+0x1b0>
   43718:	00000506 	br	43730 <quorem+0x1bc>
   4371c:	94bfffc4 	addi	r18,r18,-1
   43720:	a080032e 	bgeu	r20,r2,43730 <quorem+0x1bc>
   43724:	10c00017 	ldw	r3,0(r2)
   43728:	10bfff04 	addi	r2,r2,-4
   4372c:	183ffb26 	beq	r3,zero,4371c <quorem+0x1a8>
   43730:	ac800415 	stw	r18,16(r21)
   43734:	8805883a 	mov	r2,r17
   43738:	dfc00a17 	ldw	ra,40(sp)
   4373c:	df000917 	ldw	fp,36(sp)
   43740:	ddc00817 	ldw	r23,32(sp)
   43744:	dd800717 	ldw	r22,28(sp)
   43748:	dd400617 	ldw	r21,24(sp)
   4374c:	dd000517 	ldw	r20,20(sp)
   43750:	dcc00417 	ldw	r19,16(sp)
   43754:	dc800317 	ldw	r18,12(sp)
   43758:	dc400217 	ldw	r17,8(sp)
   4375c:	dc000117 	ldw	r16,4(sp)
   43760:	dec00b04 	addi	sp,sp,44
   43764:	f800283a 	ret
   43768:	0005883a 	mov	r2,zero
   4376c:	003ff206 	br	43738 <quorem+0x1c4>

00043770 <_dtoa_r>:
   43770:	20801017 	ldw	r2,64(r4)
   43774:	deffe204 	addi	sp,sp,-120
   43778:	ddc01b15 	stw	r23,108(sp)
   4377c:	dcc01715 	stw	r19,92(sp)
   43780:	dc801615 	stw	r18,88(sp)
   43784:	dc401515 	stw	r17,84(sp)
   43788:	dc001415 	stw	r16,80(sp)
   4378c:	dfc01d15 	stw	ra,116(sp)
   43790:	df001c15 	stw	fp,112(sp)
   43794:	dd801a15 	stw	r22,104(sp)
   43798:	dd401915 	stw	r21,100(sp)
   4379c:	dd001815 	stw	r20,96(sp)
   437a0:	d9c00215 	stw	r7,8(sp)
   437a4:	dc002017 	ldw	r16,128(sp)
   437a8:	202f883a 	mov	r23,r4
   437ac:	3025883a 	mov	r18,r6
   437b0:	2827883a 	mov	r19,r5
   437b4:	3023883a 	mov	r17,r6
   437b8:	10000826 	beq	r2,zero,437dc <_dtoa_r+0x6c>
   437bc:	21801117 	ldw	r6,68(r4)
   437c0:	00c00044 	movi	r3,1
   437c4:	100b883a 	mov	r5,r2
   437c8:	1986983a 	sll	r3,r3,r6
   437cc:	11800115 	stw	r6,4(r2)
   437d0:	10c00215 	stw	r3,8(r2)
   437d4:	0046e480 	call	46e48 <_Bfree>
   437d8:	b8001015 	stw	zero,64(r23)
   437dc:	90018816 	blt	r18,zero,43e00 <_dtoa_r+0x690>
   437e0:	80000015 	stw	zero,0(r16)
   437e4:	909ffc2c 	andhi	r2,r18,32752
   437e8:	00dffc34 	movhi	r3,32752
   437ec:	10c18d26 	beq	r2,r3,43e24 <_dtoa_r+0x6b4>
   437f0:	000d883a 	mov	r6,zero
   437f4:	000f883a 	mov	r7,zero
   437f8:	9809883a 	mov	r4,r19
   437fc:	880b883a 	mov	r5,r17
   43800:	004c0280 	call	4c028 <__eqdf2>
   43804:	1000191e 	bne	r2,zero,4386c <_dtoa_r+0xfc>
   43808:	d8c01f17 	ldw	r3,124(sp)
   4380c:	00800044 	movi	r2,1
   43810:	18800015 	stw	r2,0(r3)
   43814:	d8802117 	ldw	r2,132(sp)
   43818:	1002f926 	beq	r2,zero,44400 <_dtoa_r+0xc90>
   4381c:	d9002117 	ldw	r4,132(sp)
   43820:	00800174 	movhi	r2,5
   43824:	10bf8344 	addi	r2,r2,-499
   43828:	00c00174 	movhi	r3,5
   4382c:	20800015 	stw	r2,0(r4)
   43830:	18bf8304 	addi	r2,r3,-500
   43834:	d8800115 	stw	r2,4(sp)
   43838:	d8800117 	ldw	r2,4(sp)
   4383c:	dfc01d17 	ldw	ra,116(sp)
   43840:	df001c17 	ldw	fp,112(sp)
   43844:	ddc01b17 	ldw	r23,108(sp)
   43848:	dd801a17 	ldw	r22,104(sp)
   4384c:	dd401917 	ldw	r21,100(sp)
   43850:	dd001817 	ldw	r20,96(sp)
   43854:	dcc01717 	ldw	r19,92(sp)
   43858:	dc801617 	ldw	r18,88(sp)
   4385c:	dc401517 	ldw	r17,84(sp)
   43860:	dc001417 	ldw	r16,80(sp)
   43864:	dec01e04 	addi	sp,sp,120
   43868:	f800283a 	ret
   4386c:	d8801204 	addi	r2,sp,72
   43870:	9020d53a 	srli	r16,r18,20
   43874:	d8800015 	stw	r2,0(sp)
   43878:	d9c01304 	addi	r7,sp,76
   4387c:	980b883a 	mov	r5,r19
   43880:	880d883a 	mov	r6,r17
   43884:	b809883a 	mov	r4,r23
   43888:	0047bac0 	call	47bac <__d2b>
   4388c:	1039883a 	mov	fp,r2
   43890:	8001771e 	bne	r16,zero,43e70 <_dtoa_r+0x700>
   43894:	dd001217 	ldw	r20,72(sp)
   43898:	dc001317 	ldw	r16,76(sp)
   4389c:	a421883a 	add	r16,r20,r16
   438a0:	80810c84 	addi	r2,r16,1074
   438a4:	10c00850 	cmplti	r3,r2,33
   438a8:	1802e51e 	bne	r3,zero,44440 <_dtoa_r+0xcd0>
   438ac:	01001004 	movi	r4,64
   438b0:	2085c83a 	sub	r2,r4,r2
   438b4:	81010484 	addi	r4,r16,1042
   438b8:	90a4983a 	sll	r18,r18,r2
   438bc:	9908d83a 	srl	r4,r19,r4
   438c0:	9108b03a 	or	r4,r18,r4
   438c4:	004d32c0 	call	4d32c <__floatunsidf>
   438c8:	1009883a 	mov	r4,r2
   438cc:	017f8434 	movhi	r5,65040
   438d0:	00800044 	movi	r2,1
   438d4:	194b883a 	add	r5,r3,r5
   438d8:	843fffc4 	addi	r16,r16,-1
   438dc:	d8800a15 	stw	r2,40(sp)
   438e0:	000d883a 	mov	r6,zero
   438e4:	01cffe34 	movhi	r7,16376
   438e8:	004c8ec0 	call	4c8ec <__subdf3>
   438ec:	0198dbf4 	movhi	r6,25455
   438f0:	01cff4f4 	movhi	r7,16339
   438f4:	3190d844 	addi	r6,r6,17249
   438f8:	39e1e9c4 	addi	r7,r7,-30809
   438fc:	1009883a 	mov	r4,r2
   43900:	180b883a 	mov	r5,r3
   43904:	004c2780 	call	4c278 <__muldf3>
   43908:	01a2d874 	movhi	r6,35681
   4390c:	01cff1f4 	movhi	r7,16327
   43910:	31b22cc4 	addi	r6,r6,-14157
   43914:	39e28a04 	addi	r7,r7,-30168
   43918:	180b883a 	mov	r5,r3
   4391c:	1009883a 	mov	r4,r2
   43920:	004b7380 	call	4b738 <__adddf3>
   43924:	8009883a 	mov	r4,r16
   43928:	102b883a 	mov	r21,r2
   4392c:	1825883a 	mov	r18,r3
   43930:	004d2740 	call	4d274 <__floatsidf>
   43934:	019427f4 	movhi	r6,20639
   43938:	01cff4f4 	movhi	r7,16339
   4393c:	319e7ec4 	addi	r6,r6,31227
   43940:	39d104c4 	addi	r7,r7,17427
   43944:	1009883a 	mov	r4,r2
   43948:	180b883a 	mov	r5,r3
   4394c:	004c2780 	call	4c278 <__muldf3>
   43950:	100d883a 	mov	r6,r2
   43954:	180f883a 	mov	r7,r3
   43958:	a809883a 	mov	r4,r21
   4395c:	900b883a 	mov	r5,r18
   43960:	004b7380 	call	4b738 <__adddf3>
   43964:	1009883a 	mov	r4,r2
   43968:	180b883a 	mov	r5,r3
   4396c:	1025883a 	mov	r18,r2
   43970:	182d883a 	mov	r22,r3
   43974:	004d1f40 	call	4d1f4 <__fixdfsi>
   43978:	000d883a 	mov	r6,zero
   4397c:	000f883a 	mov	r7,zero
   43980:	9009883a 	mov	r4,r18
   43984:	b00b883a 	mov	r5,r22
   43988:	102b883a 	mov	r21,r2
   4398c:	d8800315 	stw	r2,12(sp)
   43990:	004c1900 	call	4c190 <__ledf2>
   43994:	10028f16 	blt	r2,zero,443d4 <_dtoa_r+0xc64>
   43998:	dc800317 	ldw	r18,12(sp)
   4399c:	a421c83a 	sub	r16,r20,r16
   439a0:	85bfffc4 	addi	r22,r16,-1
   439a4:	908005e8 	cmpgeui	r2,r18,23
   439a8:	1002821e 	bne	r2,zero,443b4 <_dtoa_r+0xc44>
   439ac:	900690fa 	slli	r3,r18,3
   439b0:	00800174 	movhi	r2,5
   439b4:	10bfca04 	addi	r2,r2,-216
   439b8:	10c5883a 	add	r2,r2,r3
   439bc:	11800017 	ldw	r6,0(r2)
   439c0:	11c00117 	ldw	r7,4(r2)
   439c4:	9809883a 	mov	r4,r19
   439c8:	880b883a 	mov	r5,r17
   439cc:	004c1900 	call	4c190 <__ledf2>
   439d0:	1002550e 	bge	r2,zero,44328 <_dtoa_r+0xbb8>
   439d4:	90bfffc4 	addi	r2,r18,-1
   439d8:	d8800315 	stw	r2,12(sp)
   439dc:	d8000915 	stw	zero,36(sp)
   439e0:	b0027716 	blt	r22,zero,443c0 <_dtoa_r+0xc50>
   439e4:	d8000615 	stw	zero,24(sp)
   439e8:	d8800317 	ldw	r2,12(sp)
   439ec:	1002510e 	bge	r2,zero,44334 <_dtoa_r+0xbc4>
   439f0:	d8800317 	ldw	r2,12(sp)
   439f4:	d8c00617 	ldw	r3,24(sp)
   439f8:	d8000315 	stw	zero,12(sp)
   439fc:	d8800415 	stw	r2,16(sp)
   43a00:	1887c83a 	sub	r3,r3,r2
   43a04:	d8c00615 	stw	r3,24(sp)
   43a08:	0087c83a 	sub	r3,zero,r2
   43a0c:	d8c00815 	stw	r3,32(sp)
   43a10:	d8c00217 	ldw	r3,8(sp)
   43a14:	188002a8 	cmpgeui	r2,r3,10
   43a18:	10024d1e 	bne	r2,zero,44350 <_dtoa_r+0xbe0>
   43a1c:	18800190 	cmplti	r2,r3,6
   43a20:	10028b1e 	bne	r2,zero,44450 <_dtoa_r+0xce0>
   43a24:	18bfff04 	addi	r2,r3,-4
   43a28:	d8800215 	stw	r2,8(sp)
   43a2c:	0021883a 	mov	r16,zero
   43a30:	d8c00217 	ldw	r3,8(sp)
   43a34:	18800120 	cmpeqi	r2,r3,4
   43a38:	10035d1e 	bne	r2,zero,447b0 <_dtoa_r+0x1040>
   43a3c:	18800160 	cmpeqi	r2,r3,5
   43a40:	10031b1e 	bne	r2,zero,446b0 <_dtoa_r+0xf40>
   43a44:	188000a0 	cmpeqi	r2,r3,2
   43a48:	10024d26 	beq	r2,zero,44380 <_dtoa_r+0xc10>
   43a4c:	d8000715 	stw	zero,28(sp)
   43a50:	d8801e17 	ldw	r2,120(sp)
   43a54:	0083260e 	bge	zero,r2,446f0 <_dtoa_r+0xf80>
   43a58:	d8800b15 	stw	r2,44(sp)
   43a5c:	d8800515 	stw	r2,20(sp)
   43a60:	100d883a 	mov	r6,r2
   43a64:	b8001115 	stw	zero,68(r23)
   43a68:	30800610 	cmplti	r2,r6,24
   43a6c:	1004f11e 	bne	r2,zero,44e34 <_dtoa_r+0x16c4>
   43a70:	00c00044 	movi	r3,1
   43a74:	00800104 	movi	r2,4
   43a78:	1085883a 	add	r2,r2,r2
   43a7c:	11000504 	addi	r4,r2,20
   43a80:	180b883a 	mov	r5,r3
   43a84:	18c00044 	addi	r3,r3,1
   43a88:	313ffb2e 	bgeu	r6,r4,43a78 <_dtoa_r+0x308>
   43a8c:	b9401115 	stw	r5,68(r23)
   43a90:	b809883a 	mov	r4,r23
   43a94:	0046da40 	call	46da4 <_Balloc>
   43a98:	d8800115 	stw	r2,4(sp)
   43a9c:	1004de26 	beq	r2,zero,44e18 <_dtoa_r+0x16a8>
   43aa0:	d8800117 	ldw	r2,4(sp)
   43aa4:	b8801015 	stw	r2,64(r23)
   43aa8:	d8800517 	ldw	r2,20(sp)
   43aac:	108003e8 	cmpgeui	r2,r2,15
   43ab0:	1001021e 	bne	r2,zero,43ebc <_dtoa_r+0x74c>
   43ab4:	80010126 	beq	r16,zero,43ebc <_dtoa_r+0x74c>
   43ab8:	d9000417 	ldw	r4,16(sp)
   43abc:	01038b0e 	bge	zero,r4,448ec <_dtoa_r+0x117c>
   43ac0:	208003cc 	andi	r2,r4,15
   43ac4:	100690fa 	slli	r3,r2,3
   43ac8:	2029d13a 	srai	r20,r4,4
   43acc:	00800174 	movhi	r2,5
   43ad0:	10bfca04 	addi	r2,r2,-216
   43ad4:	10c5883a 	add	r2,r2,r3
   43ad8:	a0c0040c 	andi	r3,r20,16
   43adc:	12800017 	ldw	r10,0(r2)
   43ae0:	12400117 	ldw	r9,4(r2)
   43ae4:	18032c26 	beq	r3,zero,44798 <_dtoa_r+0x1028>
   43ae8:	00800174 	movhi	r2,5
   43aec:	10bfc004 	addi	r2,r2,-256
   43af0:	11800817 	ldw	r6,32(r2)
   43af4:	11c00917 	ldw	r7,36(r2)
   43af8:	9809883a 	mov	r4,r19
   43afc:	880b883a 	mov	r5,r17
   43b00:	da400e15 	stw	r9,56(sp)
   43b04:	da800d15 	stw	r10,52(sp)
   43b08:	00405040 	call	40504 <__divdf3>
   43b0c:	da800d17 	ldw	r10,52(sp)
   43b10:	da400e17 	ldw	r9,56(sp)
   43b14:	a50003cc 	andi	r20,r20,15
   43b18:	d8800c15 	stw	r2,48(sp)
   43b1c:	1825883a 	mov	r18,r3
   43b20:	054000c4 	movi	r21,3
   43b24:	a0001126 	beq	r20,zero,43b6c <_dtoa_r+0x3fc>
   43b28:	04000174 	movhi	r16,5
   43b2c:	843fc004 	addi	r16,r16,-256
   43b30:	5009883a 	mov	r4,r10
   43b34:	480b883a 	mov	r5,r9
   43b38:	a180004c 	andi	r6,r20,1
   43b3c:	30000626 	beq	r6,zero,43b58 <_dtoa_r+0x3e8>
   43b40:	81800017 	ldw	r6,0(r16)
   43b44:	81c00117 	ldw	r7,4(r16)
   43b48:	ad400044 	addi	r21,r21,1
   43b4c:	004c2780 	call	4c278 <__muldf3>
   43b50:	1009883a 	mov	r4,r2
   43b54:	180b883a 	mov	r5,r3
   43b58:	a029d07a 	srai	r20,r20,1
   43b5c:	84000204 	addi	r16,r16,8
   43b60:	a03ff51e 	bne	r20,zero,43b38 <_dtoa_r+0x3c8>
   43b64:	2015883a 	mov	r10,r4
   43b68:	2813883a 	mov	r9,r5
   43b6c:	d9000c17 	ldw	r4,48(sp)
   43b70:	900b883a 	mov	r5,r18
   43b74:	500d883a 	mov	r6,r10
   43b78:	480f883a 	mov	r7,r9
   43b7c:	00405040 	call	40504 <__divdf3>
   43b80:	1021883a 	mov	r16,r2
   43b84:	1825883a 	mov	r18,r3
   43b88:	d8800917 	ldw	r2,36(sp)
   43b8c:	10000626 	beq	r2,zero,43ba8 <_dtoa_r+0x438>
   43b90:	000d883a 	mov	r6,zero
   43b94:	01cffc34 	movhi	r7,16368
   43b98:	8009883a 	mov	r4,r16
   43b9c:	900b883a 	mov	r5,r18
   43ba0:	004c1900 	call	4c190 <__ledf2>
   43ba4:	10044416 	blt	r2,zero,44cb8 <_dtoa_r+0x1548>
   43ba8:	a809883a 	mov	r4,r21
   43bac:	004d2740 	call	4d274 <__floatsidf>
   43bb0:	800d883a 	mov	r6,r16
   43bb4:	900f883a 	mov	r7,r18
   43bb8:	1009883a 	mov	r4,r2
   43bbc:	180b883a 	mov	r5,r3
   43bc0:	004c2780 	call	4c278 <__muldf3>
   43bc4:	000d883a 	mov	r6,zero
   43bc8:	01d00734 	movhi	r7,16412
   43bcc:	1009883a 	mov	r4,r2
   43bd0:	180b883a 	mov	r5,r3
   43bd4:	004b7380 	call	4b738 <__adddf3>
   43bd8:	1029883a 	mov	r20,r2
   43bdc:	00bf3034 	movhi	r2,64704
   43be0:	1885883a 	add	r2,r3,r2
   43be4:	d8800c15 	stw	r2,48(sp)
   43be8:	d8800517 	ldw	r2,20(sp)
   43bec:	10032226 	beq	r2,zero,44878 <_dtoa_r+0x1108>
   43bf0:	d8800417 	ldw	r2,16(sp)
   43bf4:	d8801115 	stw	r2,68(sp)
   43bf8:	d8800517 	ldw	r2,20(sp)
   43bfc:	d8800d15 	stw	r2,52(sp)
   43c00:	d8800d17 	ldw	r2,52(sp)
   43c04:	900b883a 	mov	r5,r18
   43c08:	8009883a 	mov	r4,r16
   43c0c:	10bfffc4 	addi	r2,r2,-1
   43c10:	100690fa 	slli	r3,r2,3
   43c14:	00800174 	movhi	r2,5
   43c18:	10bfca04 	addi	r2,r2,-216
   43c1c:	10c5883a 	add	r2,r2,r3
   43c20:	12800017 	ldw	r10,0(r2)
   43c24:	12c00117 	ldw	r11,4(r2)
   43c28:	da800f15 	stw	r10,60(sp)
   43c2c:	dac00e15 	stw	r11,56(sp)
   43c30:	004d1f40 	call	4d1f4 <__fixdfsi>
   43c34:	1009883a 	mov	r4,r2
   43c38:	10800c04 	addi	r2,r2,48
   43c3c:	d8801015 	stw	r2,64(sp)
   43c40:	004d2740 	call	4d274 <__floatsidf>
   43c44:	8009883a 	mov	r4,r16
   43c48:	100d883a 	mov	r6,r2
   43c4c:	180f883a 	mov	r7,r3
   43c50:	900b883a 	mov	r5,r18
   43c54:	004c8ec0 	call	4c8ec <__subdf3>
   43c58:	d9000117 	ldw	r4,4(sp)
   43c5c:	dac00e17 	ldw	r11,56(sp)
   43c60:	da800f17 	ldw	r10,60(sp)
   43c64:	1825883a 	mov	r18,r3
   43c68:	d8c00717 	ldw	r3,28(sp)
   43c6c:	25400044 	addi	r21,r4,1
   43c70:	1021883a 	mov	r16,r2
   43c74:	500d883a 	mov	r6,r10
   43c78:	580f883a 	mov	r7,r11
   43c7c:	1803b626 	beq	r3,zero,44b58 <_dtoa_r+0x13e8>
   43c80:	0009883a 	mov	r4,zero
   43c84:	014ff834 	movhi	r5,16352
   43c88:	00405040 	call	40504 <__divdf3>
   43c8c:	d9c00c17 	ldw	r7,48(sp)
   43c90:	a00d883a 	mov	r6,r20
   43c94:	1009883a 	mov	r4,r2
   43c98:	180b883a 	mov	r5,r3
   43c9c:	004c8ec0 	call	4c8ec <__subdf3>
   43ca0:	d9000117 	ldw	r4,4(sp)
   43ca4:	1029883a 	mov	r20,r2
   43ca8:	d8801017 	ldw	r2,64(sp)
   43cac:	800d883a 	mov	r6,r16
   43cb0:	900f883a 	mov	r7,r18
   43cb4:	20800005 	stb	r2,0(r4)
   43cb8:	180b883a 	mov	r5,r3
   43cbc:	a009883a 	mov	r4,r20
   43cc0:	d8c00c15 	stw	r3,48(sp)
   43cc4:	004c0a80 	call	4c0a8 <__gedf2>
   43cc8:	0083e716 	blt	zero,r2,44c68 <_dtoa_r+0x14f8>
   43ccc:	0005883a 	mov	r2,zero
   43cd0:	dd800e15 	stw	r22,56(sp)
   43cd4:	dc400f15 	stw	r17,60(sp)
   43cd8:	dd800d17 	ldw	r22,52(sp)
   43cdc:	dc400c17 	ldw	r17,48(sp)
   43ce0:	ddc00d15 	stw	r23,52(sp)
   43ce4:	dcc00c15 	stw	r19,48(sp)
   43ce8:	1027883a 	mov	r19,r2
   43cec:	00002606 	br	43d88 <_dtoa_r+0x618>
   43cf0:	9cc00044 	addi	r19,r19,1
   43cf4:	9d806d0e 	bge	r19,r22,43eac <_dtoa_r+0x73c>
   43cf8:	a009883a 	mov	r4,r20
   43cfc:	880b883a 	mov	r5,r17
   43d00:	000d883a 	mov	r6,zero
   43d04:	01d00934 	movhi	r7,16420
   43d08:	004c2780 	call	4c278 <__muldf3>
   43d0c:	000d883a 	mov	r6,zero
   43d10:	01d00934 	movhi	r7,16420
   43d14:	8009883a 	mov	r4,r16
   43d18:	900b883a 	mov	r5,r18
   43d1c:	1029883a 	mov	r20,r2
   43d20:	1823883a 	mov	r17,r3
   43d24:	004c2780 	call	4c278 <__muldf3>
   43d28:	180b883a 	mov	r5,r3
   43d2c:	1009883a 	mov	r4,r2
   43d30:	1821883a 	mov	r16,r3
   43d34:	1025883a 	mov	r18,r2
   43d38:	004d1f40 	call	4d1f4 <__fixdfsi>
   43d3c:	1009883a 	mov	r4,r2
   43d40:	102f883a 	mov	r23,r2
   43d44:	004d2740 	call	4d274 <__floatsidf>
   43d48:	9009883a 	mov	r4,r18
   43d4c:	800b883a 	mov	r5,r16
   43d50:	100d883a 	mov	r6,r2
   43d54:	180f883a 	mov	r7,r3
   43d58:	004c8ec0 	call	4c8ec <__subdf3>
   43d5c:	ad400044 	addi	r21,r21,1
   43d60:	ba000c04 	addi	r8,r23,48
   43d64:	aa3fffc5 	stb	r8,-1(r21)
   43d68:	a00d883a 	mov	r6,r20
   43d6c:	880f883a 	mov	r7,r17
   43d70:	1009883a 	mov	r4,r2
   43d74:	180b883a 	mov	r5,r3
   43d78:	1021883a 	mov	r16,r2
   43d7c:	1825883a 	mov	r18,r3
   43d80:	004c1900 	call	4c190 <__ledf2>
   43d84:	10040516 	blt	r2,zero,44d9c <_dtoa_r+0x162c>
   43d88:	800d883a 	mov	r6,r16
   43d8c:	900f883a 	mov	r7,r18
   43d90:	0009883a 	mov	r4,zero
   43d94:	014ffc34 	movhi	r5,16368
   43d98:	004c8ec0 	call	4c8ec <__subdf3>
   43d9c:	a00d883a 	mov	r6,r20
   43da0:	880f883a 	mov	r7,r17
   43da4:	1009883a 	mov	r4,r2
   43da8:	180b883a 	mov	r5,r3
   43dac:	004c1900 	call	4c190 <__ledf2>
   43db0:	103fcf0e 	bge	r2,zero,43cf0 <_dtoa_r+0x580>
   43db4:	d8801117 	ldw	r2,68(sp)
   43db8:	ddc00d17 	ldw	r23,52(sp)
   43dbc:	d9000117 	ldw	r4,4(sp)
   43dc0:	10800044 	addi	r2,r2,1
   43dc4:	d8800415 	stw	r2,16(sp)
   43dc8:	a829883a 	mov	r20,r21
   43dcc:	00000106 	br	43dd4 <_dtoa_r+0x664>
   43dd0:	a103da26 	beq	r20,r4,44d3c <_dtoa_r+0x15cc>
   43dd4:	a0ffffc3 	ldbu	r3,-1(r20)
   43dd8:	a02b883a 	mov	r21,r20
   43ddc:	a53fffc4 	addi	r20,r20,-1
   43de0:	18803fcc 	andi	r2,r3,255
   43de4:	1080201c 	xori	r2,r2,128
   43de8:	10bfe004 	addi	r2,r2,-128
   43dec:	10800e60 	cmpeqi	r2,r2,57
   43df0:	103ff71e 	bne	r2,zero,43dd0 <_dtoa_r+0x660>
   43df4:	18c00044 	addi	r3,r3,1
   43df8:	a0c00005 	stb	r3,0(r20)
   43dfc:	00013f06 	br	442fc <_dtoa_r+0xb8c>
   43e00:	04600034 	movhi	r17,32768
   43e04:	8c7fffc4 	addi	r17,r17,-1
   43e08:	9462703a 	and	r17,r18,r17
   43e0c:	00800044 	movi	r2,1
   43e10:	8825883a 	mov	r18,r17
   43e14:	80800015 	stw	r2,0(r16)
   43e18:	00dffc34 	movhi	r3,32752
   43e1c:	909ffc2c 	andhi	r2,r18,32752
   43e20:	10fe731e 	bne	r2,r3,437f0 <_dtoa_r+0x80>
   43e24:	d9001f17 	ldw	r4,124(sp)
   43e28:	00800434 	movhi	r2,16
   43e2c:	10bfffc4 	addi	r2,r2,-1
   43e30:	9084703a 	and	r2,r18,r2
   43e34:	00c9c3c4 	movi	r3,9999
   43e38:	20c00015 	stw	r3,0(r4)
   43e3c:	14e6b03a 	or	r19,r2,r19
   43e40:	9800141e 	bne	r19,zero,43e94 <_dtoa_r+0x724>
   43e44:	d8802117 	ldw	r2,132(sp)
   43e48:	10041226 	beq	r2,zero,44e94 <_dtoa_r+0x1724>
   43e4c:	00800174 	movhi	r2,5
   43e50:	1007883a 	mov	r3,r2
   43e54:	18ff8d04 	addi	r3,r3,-460
   43e58:	00800174 	movhi	r2,5
   43e5c:	d8c00115 	stw	r3,4(sp)
   43e60:	10bf8f04 	addi	r2,r2,-452
   43e64:	d8c02117 	ldw	r3,132(sp)
   43e68:	18800015 	stw	r2,0(r3)
   43e6c:	003e7206 	br	43838 <_dtoa_r+0xc8>
   43e70:	01400434 	movhi	r5,16
   43e74:	297fffc4 	addi	r5,r5,-1
   43e78:	894a703a 	and	r5,r17,r5
   43e7c:	dd001217 	ldw	r20,72(sp)
   43e80:	9809883a 	mov	r4,r19
   43e84:	294ffc34 	orhi	r5,r5,16368
   43e88:	843f0044 	addi	r16,r16,-1023
   43e8c:	d8000a15 	stw	zero,40(sp)
   43e90:	003e9306 	br	438e0 <_dtoa_r+0x170>
   43e94:	d8802117 	ldw	r2,132(sp)
   43e98:	1001fe1e 	bne	r2,zero,44694 <_dtoa_r+0xf24>
   43e9c:	00800174 	movhi	r2,5
   43ea0:	10bf8c04 	addi	r2,r2,-464
   43ea4:	d8800115 	stw	r2,4(sp)
   43ea8:	003e6306 	br	43838 <_dtoa_r+0xc8>
   43eac:	dd800e17 	ldw	r22,56(sp)
   43eb0:	ddc00d17 	ldw	r23,52(sp)
   43eb4:	dc400f17 	ldw	r17,60(sp)
   43eb8:	dcc00c17 	ldw	r19,48(sp)
   43ebc:	d8801317 	ldw	r2,76(sp)
   43ec0:	10006e16 	blt	r2,zero,4407c <_dtoa_r+0x90c>
   43ec4:	d9000417 	ldw	r4,16(sp)
   43ec8:	20c003c8 	cmpgei	r3,r4,15
   43ecc:	18006b1e 	bne	r3,zero,4407c <_dtoa_r+0x90c>
   43ed0:	200690fa 	slli	r3,r4,3
   43ed4:	00800174 	movhi	r2,5
   43ed8:	10bfca04 	addi	r2,r2,-216
   43edc:	10c5883a 	add	r2,r2,r3
   43ee0:	14000017 	ldw	r16,0(r2)
   43ee4:	14800117 	ldw	r18,4(r2)
   43ee8:	d8801e17 	ldw	r2,120(sp)
   43eec:	1000150e 	bge	r2,zero,43f44 <_dtoa_r+0x7d4>
   43ef0:	d8800517 	ldw	r2,20(sp)
   43ef4:	00801316 	blt	zero,r2,43f44 <_dtoa_r+0x7d4>
   43ef8:	d8800517 	ldw	r2,20(sp)
   43efc:	1002721e 	bne	r2,zero,448c8 <_dtoa_r+0x1158>
   43f00:	8009883a 	mov	r4,r16
   43f04:	000d883a 	mov	r6,zero
   43f08:	01d00534 	movhi	r7,16404
   43f0c:	900b883a 	mov	r5,r18
   43f10:	004c2780 	call	4c278 <__muldf3>
   43f14:	100d883a 	mov	r6,r2
   43f18:	180f883a 	mov	r7,r3
   43f1c:	9809883a 	mov	r4,r19
   43f20:	880b883a 	mov	r5,r17
   43f24:	004c1900 	call	4c190 <__ledf2>
   43f28:	0029883a 	mov	r20,zero
   43f2c:	0021883a 	mov	r16,zero
   43f30:	00820216 	blt	zero,r2,4473c <_dtoa_r+0xfcc>
   43f34:	d8801e17 	ldw	r2,120(sp)
   43f38:	dd400117 	ldw	r21,4(sp)
   43f3c:	00a2303a 	nor	r17,zero,r2
   43f40:	00020406 	br	44754 <_dtoa_r+0xfe4>
   43f44:	800d883a 	mov	r6,r16
   43f48:	900f883a 	mov	r7,r18
   43f4c:	9809883a 	mov	r4,r19
   43f50:	880b883a 	mov	r5,r17
   43f54:	00405040 	call	40504 <__divdf3>
   43f58:	180b883a 	mov	r5,r3
   43f5c:	1009883a 	mov	r4,r2
   43f60:	004d1f40 	call	4d1f4 <__fixdfsi>
   43f64:	1009883a 	mov	r4,r2
   43f68:	102b883a 	mov	r21,r2
   43f6c:	004d2740 	call	4d274 <__floatsidf>
   43f70:	800d883a 	mov	r6,r16
   43f74:	900f883a 	mov	r7,r18
   43f78:	1009883a 	mov	r4,r2
   43f7c:	180b883a 	mov	r5,r3
   43f80:	004c2780 	call	4c278 <__muldf3>
   43f84:	100d883a 	mov	r6,r2
   43f88:	9809883a 	mov	r4,r19
   43f8c:	880b883a 	mov	r5,r17
   43f90:	180f883a 	mov	r7,r3
   43f94:	004c8ec0 	call	4c8ec <__subdf3>
   43f98:	d9800117 	ldw	r6,4(sp)
   43f9c:	dd800517 	ldw	r22,20(sp)
   43fa0:	1009883a 	mov	r4,r2
   43fa4:	a8800c04 	addi	r2,r21,48
   43fa8:	30800005 	stb	r2,0(r6)
   43fac:	b0800060 	cmpeqi	r2,r22,1
   43fb0:	180b883a 	mov	r5,r3
   43fb4:	35000044 	addi	r20,r6,1
   43fb8:	10029f1e 	bne	r2,zero,44a38 <_dtoa_r+0x12c8>
   43fbc:	04400044 	movi	r17,1
   43fc0:	ddc00215 	stw	r23,8(sp)
   43fc4:	00001c06 	br	44038 <_dtoa_r+0x8c8>
   43fc8:	800d883a 	mov	r6,r16
   43fcc:	900f883a 	mov	r7,r18
   43fd0:	a809883a 	mov	r4,r21
   43fd4:	980b883a 	mov	r5,r19
   43fd8:	00405040 	call	40504 <__divdf3>
   43fdc:	180b883a 	mov	r5,r3
   43fe0:	1009883a 	mov	r4,r2
   43fe4:	004d1f40 	call	4d1f4 <__fixdfsi>
   43fe8:	1009883a 	mov	r4,r2
   43fec:	102f883a 	mov	r23,r2
   43ff0:	004d2740 	call	4d274 <__floatsidf>
   43ff4:	800d883a 	mov	r6,r16
   43ff8:	900f883a 	mov	r7,r18
   43ffc:	1009883a 	mov	r4,r2
   44000:	180b883a 	mov	r5,r3
   44004:	004c2780 	call	4c278 <__muldf3>
   44008:	a809883a 	mov	r4,r21
   4400c:	980b883a 	mov	r5,r19
   44010:	100d883a 	mov	r6,r2
   44014:	180f883a 	mov	r7,r3
   44018:	004c8ec0 	call	4c8ec <__subdf3>
   4401c:	b9000c04 	addi	r4,r23,48
   44020:	a1000005 	stb	r4,0(r20)
   44024:	8c400044 	addi	r17,r17,1
   44028:	a5000044 	addi	r20,r20,1
   4402c:	1009883a 	mov	r4,r2
   44030:	180b883a 	mov	r5,r3
   44034:	8d827e26 	beq	r17,r22,44a30 <_dtoa_r+0x12c0>
   44038:	000d883a 	mov	r6,zero
   4403c:	01d00934 	movhi	r7,16420
   44040:	004c2780 	call	4c278 <__muldf3>
   44044:	000d883a 	mov	r6,zero
   44048:	000f883a 	mov	r7,zero
   4404c:	1009883a 	mov	r4,r2
   44050:	180b883a 	mov	r5,r3
   44054:	102b883a 	mov	r21,r2
   44058:	1827883a 	mov	r19,r3
   4405c:	004c0280 	call	4c028 <__eqdf2>
   44060:	103fd91e 	bne	r2,zero,43fc8 <_dtoa_r+0x858>
   44064:	d8800417 	ldw	r2,16(sp)
   44068:	ddc00217 	ldw	r23,8(sp)
   4406c:	a02b883a 	mov	r21,r20
   44070:	10800044 	addi	r2,r2,1
   44074:	d8800415 	stw	r2,16(sp)
   44078:	0000a006 	br	442fc <_dtoa_r+0xb8c>
   4407c:	d8c00717 	ldw	r3,28(sp)
   44080:	1800e326 	beq	r3,zero,44410 <_dtoa_r+0xca0>
   44084:	d8c00217 	ldw	r3,8(sp)
   44088:	18c00088 	cmpgei	r3,r3,2
   4408c:	1801e026 	beq	r3,zero,44810 <_dtoa_r+0x10a0>
   44090:	d8800517 	ldw	r2,20(sp)
   44094:	153fffc4 	addi	r20,r2,-1
   44098:	d8800817 	ldw	r2,32(sp)
   4409c:	1501bc0e 	bge	r2,r20,44790 <_dtoa_r+0x1020>
   440a0:	d8800817 	ldw	r2,32(sp)
   440a4:	d8c00317 	ldw	r3,12(sp)
   440a8:	dd000815 	stw	r20,32(sp)
   440ac:	a085c83a 	sub	r2,r20,r2
   440b0:	1885883a 	add	r2,r3,r2
   440b4:	d8800315 	stw	r2,12(sp)
   440b8:	0029883a 	mov	r20,zero
   440bc:	d8800517 	ldw	r2,20(sp)
   440c0:	10028b16 	blt	r2,zero,44af0 <_dtoa_r+0x1380>
   440c4:	d8c00617 	ldw	r3,24(sp)
   440c8:	b0ad883a 	add	r22,r22,r2
   440cc:	1885883a 	add	r2,r3,r2
   440d0:	1825883a 	mov	r18,r3
   440d4:	d8800615 	stw	r2,24(sp)
   440d8:	01400044 	movi	r5,1
   440dc:	b809883a 	mov	r4,r23
   440e0:	00471f00 	call	471f0 <__i2b>
   440e4:	1021883a 	mov	r16,r2
   440e8:	0480080e 	bge	zero,r18,4410c <_dtoa_r+0x99c>
   440ec:	0580070e 	bge	zero,r22,4410c <_dtoa_r+0x99c>
   440f0:	9005883a 	mov	r2,r18
   440f4:	b4819e16 	blt	r22,r18,44770 <_dtoa_r+0x1000>
   440f8:	d8c00617 	ldw	r3,24(sp)
   440fc:	90a5c83a 	sub	r18,r18,r2
   44100:	b0adc83a 	sub	r22,r22,r2
   44104:	1887c83a 	sub	r3,r3,r2
   44108:	d8c00615 	stw	r3,24(sp)
   4410c:	d8800817 	ldw	r2,32(sp)
   44110:	10001426 	beq	r2,zero,44164 <_dtoa_r+0x9f4>
   44114:	d8800717 	ldw	r2,28(sp)
   44118:	1001ee26 	beq	r2,zero,448d4 <_dtoa_r+0x1164>
   4411c:	05000e0e 	bge	zero,r20,44158 <_dtoa_r+0x9e8>
   44120:	800b883a 	mov	r5,r16
   44124:	a00d883a 	mov	r6,r20
   44128:	b809883a 	mov	r4,r23
   4412c:	00474f40 	call	474f4 <__pow5mult>
   44130:	e00d883a 	mov	r6,fp
   44134:	100b883a 	mov	r5,r2
   44138:	b809883a 	mov	r4,r23
   4413c:	1021883a 	mov	r16,r2
   44140:	00472a00 	call	472a0 <__multiply>
   44144:	102b883a 	mov	r21,r2
   44148:	e00b883a 	mov	r5,fp
   4414c:	b809883a 	mov	r4,r23
   44150:	0046e480 	call	46e48 <_Bfree>
   44154:	a839883a 	mov	fp,r21
   44158:	d8800817 	ldw	r2,32(sp)
   4415c:	150dc83a 	sub	r6,r2,r20
   44160:	15025e1e 	bne	r2,r20,44adc <_dtoa_r+0x136c>
   44164:	01400044 	movi	r5,1
   44168:	b809883a 	mov	r4,r23
   4416c:	00471f00 	call	471f0 <__i2b>
   44170:	d9800317 	ldw	r6,12(sp)
   44174:	1029883a 	mov	r20,r2
   44178:	0180b716 	blt	zero,r6,44458 <_dtoa_r+0xce8>
   4417c:	d8800217 	ldw	r2,8(sp)
   44180:	10800088 	cmpgei	r2,r2,2
   44184:	10014d26 	beq	r2,zero,446bc <_dtoa_r+0xf4c>
   44188:	0023883a 	mov	r17,zero
   4418c:	d8c00317 	ldw	r3,12(sp)
   44190:	00800044 	movi	r2,1
   44194:	1800b81e 	bne	r3,zero,44478 <_dtoa_r+0xd08>
   44198:	1585883a 	add	r2,r2,r22
   4419c:	108007cc 	andi	r2,r2,31
   441a0:	1000a526 	beq	r2,zero,44438 <_dtoa_r+0xcc8>
   441a4:	00c00804 	movi	r3,32
   441a8:	1887c83a 	sub	r3,r3,r2
   441ac:	19000150 	cmplti	r4,r3,5
   441b0:	20033c1e 	bne	r4,zero,44ea4 <_dtoa_r+0x1734>
   441b4:	00c00704 	movi	r3,28
   441b8:	1885c83a 	sub	r2,r3,r2
   441bc:	d8c00617 	ldw	r3,24(sp)
   441c0:	90a5883a 	add	r18,r18,r2
   441c4:	b0ad883a 	add	r22,r22,r2
   441c8:	1887883a 	add	r3,r3,r2
   441cc:	d8c00615 	stw	r3,24(sp)
   441d0:	d8800617 	ldw	r2,24(sp)
   441d4:	00809216 	blt	zero,r2,44420 <_dtoa_r+0xcb0>
   441d8:	0580050e 	bge	zero,r22,441f0 <_dtoa_r+0xa80>
   441dc:	a00b883a 	mov	r5,r20
   441e0:	b00d883a 	mov	r6,r22
   441e4:	b809883a 	mov	r4,r23
   441e8:	004763c0 	call	4763c <__lshift>
   441ec:	1029883a 	mov	r20,r2
   441f0:	d8800917 	ldw	r2,36(sp)
   441f4:	1001151e 	bne	r2,zero,4464c <_dtoa_r+0xedc>
   441f8:	d8800517 	ldw	r2,20(sp)
   441fc:	0081020e 	bge	zero,r2,44608 <_dtoa_r+0xe98>
   44200:	d8800717 	ldw	r2,28(sp)
   44204:	1000af1e 	bne	r2,zero,444c4 <_dtoa_r+0xd54>
   44208:	d8800417 	ldw	r2,16(sp)
   4420c:	10800044 	addi	r2,r2,1
   44210:	d8800415 	stw	r2,16(sp)
   44214:	dc800517 	ldw	r18,20(sp)
   44218:	dd400117 	ldw	r21,4(sp)
   4421c:	04400044 	movi	r17,1
   44220:	00000706 	br	44240 <_dtoa_r+0xad0>
   44224:	e00b883a 	mov	r5,fp
   44228:	000f883a 	mov	r7,zero
   4422c:	01800284 	movi	r6,10
   44230:	b809883a 	mov	r4,r23
   44234:	0046e6c0 	call	46e6c <__multadd>
   44238:	1039883a 	mov	fp,r2
   4423c:	8c400044 	addi	r17,r17,1
   44240:	a00b883a 	mov	r5,r20
   44244:	e009883a 	mov	r4,fp
   44248:	00435740 	call	43574 <quorem>
   4424c:	14c00c04 	addi	r19,r2,48
   44250:	ac45883a 	add	r2,r21,r17
   44254:	14ffffc5 	stb	r19,-1(r2)
   44258:	8cbff216 	blt	r17,r18,44224 <_dtoa_r+0xab4>
   4425c:	d8800517 	ldw	r2,20(sp)
   44260:	0081510e 	bge	zero,r2,447a8 <_dtoa_r+0x1038>
   44264:	d8c00117 	ldw	r3,4(sp)
   44268:	0023883a 	mov	r17,zero
   4426c:	18ab883a 	add	r21,r3,r2
   44270:	e00b883a 	mov	r5,fp
   44274:	01800044 	movi	r6,1
   44278:	b809883a 	mov	r4,r23
   4427c:	004763c0 	call	4763c <__lshift>
   44280:	1009883a 	mov	r4,r2
   44284:	a00b883a 	mov	r5,r20
   44288:	1039883a 	mov	fp,r2
   4428c:	00477c40 	call	477c4 <__mcmp>
   44290:	a93fffc3 	ldbu	r4,-1(r21)
   44294:	0081490e 	bge	zero,r2,447bc <_dtoa_r+0x104c>
   44298:	d9400117 	ldw	r5,4(sp)
   4429c:	00000306 	br	442ac <_dtoa_r+0xb3c>
   442a0:	19415426 	beq	r3,r5,447f4 <_dtoa_r+0x1084>
   442a4:	193fffc3 	ldbu	r4,-1(r3)
   442a8:	182b883a 	mov	r21,r3
   442ac:	20803fcc 	andi	r2,r4,255
   442b0:	1080201c 	xori	r2,r2,128
   442b4:	10bfe004 	addi	r2,r2,-128
   442b8:	10800e60 	cmpeqi	r2,r2,57
   442bc:	a8ffffc4 	addi	r3,r21,-1
   442c0:	103ff71e 	bne	r2,zero,442a0 <_dtoa_r+0xb30>
   442c4:	21000044 	addi	r4,r4,1
   442c8:	19000005 	stb	r4,0(r3)
   442cc:	a00b883a 	mov	r5,r20
   442d0:	b809883a 	mov	r4,r23
   442d4:	0046e480 	call	46e48 <_Bfree>
   442d8:	80000826 	beq	r16,zero,442fc <_dtoa_r+0xb8c>
   442dc:	88000426 	beq	r17,zero,442f0 <_dtoa_r+0xb80>
   442e0:	8c000326 	beq	r17,r16,442f0 <_dtoa_r+0xb80>
   442e4:	880b883a 	mov	r5,r17
   442e8:	b809883a 	mov	r4,r23
   442ec:	0046e480 	call	46e48 <_Bfree>
   442f0:	800b883a 	mov	r5,r16
   442f4:	b809883a 	mov	r4,r23
   442f8:	0046e480 	call	46e48 <_Bfree>
   442fc:	e00b883a 	mov	r5,fp
   44300:	b809883a 	mov	r4,r23
   44304:	0046e480 	call	46e48 <_Bfree>
   44308:	d8801f17 	ldw	r2,124(sp)
   4430c:	d8c00417 	ldw	r3,16(sp)
   44310:	a8000005 	stb	zero,0(r21)
   44314:	10c00015 	stw	r3,0(r2)
   44318:	d8802117 	ldw	r2,132(sp)
   4431c:	103d4626 	beq	r2,zero,43838 <_dtoa_r+0xc8>
   44320:	15400015 	stw	r21,0(r2)
   44324:	003d4406 	br	43838 <_dtoa_r+0xc8>
   44328:	d8000915 	stw	zero,36(sp)
   4432c:	b0002416 	blt	r22,zero,443c0 <_dtoa_r+0xc50>
   44330:	d8000615 	stw	zero,24(sp)
   44334:	d8800317 	ldw	r2,12(sp)
   44338:	d8c00217 	ldw	r3,8(sp)
   4433c:	d8000815 	stw	zero,32(sp)
   44340:	b0ad883a 	add	r22,r22,r2
   44344:	d8800415 	stw	r2,16(sp)
   44348:	188002a8 	cmpgeui	r2,r3,10
   4434c:	103db326 	beq	r2,zero,43a1c <_dtoa_r+0x2ac>
   44350:	00800044 	movi	r2,1
   44354:	d8800715 	stw	r2,28(sp)
   44358:	00bfffc4 	movi	r2,-1
   4435c:	04000044 	movi	r16,1
   44360:	d8000215 	stw	zero,8(sp)
   44364:	d8800515 	stw	r2,20(sp)
   44368:	d8001e15 	stw	zero,120(sp)
   4436c:	d8800517 	ldw	r2,20(sp)
   44370:	b8001115 	stw	zero,68(r23)
   44374:	000b883a 	mov	r5,zero
   44378:	d8800b15 	stw	r2,44(sp)
   4437c:	003dc406 	br	43a90 <_dtoa_r+0x320>
   44380:	188000e0 	cmpeqi	r2,r3,3
   44384:	d8000715 	stw	zero,28(sp)
   44388:	1002ac26 	beq	r2,zero,44e3c <_dtoa_r+0x16cc>
   4438c:	d8801e17 	ldw	r2,120(sp)
   44390:	d8c00417 	ldw	r3,16(sp)
   44394:	10c5883a 	add	r2,r2,r3
   44398:	d8800b15 	stw	r2,44(sp)
   4439c:	10800044 	addi	r2,r2,1
   443a0:	d8800515 	stw	r2,20(sp)
   443a4:	100d883a 	mov	r6,r2
   443a8:	00bdae16 	blt	zero,r2,43a64 <_dtoa_r+0x2f4>
   443ac:	01800044 	movi	r6,1
   443b0:	003dac06 	br	43a64 <_dtoa_r+0x2f4>
   443b4:	00800044 	movi	r2,1
   443b8:	d8800915 	stw	r2,36(sp)
   443bc:	b03d890e 	bge	r22,zero,439e4 <_dtoa_r+0x274>
   443c0:	00800044 	movi	r2,1
   443c4:	1405c83a 	sub	r2,r2,r16
   443c8:	d8800615 	stw	r2,24(sp)
   443cc:	002d883a 	mov	r22,zero
   443d0:	003d8506 	br	439e8 <_dtoa_r+0x278>
   443d4:	a809883a 	mov	r4,r21
   443d8:	004d2740 	call	4d274 <__floatsidf>
   443dc:	900d883a 	mov	r6,r18
   443e0:	b00f883a 	mov	r7,r22
   443e4:	1009883a 	mov	r4,r2
   443e8:	180b883a 	mov	r5,r3
   443ec:	004c0280 	call	4c028 <__eqdf2>
   443f0:	103d6926 	beq	r2,zero,43998 <_dtoa_r+0x228>
   443f4:	a8bfffc4 	addi	r2,r21,-1
   443f8:	d8800315 	stw	r2,12(sp)
   443fc:	003d6606 	br	43998 <_dtoa_r+0x228>
   44400:	00800174 	movhi	r2,5
   44404:	10bf8304 	addi	r2,r2,-500
   44408:	d8800115 	stw	r2,4(sp)
   4440c:	003d0a06 	br	43838 <_dtoa_r+0xc8>
   44410:	dd000817 	ldw	r20,32(sp)
   44414:	dc800617 	ldw	r18,24(sp)
   44418:	0021883a 	mov	r16,zero
   4441c:	003f3206 	br	440e8 <_dtoa_r+0x978>
   44420:	e00b883a 	mov	r5,fp
   44424:	100d883a 	mov	r6,r2
   44428:	b809883a 	mov	r4,r23
   4442c:	004763c0 	call	4763c <__lshift>
   44430:	1039883a 	mov	fp,r2
   44434:	003f6806 	br	441d8 <_dtoa_r+0xa68>
   44438:	00800704 	movi	r2,28
   4443c:	003f5f06 	br	441bc <_dtoa_r+0xa4c>
   44440:	01000804 	movi	r4,32
   44444:	2089c83a 	sub	r4,r4,r2
   44448:	9908983a 	sll	r4,r19,r4
   4444c:	003d1d06 	br	438c4 <_dtoa_r+0x154>
   44450:	04000044 	movi	r16,1
   44454:	003d7606 	br	43a30 <_dtoa_r+0x2c0>
   44458:	100b883a 	mov	r5,r2
   4445c:	b809883a 	mov	r4,r23
   44460:	00474f40 	call	474f4 <__pow5mult>
   44464:	d8c00217 	ldw	r3,8(sp)
   44468:	1029883a 	mov	r20,r2
   4446c:	18c00090 	cmplti	r3,r3,2
   44470:	1801511e 	bne	r3,zero,449b8 <_dtoa_r+0x1248>
   44474:	0023883a 	mov	r17,zero
   44478:	a0800417 	ldw	r2,16(r20)
   4447c:	10800104 	addi	r2,r2,4
   44480:	100490ba 	slli	r2,r2,2
   44484:	a085883a 	add	r2,r20,r2
   44488:	11000017 	ldw	r4,0(r2)
   4448c:	00470dc0 	call	470dc <__hi0bits>
   44490:	00c00804 	movi	r3,32
   44494:	1885c83a 	sub	r2,r3,r2
   44498:	003f3f06 	br	44198 <_dtoa_r+0xa28>
   4449c:	800b883a 	mov	r5,r16
   444a0:	000f883a 	mov	r7,zero
   444a4:	01800284 	movi	r6,10
   444a8:	b809883a 	mov	r4,r23
   444ac:	0046e6c0 	call	46e6c <__multadd>
   444b0:	1021883a 	mov	r16,r2
   444b4:	d8800b17 	ldw	r2,44(sp)
   444b8:	00824b0e 	bge	zero,r2,44de8 <_dtoa_r+0x1678>
   444bc:	dd400415 	stw	r21,16(sp)
   444c0:	d8800515 	stw	r2,20(sp)
   444c4:	0480ac16 	blt	zero,r18,44778 <_dtoa_r+0x1008>
   444c8:	8801731e 	bne	r17,zero,44a98 <_dtoa_r+0x1328>
   444cc:	8025883a 	mov	r18,r16
   444d0:	dd800117 	ldw	r22,4(sp)
   444d4:	d9000517 	ldw	r4,20(sp)
   444d8:	98c0004c 	andi	r3,r19,1
   444dc:	b0bfffc4 	addi	r2,r22,-1
   444e0:	1105883a 	add	r2,r2,r4
   444e4:	d8800515 	stw	r2,20(sp)
   444e8:	d8800217 	ldw	r2,8(sp)
   444ec:	d8c00815 	stw	r3,32(sp)
   444f0:	1884b03a 	or	r2,r3,r2
   444f4:	d8800715 	stw	r2,28(sp)
   444f8:	00002906 	br	445a0 <_dtoa_r+0xe30>
   444fc:	e009883a 	mov	r4,fp
   44500:	00477c40 	call	477c4 <__mcmp>
   44504:	980b883a 	mov	r5,r19
   44508:	b809883a 	mov	r4,r23
   4450c:	d8800315 	stw	r2,12(sp)
   44510:	0046e480 	call	46e48 <_Bfree>
   44514:	d8800317 	ldw	r2,12(sp)
   44518:	1000021e 	bne	r2,zero,44524 <_dtoa_r+0xdb4>
   4451c:	d8c00717 	ldw	r3,28(sp)
   44520:	18022326 	beq	r3,zero,44db0 <_dtoa_r+0x1640>
   44524:	b4c00044 	addi	r19,r22,1
   44528:	88012916 	blt	r17,zero,449d0 <_dtoa_r+0x1260>
   4452c:	d8c00217 	ldw	r3,8(sp)
   44530:	88e2b03a 	or	r17,r17,r3
   44534:	d8c00817 	ldw	r3,32(sp)
   44538:	1c62b03a 	or	r17,r3,r17
   4453c:	88012426 	beq	r17,zero,449d0 <_dtoa_r+0x1260>
   44540:	00816f16 	blt	zero,r2,44b00 <_dtoa_r+0x1390>
   44544:	d8800517 	ldw	r2,20(sp)
   44548:	b5400005 	stb	r21,0(r22)
   4454c:	15817926 	beq	r2,r22,44b34 <_dtoa_r+0x13c4>
   44550:	e00b883a 	mov	r5,fp
   44554:	000f883a 	mov	r7,zero
   44558:	01800284 	movi	r6,10
   4455c:	b809883a 	mov	r4,r23
   44560:	0046e6c0 	call	46e6c <__multadd>
   44564:	1039883a 	mov	fp,r2
   44568:	800b883a 	mov	r5,r16
   4456c:	000f883a 	mov	r7,zero
   44570:	01800284 	movi	r6,10
   44574:	b809883a 	mov	r4,r23
   44578:	84801f26 	beq	r16,r18,445f8 <_dtoa_r+0xe88>
   4457c:	0046e6c0 	call	46e6c <__multadd>
   44580:	900b883a 	mov	r5,r18
   44584:	000f883a 	mov	r7,zero
   44588:	01800284 	movi	r6,10
   4458c:	b809883a 	mov	r4,r23
   44590:	1021883a 	mov	r16,r2
   44594:	0046e6c0 	call	46e6c <__multadd>
   44598:	1025883a 	mov	r18,r2
   4459c:	982d883a 	mov	r22,r19
   445a0:	a00b883a 	mov	r5,r20
   445a4:	e009883a 	mov	r4,fp
   445a8:	00435740 	call	43574 <quorem>
   445ac:	800b883a 	mov	r5,r16
   445b0:	e009883a 	mov	r4,fp
   445b4:	102b883a 	mov	r21,r2
   445b8:	d8800615 	stw	r2,24(sp)
   445bc:	00477c40 	call	477c4 <__mcmp>
   445c0:	a00b883a 	mov	r5,r20
   445c4:	900d883a 	mov	r6,r18
   445c8:	b809883a 	mov	r4,r23
   445cc:	1023883a 	mov	r17,r2
   445d0:	004781c0 	call	4781c <__mdiff>
   445d4:	1027883a 	mov	r19,r2
   445d8:	10800317 	ldw	r2,12(r2)
   445dc:	ad400c04 	addi	r21,r21,48
   445e0:	980b883a 	mov	r5,r19
   445e4:	103fc526 	beq	r2,zero,444fc <_dtoa_r+0xd8c>
   445e8:	b809883a 	mov	r4,r23
   445ec:	0046e480 	call	46e48 <_Bfree>
   445f0:	00800044 	movi	r2,1
   445f4:	003fcb06 	br	44524 <_dtoa_r+0xdb4>
   445f8:	0046e6c0 	call	46e6c <__multadd>
   445fc:	1021883a 	mov	r16,r2
   44600:	1025883a 	mov	r18,r2
   44604:	003fe506 	br	4459c <_dtoa_r+0xe2c>
   44608:	d8800217 	ldw	r2,8(sp)
   4460c:	108000d0 	cmplti	r2,r2,3
   44610:	10003e26 	beq	r2,zero,4470c <_dtoa_r+0xf9c>
   44614:	d8800717 	ldw	r2,28(sp)
   44618:	103faa1e 	bne	r2,zero,444c4 <_dtoa_r+0xd54>
   4461c:	a00b883a 	mov	r5,r20
   44620:	e009883a 	mov	r4,fp
   44624:	00435740 	call	43574 <quorem>
   44628:	14c00c04 	addi	r19,r2,48
   4462c:	d8800117 	ldw	r2,4(sp)
   44630:	0023883a 	mov	r17,zero
   44634:	15400044 	addi	r21,r2,1
   44638:	14c00005 	stb	r19,0(r2)
   4463c:	d8800417 	ldw	r2,16(sp)
   44640:	10800044 	addi	r2,r2,1
   44644:	d8800415 	stw	r2,16(sp)
   44648:	003f0906 	br	44270 <_dtoa_r+0xb00>
   4464c:	a00b883a 	mov	r5,r20
   44650:	e009883a 	mov	r4,fp
   44654:	00477c40 	call	477c4 <__mcmp>
   44658:	103ee70e 	bge	r2,zero,441f8 <_dtoa_r+0xa88>
   4465c:	e00b883a 	mov	r5,fp
   44660:	000f883a 	mov	r7,zero
   44664:	01800284 	movi	r6,10
   44668:	b809883a 	mov	r4,r23
   4466c:	0046e6c0 	call	46e6c <__multadd>
   44670:	d8c00417 	ldw	r3,16(sp)
   44674:	1039883a 	mov	fp,r2
   44678:	d8800717 	ldw	r2,28(sp)
   4467c:	1d7fffc4 	addi	r21,r3,-1
   44680:	103f861e 	bne	r2,zero,4449c <_dtoa_r+0xd2c>
   44684:	d8800b17 	ldw	r2,44(sp)
   44688:	0081d20e 	bge	zero,r2,44dd4 <_dtoa_r+0x1664>
   4468c:	d8800515 	stw	r2,20(sp)
   44690:	003ee006 	br	44214 <_dtoa_r+0xaa4>
   44694:	00800174 	movhi	r2,5
   44698:	1007883a 	mov	r3,r2
   4469c:	18ff8c04 	addi	r3,r3,-464
   446a0:	00800174 	movhi	r2,5
   446a4:	d8c00115 	stw	r3,4(sp)
   446a8:	10bf8cc4 	addi	r2,r2,-461
   446ac:	003ded06 	br	43e64 <_dtoa_r+0x6f4>
   446b0:	00800044 	movi	r2,1
   446b4:	d8800715 	stw	r2,28(sp)
   446b8:	003f3406 	br	4438c <_dtoa_r+0xc1c>
   446bc:	983eb21e 	bne	r19,zero,44188 <_dtoa_r+0xa18>
   446c0:	00800434 	movhi	r2,16
   446c4:	10bfffc4 	addi	r2,r2,-1
   446c8:	8884703a 	and	r2,r17,r2
   446cc:	103eae1e 	bne	r2,zero,44188 <_dtoa_r+0xa18>
   446d0:	8c5ffc2c 	andhi	r17,r17,32752
   446d4:	883eac26 	beq	r17,zero,44188 <_dtoa_r+0xa18>
   446d8:	d8800617 	ldw	r2,24(sp)
   446dc:	b5800044 	addi	r22,r22,1
   446e0:	04400044 	movi	r17,1
   446e4:	10800044 	addi	r2,r2,1
   446e8:	d8800615 	stw	r2,24(sp)
   446ec:	003ea706 	br	4418c <_dtoa_r+0xa1c>
   446f0:	00800044 	movi	r2,1
   446f4:	d8800515 	stw	r2,20(sp)
   446f8:	d8801e15 	stw	r2,120(sp)
   446fc:	003f1b06 	br	4436c <_dtoa_r+0xbfc>
   44700:	d8800b17 	ldw	r2,44(sp)
   44704:	dd400415 	stw	r21,16(sp)
   44708:	d8800515 	stw	r2,20(sp)
   4470c:	d8800517 	ldw	r2,20(sp)
   44710:	103e081e 	bne	r2,zero,43f34 <_dtoa_r+0x7c4>
   44714:	a00b883a 	mov	r5,r20
   44718:	b809883a 	mov	r4,r23
   4471c:	000f883a 	mov	r7,zero
   44720:	01800144 	movi	r6,5
   44724:	0046e6c0 	call	46e6c <__multadd>
   44728:	100b883a 	mov	r5,r2
   4472c:	e009883a 	mov	r4,fp
   44730:	1029883a 	mov	r20,r2
   44734:	00477c40 	call	477c4 <__mcmp>
   44738:	00bdfe0e 	bge	zero,r2,43f34 <_dtoa_r+0x7c4>
   4473c:	d8c00117 	ldw	r3,4(sp)
   44740:	00800c44 	movi	r2,49
   44744:	18800005 	stb	r2,0(r3)
   44748:	d8800417 	ldw	r2,16(sp)
   4474c:	1d400044 	addi	r21,r3,1
   44750:	14400044 	addi	r17,r2,1
   44754:	a00b883a 	mov	r5,r20
   44758:	b809883a 	mov	r4,r23
   4475c:	0046e480 	call	46e48 <_Bfree>
   44760:	88800044 	addi	r2,r17,1
   44764:	d8800415 	stw	r2,16(sp)
   44768:	803ee11e 	bne	r16,zero,442f0 <_dtoa_r+0xb80>
   4476c:	003ee306 	br	442fc <_dtoa_r+0xb8c>
   44770:	b005883a 	mov	r2,r22
   44774:	003e6006 	br	440f8 <_dtoa_r+0x988>
   44778:	800b883a 	mov	r5,r16
   4477c:	900d883a 	mov	r6,r18
   44780:	b809883a 	mov	r4,r23
   44784:	004763c0 	call	4763c <__lshift>
   44788:	1021883a 	mov	r16,r2
   4478c:	003f4e06 	br	444c8 <_dtoa_r+0xd58>
   44790:	1529c83a 	sub	r20,r2,r20
   44794:	003e4906 	br	440bc <_dtoa_r+0x94c>
   44798:	dcc00c15 	stw	r19,48(sp)
   4479c:	8825883a 	mov	r18,r17
   447a0:	05400084 	movi	r21,2
   447a4:	003cdf06 	br	43b24 <_dtoa_r+0x3b4>
   447a8:	00800044 	movi	r2,1
   447ac:	003ead06 	br	44264 <_dtoa_r+0xaf4>
   447b0:	00800044 	movi	r2,1
   447b4:	d8800715 	stw	r2,28(sp)
   447b8:	003ca506 	br	43a50 <_dtoa_r+0x2e0>
   447bc:	1000021e 	bne	r2,zero,447c8 <_dtoa_r+0x1058>
   447c0:	98c0004c 	andi	r3,r19,1
   447c4:	183eb41e 	bne	r3,zero,44298 <_dtoa_r+0xb28>
   447c8:	2005883a 	mov	r2,r4
   447cc:	00000206 	br	447d8 <_dtoa_r+0x1068>
   447d0:	a8bfff83 	ldbu	r2,-2(r21)
   447d4:	182b883a 	mov	r21,r3
   447d8:	10803fcc 	andi	r2,r2,255
   447dc:	1080201c 	xori	r2,r2,128
   447e0:	10bfe004 	addi	r2,r2,-128
   447e4:	10800c18 	cmpnei	r2,r2,48
   447e8:	a8ffffc4 	addi	r3,r21,-1
   447ec:	103ff826 	beq	r2,zero,447d0 <_dtoa_r+0x1060>
   447f0:	003eb606 	br	442cc <_dtoa_r+0xb5c>
   447f4:	d8c00117 	ldw	r3,4(sp)
   447f8:	00800c44 	movi	r2,49
   447fc:	18800005 	stb	r2,0(r3)
   44800:	d8800417 	ldw	r2,16(sp)
   44804:	10800044 	addi	r2,r2,1
   44808:	d8800415 	stw	r2,16(sp)
   4480c:	003eaf06 	br	442cc <_dtoa_r+0xb5c>
   44810:	d8c00a17 	ldw	r3,40(sp)
   44814:	18011826 	beq	r3,zero,44c78 <_dtoa_r+0x1508>
   44818:	d8c00617 	ldw	r3,24(sp)
   4481c:	10810cc4 	addi	r2,r2,1075
   44820:	b0ad883a 	add	r22,r22,r2
   44824:	1885883a 	add	r2,r3,r2
   44828:	dd000817 	ldw	r20,32(sp)
   4482c:	1825883a 	mov	r18,r3
   44830:	d8800615 	stw	r2,24(sp)
   44834:	003e2806 	br	440d8 <_dtoa_r+0x968>
   44838:	a809883a 	mov	r4,r21
   4483c:	004d2740 	call	4d274 <__floatsidf>
   44840:	800d883a 	mov	r6,r16
   44844:	900f883a 	mov	r7,r18
   44848:	1009883a 	mov	r4,r2
   4484c:	180b883a 	mov	r5,r3
   44850:	004c2780 	call	4c278 <__muldf3>
   44854:	000d883a 	mov	r6,zero
   44858:	01d00734 	movhi	r7,16412
   4485c:	1009883a 	mov	r4,r2
   44860:	180b883a 	mov	r5,r3
   44864:	004b7380 	call	4b738 <__adddf3>
   44868:	1029883a 	mov	r20,r2
   4486c:	00bf3034 	movhi	r2,64704
   44870:	1885883a 	add	r2,r3,r2
   44874:	d8800c15 	stw	r2,48(sp)
   44878:	8009883a 	mov	r4,r16
   4487c:	900b883a 	mov	r5,r18
   44880:	000d883a 	mov	r6,zero
   44884:	01d00534 	movhi	r7,16404
   44888:	004c8ec0 	call	4c8ec <__subdf3>
   4488c:	dd400c17 	ldw	r21,48(sp)
   44890:	a00d883a 	mov	r6,r20
   44894:	1009883a 	mov	r4,r2
   44898:	a80f883a 	mov	r7,r21
   4489c:	180b883a 	mov	r5,r3
   448a0:	1025883a 	mov	r18,r2
   448a4:	1821883a 	mov	r16,r3
   448a8:	004c0a80 	call	4c0a8 <__gedf2>
   448ac:	00812f16 	blt	zero,r2,44d6c <_dtoa_r+0x15fc>
   448b0:	a9e0003c 	xorhi	r7,r21,32768
   448b4:	a00d883a 	mov	r6,r20
   448b8:	9009883a 	mov	r4,r18
   448bc:	800b883a 	mov	r5,r16
   448c0:	004c1900 	call	4c190 <__ledf2>
   448c4:	103d7d0e 	bge	r2,zero,43ebc <_dtoa_r+0x74c>
   448c8:	0029883a 	mov	r20,zero
   448cc:	0021883a 	mov	r16,zero
   448d0:	003d9806 	br	43f34 <_dtoa_r+0x7c4>
   448d4:	d9800817 	ldw	r6,32(sp)
   448d8:	e00b883a 	mov	r5,fp
   448dc:	b809883a 	mov	r4,r23
   448e0:	00474f40 	call	474f4 <__pow5mult>
   448e4:	1039883a 	mov	fp,r2
   448e8:	003e1e06 	br	44164 <_dtoa_r+0x9f4>
   448ec:	d8800417 	ldw	r2,16(sp)
   448f0:	1000ed26 	beq	r2,zero,44ca8 <_dtoa_r+0x1538>
   448f4:	00a9c83a 	sub	r20,zero,r2
   448f8:	a08003cc 	andi	r2,r20,15
   448fc:	100690fa 	slli	r3,r2,3
   44900:	00800174 	movhi	r2,5
   44904:	10bfca04 	addi	r2,r2,-216
   44908:	10c5883a 	add	r2,r2,r3
   4490c:	11800017 	ldw	r6,0(r2)
   44910:	11c00117 	ldw	r7,4(r2)
   44914:	a029d13a 	srai	r20,r20,4
   44918:	9809883a 	mov	r4,r19
   4491c:	880b883a 	mov	r5,r17
   44920:	004c2780 	call	4c278 <__muldf3>
   44924:	1021883a 	mov	r16,r2
   44928:	1825883a 	mov	r18,r3
   4492c:	a0013826 	beq	r20,zero,44e10 <_dtoa_r+0x16a0>
   44930:	02000174 	movhi	r8,5
   44934:	05400084 	movi	r21,2
   44938:	423fc004 	addi	r8,r8,-256
   4493c:	1009883a 	mov	r4,r2
   44940:	9805883a 	mov	r2,r19
   44944:	180b883a 	mov	r5,r3
   44948:	dc000c15 	stw	r16,48(sp)
   4494c:	8827883a 	mov	r19,r17
   44950:	0007883a 	mov	r3,zero
   44954:	a823883a 	mov	r17,r21
   44958:	4021883a 	mov	r16,r8
   4495c:	102b883a 	mov	r21,r2
   44960:	a180004c 	andi	r6,r20,1
   44964:	30000726 	beq	r6,zero,44984 <_dtoa_r+0x1214>
   44968:	81800017 	ldw	r6,0(r16)
   4496c:	81c00117 	ldw	r7,4(r16)
   44970:	8c400044 	addi	r17,r17,1
   44974:	004c2780 	call	4c278 <__muldf3>
   44978:	180b883a 	mov	r5,r3
   4497c:	1009883a 	mov	r4,r2
   44980:	00c00044 	movi	r3,1
   44984:	a029d07a 	srai	r20,r20,1
   44988:	84000204 	addi	r16,r16,8
   4498c:	a03ff41e 	bne	r20,zero,44960 <_dtoa_r+0x11f0>
   44990:	a805883a 	mov	r2,r21
   44994:	18c03fcc 	andi	r3,r3,255
   44998:	882b883a 	mov	r21,r17
   4499c:	dc000c17 	ldw	r16,48(sp)
   449a0:	9823883a 	mov	r17,r19
   449a4:	1027883a 	mov	r19,r2
   449a8:	183c7726 	beq	r3,zero,43b88 <_dtoa_r+0x418>
   449ac:	2021883a 	mov	r16,r4
   449b0:	2825883a 	mov	r18,r5
   449b4:	003c7406 	br	43b88 <_dtoa_r+0x418>
   449b8:	983eae1e 	bne	r19,zero,44474 <_dtoa_r+0xd04>
   449bc:	00800434 	movhi	r2,16
   449c0:	10bfffc4 	addi	r2,r2,-1
   449c4:	8884703a 	and	r2,r17,r2
   449c8:	103f4126 	beq	r2,zero,446d0 <_dtoa_r+0xf60>
   449cc:	003ea906 	br	44474 <_dtoa_r+0xd04>
   449d0:	9807883a 	mov	r3,r19
   449d4:	a827883a 	mov	r19,r21
   449d8:	182b883a 	mov	r21,r3
   449dc:	d8c00417 	ldw	r3,16(sp)
   449e0:	18c00044 	addi	r3,r3,1
   449e4:	d8c00415 	stw	r3,16(sp)
   449e8:	00800d0e 	bge	zero,r2,44a20 <_dtoa_r+0x12b0>
   449ec:	e00b883a 	mov	r5,fp
   449f0:	b809883a 	mov	r4,r23
   449f4:	01800044 	movi	r6,1
   449f8:	004763c0 	call	4763c <__lshift>
   449fc:	a00b883a 	mov	r5,r20
   44a00:	1009883a 	mov	r4,r2
   44a04:	1039883a 	mov	fp,r2
   44a08:	00477c40 	call	477c4 <__mcmp>
   44a0c:	0080df0e 	bge	zero,r2,44d8c <_dtoa_r+0x161c>
   44a10:	98c00e60 	cmpeqi	r3,r19,57
   44a14:	1800ce1e 	bne	r3,zero,44d50 <_dtoa_r+0x15e0>
   44a18:	d8800617 	ldw	r2,24(sp)
   44a1c:	14c00c44 	addi	r19,r2,49
   44a20:	8023883a 	mov	r17,r16
   44a24:	b4c00005 	stb	r19,0(r22)
   44a28:	9021883a 	mov	r16,r18
   44a2c:	003e2706 	br	442cc <_dtoa_r+0xb5c>
   44a30:	b82b883a 	mov	r21,r23
   44a34:	ddc00217 	ldw	r23,8(sp)
   44a38:	200d883a 	mov	r6,r4
   44a3c:	280f883a 	mov	r7,r5
   44a40:	004b7380 	call	4b738 <__adddf3>
   44a44:	180b883a 	mov	r5,r3
   44a48:	800d883a 	mov	r6,r16
   44a4c:	900f883a 	mov	r7,r18
   44a50:	1009883a 	mov	r4,r2
   44a54:	1823883a 	mov	r17,r3
   44a58:	1027883a 	mov	r19,r2
   44a5c:	004c0a80 	call	4c0a8 <__gedf2>
   44a60:	d8c00417 	ldw	r3,16(sp)
   44a64:	18c00044 	addi	r3,r3,1
   44a68:	d8c00415 	stw	r3,16(sp)
   44a6c:	00808c16 	blt	zero,r2,44ca0 <_dtoa_r+0x1530>
   44a70:	800d883a 	mov	r6,r16
   44a74:	900f883a 	mov	r7,r18
   44a78:	9809883a 	mov	r4,r19
   44a7c:	880b883a 	mov	r5,r17
   44a80:	004c0280 	call	4c028 <__eqdf2>
   44a84:	1000021e 	bne	r2,zero,44a90 <_dtoa_r+0x1320>
   44a88:	ad40004c 	andi	r21,r21,1
   44a8c:	a800841e 	bne	r21,zero,44ca0 <_dtoa_r+0x1530>
   44a90:	a02b883a 	mov	r21,r20
   44a94:	003e1906 	br	442fc <_dtoa_r+0xb8c>
   44a98:	81400117 	ldw	r5,4(r16)
   44a9c:	b809883a 	mov	r4,r23
   44aa0:	0046da40 	call	46da4 <_Balloc>
   44aa4:	1023883a 	mov	r17,r2
   44aa8:	1000f326 	beq	r2,zero,44e78 <_dtoa_r+0x1708>
   44aac:	81800417 	ldw	r6,16(r16)
   44ab0:	81400304 	addi	r5,r16,12
   44ab4:	11000304 	addi	r4,r2,12
   44ab8:	31800084 	addi	r6,r6,2
   44abc:	300c90ba 	slli	r6,r6,2
   44ac0:	0046a880 	call	46a88 <memcpy>
   44ac4:	01800044 	movi	r6,1
   44ac8:	880b883a 	mov	r5,r17
   44acc:	b809883a 	mov	r4,r23
   44ad0:	004763c0 	call	4763c <__lshift>
   44ad4:	1025883a 	mov	r18,r2
   44ad8:	003e7d06 	br	444d0 <_dtoa_r+0xd60>
   44adc:	e00b883a 	mov	r5,fp
   44ae0:	b809883a 	mov	r4,r23
   44ae4:	00474f40 	call	474f4 <__pow5mult>
   44ae8:	1039883a 	mov	fp,r2
   44aec:	003d9d06 	br	44164 <_dtoa_r+0x9f4>
   44af0:	d8800617 	ldw	r2,24(sp)
   44af4:	d8c00517 	ldw	r3,20(sp)
   44af8:	10e5c83a 	sub	r18,r2,r3
   44afc:	003d7606 	br	440d8 <_dtoa_r+0x968>
   44b00:	d8c00417 	ldw	r3,16(sp)
   44b04:	9805883a 	mov	r2,r19
   44b08:	a827883a 	mov	r19,r21
   44b0c:	18c00044 	addi	r3,r3,1
   44b10:	102b883a 	mov	r21,r2
   44b14:	d8c00415 	stw	r3,16(sp)
   44b18:	98800e58 	cmpnei	r2,r19,57
   44b1c:	10008c26 	beq	r2,zero,44d50 <_dtoa_r+0x15e0>
   44b20:	98c00044 	addi	r3,r19,1
   44b24:	8023883a 	mov	r17,r16
   44b28:	b0c00005 	stb	r3,0(r22)
   44b2c:	9021883a 	mov	r16,r18
   44b30:	003de606 	br	442cc <_dtoa_r+0xb5c>
   44b34:	9805883a 	mov	r2,r19
   44b38:	a827883a 	mov	r19,r21
   44b3c:	102b883a 	mov	r21,r2
   44b40:	d8800417 	ldw	r2,16(sp)
   44b44:	8023883a 	mov	r17,r16
   44b48:	9021883a 	mov	r16,r18
   44b4c:	10800044 	addi	r2,r2,1
   44b50:	d8800415 	stw	r2,16(sp)
   44b54:	003dc606 	br	44270 <_dtoa_r+0xb00>
   44b58:	d9400c17 	ldw	r5,48(sp)
   44b5c:	a009883a 	mov	r4,r20
   44b60:	004c2780 	call	4c278 <__muldf3>
   44b64:	d9800d17 	ldw	r6,52(sp)
   44b68:	d9400117 	ldw	r5,4(sp)
   44b6c:	d9001017 	ldw	r4,64(sp)
   44b70:	d8800c15 	stw	r2,48(sp)
   44b74:	d8c00d15 	stw	r3,52(sp)
   44b78:	29000005 	stb	r4,0(r5)
   44b7c:	31000058 	cmpnei	r4,r6,1
   44b80:	29a9883a 	add	r20,r5,r6
   44b84:	2000a026 	beq	r4,zero,44e08 <_dtoa_r+0x1698>
   44b88:	dc400e15 	stw	r17,56(sp)
   44b8c:	8009883a 	mov	r4,r16
   44b90:	900b883a 	mov	r5,r18
   44b94:	a823883a 	mov	r17,r21
   44b98:	000d883a 	mov	r6,zero
   44b9c:	01d00934 	movhi	r7,16420
   44ba0:	004c2780 	call	4c278 <__muldf3>
   44ba4:	180b883a 	mov	r5,r3
   44ba8:	1009883a 	mov	r4,r2
   44bac:	1825883a 	mov	r18,r3
   44bb0:	102b883a 	mov	r21,r2
   44bb4:	004d1f40 	call	4d1f4 <__fixdfsi>
   44bb8:	1009883a 	mov	r4,r2
   44bbc:	1021883a 	mov	r16,r2
   44bc0:	004d2740 	call	4d274 <__floatsidf>
   44bc4:	a809883a 	mov	r4,r21
   44bc8:	900b883a 	mov	r5,r18
   44bcc:	100d883a 	mov	r6,r2
   44bd0:	180f883a 	mov	r7,r3
   44bd4:	8c400044 	addi	r17,r17,1
   44bd8:	84000c04 	addi	r16,r16,48
   44bdc:	004c8ec0 	call	4c8ec <__subdf3>
   44be0:	8c3fffc5 	stb	r16,-1(r17)
   44be4:	1009883a 	mov	r4,r2
   44be8:	180b883a 	mov	r5,r3
   44bec:	a47fea1e 	bne	r20,r17,44b98 <_dtoa_r+0x1428>
   44bf0:	dc400e17 	ldw	r17,56(sp)
   44bf4:	1021883a 	mov	r16,r2
   44bf8:	1825883a 	mov	r18,r3
   44bfc:	d9000c17 	ldw	r4,48(sp)
   44c00:	d9400d17 	ldw	r5,52(sp)
   44c04:	000d883a 	mov	r6,zero
   44c08:	01cff834 	movhi	r7,16352
   44c0c:	004b7380 	call	4b738 <__adddf3>
   44c10:	800d883a 	mov	r6,r16
   44c14:	900f883a 	mov	r7,r18
   44c18:	1009883a 	mov	r4,r2
   44c1c:	180b883a 	mov	r5,r3
   44c20:	004c1900 	call	4c190 <__ledf2>
   44c24:	10005416 	blt	r2,zero,44d78 <_dtoa_r+0x1608>
   44c28:	d9800c17 	ldw	r6,48(sp)
   44c2c:	d9c00d17 	ldw	r7,52(sp)
   44c30:	0009883a 	mov	r4,zero
   44c34:	014ff834 	movhi	r5,16352
   44c38:	004c8ec0 	call	4c8ec <__subdf3>
   44c3c:	800d883a 	mov	r6,r16
   44c40:	900f883a 	mov	r7,r18
   44c44:	1009883a 	mov	r4,r2
   44c48:	180b883a 	mov	r5,r3
   44c4c:	004c0a80 	call	4c0a8 <__gedf2>
   44c50:	00bc9a0e 	bge	zero,r2,43ebc <_dtoa_r+0x74c>
   44c54:	a0bfffc7 	ldb	r2,-1(r20)
   44c58:	a02b883a 	mov	r21,r20
   44c5c:	a53fffc4 	addi	r20,r20,-1
   44c60:	10800c20 	cmpeqi	r2,r2,48
   44c64:	103ffb1e 	bne	r2,zero,44c54 <_dtoa_r+0x14e4>
   44c68:	d8801117 	ldw	r2,68(sp)
   44c6c:	10800044 	addi	r2,r2,1
   44c70:	d8800415 	stw	r2,16(sp)
   44c74:	003da106 	br	442fc <_dtoa_r+0xb8c>
   44c78:	d8c01217 	ldw	r3,72(sp)
   44c7c:	d9000617 	ldw	r4,24(sp)
   44c80:	00800d84 	movi	r2,54
   44c84:	10c5c83a 	sub	r2,r2,r3
   44c88:	b0ad883a 	add	r22,r22,r2
   44c8c:	2085883a 	add	r2,r4,r2
   44c90:	dd000817 	ldw	r20,32(sp)
   44c94:	2025883a 	mov	r18,r4
   44c98:	d8800615 	stw	r2,24(sp)
   44c9c:	003d0e06 	br	440d8 <_dtoa_r+0x968>
   44ca0:	d9000117 	ldw	r4,4(sp)
   44ca4:	003c4b06 	br	43dd4 <_dtoa_r+0x664>
   44ca8:	9821883a 	mov	r16,r19
   44cac:	8825883a 	mov	r18,r17
   44cb0:	05400084 	movi	r21,2
   44cb4:	003bb406 	br	43b88 <_dtoa_r+0x418>
   44cb8:	d8800517 	ldw	r2,20(sp)
   44cbc:	103ede26 	beq	r2,zero,44838 <_dtoa_r+0x10c8>
   44cc0:	d8800b17 	ldw	r2,44(sp)
   44cc4:	00bc7d0e 	bge	zero,r2,43ebc <_dtoa_r+0x74c>
   44cc8:	900b883a 	mov	r5,r18
   44ccc:	8009883a 	mov	r4,r16
   44cd0:	000d883a 	mov	r6,zero
   44cd4:	01d00934 	movhi	r7,16420
   44cd8:	004c2780 	call	4c278 <__muldf3>
   44cdc:	a9000044 	addi	r4,r21,1
   44ce0:	1021883a 	mov	r16,r2
   44ce4:	1825883a 	mov	r18,r3
   44ce8:	004d2740 	call	4d274 <__floatsidf>
   44cec:	800d883a 	mov	r6,r16
   44cf0:	900f883a 	mov	r7,r18
   44cf4:	1009883a 	mov	r4,r2
   44cf8:	180b883a 	mov	r5,r3
   44cfc:	004c2780 	call	4c278 <__muldf3>
   44d00:	1009883a 	mov	r4,r2
   44d04:	000d883a 	mov	r6,zero
   44d08:	01d00734 	movhi	r7,16412
   44d0c:	180b883a 	mov	r5,r3
   44d10:	004b7380 	call	4b738 <__adddf3>
   44d14:	d9000417 	ldw	r4,16(sp)
   44d18:	1029883a 	mov	r20,r2
   44d1c:	00bf3034 	movhi	r2,64704
   44d20:	1887883a 	add	r3,r3,r2
   44d24:	d8800b17 	ldw	r2,44(sp)
   44d28:	213fffc4 	addi	r4,r4,-1
   44d2c:	d9001115 	stw	r4,68(sp)
   44d30:	d8c00c15 	stw	r3,48(sp)
   44d34:	d8800d15 	stw	r2,52(sp)
   44d38:	003bb106 	br	43c00 <_dtoa_r+0x490>
   44d3c:	d8800417 	ldw	r2,16(sp)
   44d40:	00c00c44 	movi	r3,49
   44d44:	10800044 	addi	r2,r2,1
   44d48:	d8800415 	stw	r2,16(sp)
   44d4c:	003c2a06 	br	43df8 <_dtoa_r+0x688>
   44d50:	00800e44 	movi	r2,57
   44d54:	8023883a 	mov	r17,r16
   44d58:	d9400117 	ldw	r5,4(sp)
   44d5c:	b0800005 	stb	r2,0(r22)
   44d60:	9021883a 	mov	r16,r18
   44d64:	01000e44 	movi	r4,57
   44d68:	003d5006 	br	442ac <_dtoa_r+0xb3c>
   44d6c:	0029883a 	mov	r20,zero
   44d70:	0021883a 	mov	r16,zero
   44d74:	003e7106 	br	4473c <_dtoa_r+0xfcc>
   44d78:	d8801117 	ldw	r2,68(sp)
   44d7c:	d9000117 	ldw	r4,4(sp)
   44d80:	10800044 	addi	r2,r2,1
   44d84:	d8800415 	stw	r2,16(sp)
   44d88:	003c1206 	br	43dd4 <_dtoa_r+0x664>
   44d8c:	103f241e 	bne	r2,zero,44a20 <_dtoa_r+0x12b0>
   44d90:	9880004c 	andi	r2,r19,1
   44d94:	103f1e1e 	bne	r2,zero,44a10 <_dtoa_r+0x12a0>
   44d98:	003f2106 	br	44a20 <_dtoa_r+0x12b0>
   44d9c:	d8801117 	ldw	r2,68(sp)
   44da0:	ddc00d17 	ldw	r23,52(sp)
   44da4:	10800044 	addi	r2,r2,1
   44da8:	d8800415 	stw	r2,16(sp)
   44dac:	003d5306 	br	442fc <_dtoa_r+0xb8c>
   44db0:	d8c00417 	ldw	r3,16(sp)
   44db4:	a8800e60 	cmpeqi	r2,r21,57
   44db8:	a827883a 	mov	r19,r21
   44dbc:	18c00044 	addi	r3,r3,1
   44dc0:	d8c00415 	stw	r3,16(sp)
   44dc4:	b5400044 	addi	r21,r22,1
   44dc8:	103fe11e 	bne	r2,zero,44d50 <_dtoa_r+0x15e0>
   44dcc:	047f1216 	blt	zero,r17,44a18 <_dtoa_r+0x12a8>
   44dd0:	003f1306 	br	44a20 <_dtoa_r+0x12b0>
   44dd4:	d8800217 	ldw	r2,8(sp)
   44dd8:	108000c8 	cmpgei	r2,r2,3
   44ddc:	103e481e 	bne	r2,zero,44700 <_dtoa_r+0xf90>
   44de0:	dd400415 	stw	r21,16(sp)
   44de4:	003e0d06 	br	4461c <_dtoa_r+0xeac>
   44de8:	d8800217 	ldw	r2,8(sp)
   44dec:	108000c8 	cmpgei	r2,r2,3
   44df0:	103e431e 	bne	r2,zero,44700 <_dtoa_r+0xf90>
   44df4:	d8800b17 	ldw	r2,44(sp)
   44df8:	dd400415 	stw	r21,16(sp)
   44dfc:	d8800515 	stw	r2,20(sp)
   44e00:	04bdb10e 	bge	zero,r18,444c8 <_dtoa_r+0xd58>
   44e04:	003e5c06 	br	44778 <_dtoa_r+0x1008>
   44e08:	a829883a 	mov	r20,r21
   44e0c:	003f7b06 	br	44bfc <_dtoa_r+0x148c>
   44e10:	05400084 	movi	r21,2
   44e14:	003b5c06 	br	43b88 <_dtoa_r+0x418>
   44e18:	01c00174 	movhi	r7,5
   44e1c:	01000174 	movhi	r4,5
   44e20:	39ff9004 	addi	r7,r7,-448
   44e24:	000d883a 	mov	r6,zero
   44e28:	01406a84 	movi	r5,426
   44e2c:	213f9504 	addi	r4,r4,-428
   44e30:	0049bd80 	call	49bd8 <__assert_func>
   44e34:	000b883a 	mov	r5,zero
   44e38:	003b1506 	br	43a90 <_dtoa_r+0x320>
   44e3c:	b8001115 	stw	zero,68(r23)
   44e40:	000b883a 	mov	r5,zero
   44e44:	b809883a 	mov	r4,r23
   44e48:	0046da40 	call	46da4 <_Balloc>
   44e4c:	d8800115 	stw	r2,4(sp)
   44e50:	103ff126 	beq	r2,zero,44e18 <_dtoa_r+0x16a8>
   44e54:	d8800117 	ldw	r2,4(sp)
   44e58:	d8001e15 	stw	zero,120(sp)
   44e5c:	b8801015 	stw	r2,64(r23)
   44e60:	00bfffc4 	movi	r2,-1
   44e64:	d8800515 	stw	r2,20(sp)
   44e68:	d8800b15 	stw	r2,44(sp)
   44e6c:	00800044 	movi	r2,1
   44e70:	d8800715 	stw	r2,28(sp)
   44e74:	003c1106 	br	43ebc <_dtoa_r+0x74c>
   44e78:	01c00174 	movhi	r7,5
   44e7c:	01000174 	movhi	r4,5
   44e80:	39ff9004 	addi	r7,r7,-448
   44e84:	000d883a 	mov	r6,zero
   44e88:	0140ba84 	movi	r5,746
   44e8c:	213f9504 	addi	r4,r4,-428
   44e90:	0049bd80 	call	49bd8 <__assert_func>
   44e94:	00800174 	movhi	r2,5
   44e98:	10bf8d04 	addi	r2,r2,-460
   44e9c:	d8800115 	stw	r2,4(sp)
   44ea0:	003a6506 	br	43838 <_dtoa_r+0xc8>
   44ea4:	18c00120 	cmpeqi	r3,r3,4
   44ea8:	183cc91e 	bne	r3,zero,441d0 <_dtoa_r+0xa60>
   44eac:	00c00f04 	movi	r3,60
   44eb0:	1885c83a 	sub	r2,r3,r2
   44eb4:	003cc106 	br	441bc <_dtoa_r+0xa4c>

00044eb8 <__sflush_r>:
   44eb8:	2880030b 	ldhu	r2,12(r5)
   44ebc:	defffb04 	addi	sp,sp,-20
   44ec0:	dcc00315 	stw	r19,12(sp)
   44ec4:	dc000015 	stw	r16,0(sp)
   44ec8:	dfc00415 	stw	ra,16(sp)
   44ecc:	dc800215 	stw	r18,8(sp)
   44ed0:	dc400115 	stw	r17,4(sp)
   44ed4:	10c0020c 	andi	r3,r2,8
   44ed8:	2821883a 	mov	r16,r5
   44edc:	2027883a 	mov	r19,r4
   44ee0:	18003f1e 	bne	r3,zero,44fe0 <__sflush_r+0x128>
   44ee4:	28c00117 	ldw	r3,4(r5)
   44ee8:	10820014 	ori	r2,r2,2048
   44eec:	2880030d 	sth	r2,12(r5)
   44ef0:	00c0550e 	bge	zero,r3,45048 <__sflush_r+0x190>
   44ef4:	82000a17 	ldw	r8,40(r16)
   44ef8:	40003126 	beq	r8,zero,44fc0 <__sflush_r+0x108>
   44efc:	9c400017 	ldw	r17,0(r19)
   44f00:	1104000c 	andi	r4,r2,4096
   44f04:	98000015 	stw	zero,0(r19)
   44f08:	81400717 	ldw	r5,28(r16)
   44f0c:	1007883a 	mov	r3,r2
   44f10:	2000521e 	bne	r4,zero,4505c <__sflush_r+0x1a4>
   44f14:	01c00044 	movi	r7,1
   44f18:	000d883a 	mov	r6,zero
   44f1c:	9809883a 	mov	r4,r19
   44f20:	403ee83a 	callr	r8
   44f24:	10ffffd8 	cmpnei	r3,r2,-1
   44f28:	18005826 	beq	r3,zero,4508c <__sflush_r+0x1d4>
   44f2c:	80c0030b 	ldhu	r3,12(r16)
   44f30:	82000a17 	ldw	r8,40(r16)
   44f34:	81400717 	ldw	r5,28(r16)
   44f38:	18c0010c 	andi	r3,r3,4
   44f3c:	18000626 	beq	r3,zero,44f58 <__sflush_r+0xa0>
   44f40:	81000117 	ldw	r4,4(r16)
   44f44:	80c00c17 	ldw	r3,48(r16)
   44f48:	1105c83a 	sub	r2,r2,r4
   44f4c:	18000226 	beq	r3,zero,44f58 <__sflush_r+0xa0>
   44f50:	80c00f17 	ldw	r3,60(r16)
   44f54:	10c5c83a 	sub	r2,r2,r3
   44f58:	100d883a 	mov	r6,r2
   44f5c:	000f883a 	mov	r7,zero
   44f60:	9809883a 	mov	r4,r19
   44f64:	403ee83a 	callr	r8
   44f68:	10ffffd8 	cmpnei	r3,r2,-1
   44f6c:	18003d1e 	bne	r3,zero,45064 <__sflush_r+0x1ac>
   44f70:	99000017 	ldw	r4,0(r19)
   44f74:	80c0030b 	ldhu	r3,12(r16)
   44f78:	20004e26 	beq	r4,zero,450b4 <__sflush_r+0x1fc>
   44f7c:	21400760 	cmpeqi	r5,r4,29
   44f80:	2800021e 	bne	r5,zero,44f8c <__sflush_r+0xd4>
   44f84:	210005a0 	cmpeqi	r4,r4,22
   44f88:	20002c26 	beq	r4,zero,4503c <__sflush_r+0x184>
   44f8c:	80800417 	ldw	r2,16(r16)
   44f90:	18fdffcc 	andi	r3,r3,63487
   44f94:	80c0030d 	sth	r3,12(r16)
   44f98:	80000115 	stw	zero,4(r16)
   44f9c:	80800015 	stw	r2,0(r16)
   44fa0:	81400c17 	ldw	r5,48(r16)
   44fa4:	9c400015 	stw	r17,0(r19)
   44fa8:	28000526 	beq	r5,zero,44fc0 <__sflush_r+0x108>
   44fac:	80801004 	addi	r2,r16,64
   44fb0:	28800226 	beq	r5,r2,44fbc <__sflush_r+0x104>
   44fb4:	9809883a 	mov	r4,r19
   44fb8:	004567c0 	call	4567c <_free_r>
   44fbc:	80000c15 	stw	zero,48(r16)
   44fc0:	0005883a 	mov	r2,zero
   44fc4:	dfc00417 	ldw	ra,16(sp)
   44fc8:	dcc00317 	ldw	r19,12(sp)
   44fcc:	dc800217 	ldw	r18,8(sp)
   44fd0:	dc400117 	ldw	r17,4(sp)
   44fd4:	dc000017 	ldw	r16,0(sp)
   44fd8:	dec00504 	addi	sp,sp,20
   44fdc:	f800283a 	ret
   44fe0:	2c800417 	ldw	r18,16(r5)
   44fe4:	903ff626 	beq	r18,zero,44fc0 <__sflush_r+0x108>
   44fe8:	2c400017 	ldw	r17,0(r5)
   44fec:	108000cc 	andi	r2,r2,3
   44ff0:	2c800015 	stw	r18,0(r5)
   44ff4:	8ca3c83a 	sub	r17,r17,r18
   44ff8:	1000161e 	bne	r2,zero,45054 <__sflush_r+0x19c>
   44ffc:	28800517 	ldw	r2,20(r5)
   45000:	80800215 	stw	r2,8(r16)
   45004:	04400316 	blt	zero,r17,45014 <__sflush_r+0x15c>
   45008:	003fed06 	br	44fc0 <__sflush_r+0x108>
   4500c:	90a5883a 	add	r18,r18,r2
   45010:	047feb0e 	bge	zero,r17,44fc0 <__sflush_r+0x108>
   45014:	80800917 	ldw	r2,36(r16)
   45018:	81400717 	ldw	r5,28(r16)
   4501c:	880f883a 	mov	r7,r17
   45020:	900d883a 	mov	r6,r18
   45024:	9809883a 	mov	r4,r19
   45028:	103ee83a 	callr	r2
   4502c:	88a3c83a 	sub	r17,r17,r2
   45030:	00bff616 	blt	zero,r2,4500c <__sflush_r+0x154>
   45034:	80c0030b 	ldhu	r3,12(r16)
   45038:	00bfffc4 	movi	r2,-1
   4503c:	18c01014 	ori	r3,r3,64
   45040:	80c0030d 	sth	r3,12(r16)
   45044:	003fdf06 	br	44fc4 <__sflush_r+0x10c>
   45048:	28c00f17 	ldw	r3,60(r5)
   4504c:	00ffa916 	blt	zero,r3,44ef4 <__sflush_r+0x3c>
   45050:	003fdb06 	br	44fc0 <__sflush_r+0x108>
   45054:	0005883a 	mov	r2,zero
   45058:	003fe906 	br	45000 <__sflush_r+0x148>
   4505c:	80801417 	ldw	r2,80(r16)
   45060:	003fb506 	br	44f38 <__sflush_r+0x80>
   45064:	80c0030b 	ldhu	r3,12(r16)
   45068:	81000417 	ldw	r4,16(r16)
   4506c:	80000115 	stw	zero,4(r16)
   45070:	197dffcc 	andi	r5,r3,63487
   45074:	8140030d 	sth	r5,12(r16)
   45078:	81000015 	stw	r4,0(r16)
   4507c:	18c4000c 	andi	r3,r3,4096
   45080:	183fc726 	beq	r3,zero,44fa0 <__sflush_r+0xe8>
   45084:	80801415 	stw	r2,80(r16)
   45088:	003fc506 	br	44fa0 <__sflush_r+0xe8>
   4508c:	98c00017 	ldw	r3,0(r19)
   45090:	183fa626 	beq	r3,zero,44f2c <__sflush_r+0x74>
   45094:	19000760 	cmpeqi	r4,r3,29
   45098:	20000e1e 	bne	r4,zero,450d4 <__sflush_r+0x21c>
   4509c:	18c00598 	cmpnei	r3,r3,22
   450a0:	18000c26 	beq	r3,zero,450d4 <__sflush_r+0x21c>
   450a4:	80c0030b 	ldhu	r3,12(r16)
   450a8:	18c01014 	ori	r3,r3,64
   450ac:	80c0030d 	sth	r3,12(r16)
   450b0:	003fc406 	br	44fc4 <__sflush_r+0x10c>
   450b4:	81000417 	ldw	r4,16(r16)
   450b8:	197dffcc 	andi	r5,r3,63487
   450bc:	8140030d 	sth	r5,12(r16)
   450c0:	80000115 	stw	zero,4(r16)
   450c4:	81000015 	stw	r4,0(r16)
   450c8:	18c4000c 	andi	r3,r3,4096
   450cc:	183fb426 	beq	r3,zero,44fa0 <__sflush_r+0xe8>
   450d0:	003fec06 	br	45084 <__sflush_r+0x1cc>
   450d4:	9c400015 	stw	r17,0(r19)
   450d8:	0005883a 	mov	r2,zero
   450dc:	003fb906 	br	44fc4 <__sflush_r+0x10c>

000450e0 <_fflush_r>:
   450e0:	defffd04 	addi	sp,sp,-12
   450e4:	dc000115 	stw	r16,4(sp)
   450e8:	dfc00215 	stw	ra,8(sp)
   450ec:	2021883a 	mov	r16,r4
   450f0:	20000226 	beq	r4,zero,450fc <_fflush_r+0x1c>
   450f4:	20800e17 	ldw	r2,56(r4)
   450f8:	10000726 	beq	r2,zero,45118 <_fflush_r+0x38>
   450fc:	2880030f 	ldh	r2,12(r5)
   45100:	10000a1e 	bne	r2,zero,4512c <_fflush_r+0x4c>
   45104:	0005883a 	mov	r2,zero
   45108:	dfc00217 	ldw	ra,8(sp)
   4510c:	dc000117 	ldw	r16,4(sp)
   45110:	dec00304 	addi	sp,sp,12
   45114:	f800283a 	ret
   45118:	d9400015 	stw	r5,0(sp)
   4511c:	00455180 	call	45518 <__sinit>
   45120:	d9400017 	ldw	r5,0(sp)
   45124:	2880030f 	ldh	r2,12(r5)
   45128:	103ff626 	beq	r2,zero,45104 <_fflush_r+0x24>
   4512c:	8009883a 	mov	r4,r16
   45130:	dfc00217 	ldw	ra,8(sp)
   45134:	dc000117 	ldw	r16,4(sp)
   45138:	dec00304 	addi	sp,sp,12
   4513c:	0044eb81 	jmpi	44eb8 <__sflush_r>

00045140 <fflush>:
   45140:	20001726 	beq	r4,zero,451a0 <fflush+0x60>
   45144:	00800174 	movhi	r2,5
   45148:	200b883a 	mov	r5,r4
   4514c:	1107ad17 	ldw	r4,7860(r2)
   45150:	20000226 	beq	r4,zero,4515c <fflush+0x1c>
   45154:	20800e17 	ldw	r2,56(r4)
   45158:	10000526 	beq	r2,zero,45170 <fflush+0x30>
   4515c:	2880030f 	ldh	r2,12(r5)
   45160:	1000021e 	bne	r2,zero,4516c <fflush+0x2c>
   45164:	0005883a 	mov	r2,zero
   45168:	f800283a 	ret
   4516c:	0044eb81 	jmpi	44eb8 <__sflush_r>
   45170:	defffd04 	addi	sp,sp,-12
   45174:	d9400115 	stw	r5,4(sp)
   45178:	d9000015 	stw	r4,0(sp)
   4517c:	dfc00215 	stw	ra,8(sp)
   45180:	00455180 	call	45518 <__sinit>
   45184:	d9400117 	ldw	r5,4(sp)
   45188:	d9000017 	ldw	r4,0(sp)
   4518c:	2880030f 	ldh	r2,12(r5)
   45190:	10000826 	beq	r2,zero,451b4 <fflush+0x74>
   45194:	dfc00217 	ldw	ra,8(sp)
   45198:	dec00304 	addi	sp,sp,12
   4519c:	0044eb81 	jmpi	44eb8 <__sflush_r>
   451a0:	00800174 	movhi	r2,5
   451a4:	1107ac17 	ldw	r4,7856(r2)
   451a8:	01400134 	movhi	r5,4
   451ac:	29543804 	addi	r5,r5,20704
   451b0:	0045ec81 	jmpi	45ec8 <_fwalk_reent>
   451b4:	0005883a 	mov	r2,zero
   451b8:	dfc00217 	ldw	ra,8(sp)
   451bc:	dec00304 	addi	sp,sp,12
   451c0:	f800283a 	ret

000451c4 <__fp_lock>:
   451c4:	0005883a 	mov	r2,zero
   451c8:	f800283a 	ret

000451cc <_cleanup_r>:
   451cc:	01400174 	movhi	r5,5
   451d0:	29677104 	addi	r5,r5,-25148
   451d4:	0045ec81 	jmpi	45ec8 <_fwalk_reent>

000451d8 <__fp_unlock>:
   451d8:	0005883a 	mov	r2,zero
   451dc:	f800283a 	ret

000451e0 <__sinit.part.0>:
   451e0:	00c00134 	movhi	r3,4
   451e4:	20800117 	ldw	r2,4(r4)
   451e8:	18d47304 	addi	r3,r3,20940
   451ec:	20c00f15 	stw	r3,60(r4)
   451f0:	2140bb04 	addi	r5,r4,748
   451f4:	00c000c4 	movi	r3,3
   451f8:	20c0b915 	stw	r3,740(r4)
   451fc:	2140ba15 	stw	r5,744(r4)
   45200:	2000b815 	stw	zero,736(r4)
   45204:	10001705 	stb	zero,92(r2)
   45208:	10001745 	stb	zero,93(r2)
   4520c:	10001785 	stb	zero,94(r2)
   45210:	100017c5 	stb	zero,95(r2)
   45214:	10001805 	stb	zero,96(r2)
   45218:	10001845 	stb	zero,97(r2)
   4521c:	10001885 	stb	zero,98(r2)
   45220:	100018c5 	stb	zero,99(r2)
   45224:	00c00104 	movi	r3,4
   45228:	10c00315 	stw	r3,12(r2)
   4522c:	02000174 	movhi	r8,5
   45230:	20c00217 	ldw	r3,8(r4)
   45234:	01c00174 	movhi	r7,5
   45238:	01800174 	movhi	r6,5
   4523c:	01400174 	movhi	r5,5
   45240:	42213004 	addi	r8,r8,-31552
   45244:	39e14704 	addi	r7,r7,-31460
   45248:	31a16704 	addi	r6,r6,-31332
   4524c:	29617e04 	addi	r5,r5,-31240
   45250:	02400074 	movhi	r9,1
   45254:	10001915 	stw	zero,100(r2)
   45258:	10000015 	stw	zero,0(r2)
   4525c:	10000115 	stw	zero,4(r2)
   45260:	10000215 	stw	zero,8(r2)
   45264:	10000415 	stw	zero,16(r2)
   45268:	10000515 	stw	zero,20(r2)
   4526c:	10000615 	stw	zero,24(r2)
   45270:	10800715 	stw	r2,28(r2)
   45274:	12000815 	stw	r8,32(r2)
   45278:	11c00915 	stw	r7,36(r2)
   4527c:	11800a15 	stw	r6,40(r2)
   45280:	11400b15 	stw	r5,44(r2)
   45284:	4a400284 	addi	r9,r9,10
   45288:	1a400315 	stw	r9,12(r3)
   4528c:	18001915 	stw	zero,100(r3)
   45290:	18000015 	stw	zero,0(r3)
   45294:	18000115 	stw	zero,4(r3)
   45298:	18000215 	stw	zero,8(r3)
   4529c:	18000415 	stw	zero,16(r3)
   452a0:	18001705 	stb	zero,92(r3)
   452a4:	18001745 	stb	zero,93(r3)
   452a8:	18001785 	stb	zero,94(r3)
   452ac:	180017c5 	stb	zero,95(r3)
   452b0:	18001805 	stb	zero,96(r3)
   452b4:	18001845 	stb	zero,97(r3)
   452b8:	18001885 	stb	zero,98(r3)
   452bc:	180018c5 	stb	zero,99(r3)
   452c0:	20800317 	ldw	r2,12(r4)
   452c4:	024000b4 	movhi	r9,2
   452c8:	18000515 	stw	zero,20(r3)
   452cc:	18000615 	stw	zero,24(r3)
   452d0:	18c00715 	stw	r3,28(r3)
   452d4:	1a000815 	stw	r8,32(r3)
   452d8:	19c00915 	stw	r7,36(r3)
   452dc:	19800a15 	stw	r6,40(r3)
   452e0:	19400b15 	stw	r5,44(r3)
   452e4:	4a400484 	addi	r9,r9,18
   452e8:	10001915 	stw	zero,100(r2)
   452ec:	10000015 	stw	zero,0(r2)
   452f0:	10000115 	stw	zero,4(r2)
   452f4:	10000215 	stw	zero,8(r2)
   452f8:	12400315 	stw	r9,12(r2)
   452fc:	10000415 	stw	zero,16(r2)
   45300:	10000515 	stw	zero,20(r2)
   45304:	10000615 	stw	zero,24(r2)
   45308:	10001705 	stb	zero,92(r2)
   4530c:	10001745 	stb	zero,93(r2)
   45310:	10001785 	stb	zero,94(r2)
   45314:	100017c5 	stb	zero,95(r2)
   45318:	10001805 	stb	zero,96(r2)
   4531c:	10001845 	stb	zero,97(r2)
   45320:	10001885 	stb	zero,98(r2)
   45324:	100018c5 	stb	zero,99(r2)
   45328:	10800715 	stw	r2,28(r2)
   4532c:	12000815 	stw	r8,32(r2)
   45330:	11c00915 	stw	r7,36(r2)
   45334:	11800a15 	stw	r6,40(r2)
   45338:	11400b15 	stw	r5,44(r2)
   4533c:	00800044 	movi	r2,1
   45340:	20800e15 	stw	r2,56(r4)
   45344:	f800283a 	ret

00045348 <__sfmoreglue>:
   45348:	defffc04 	addi	sp,sp,-16
   4534c:	dc400115 	stw	r17,4(sp)
   45350:	2c7fffc4 	addi	r17,r5,-1
   45354:	8c401a24 	muli	r17,r17,104
   45358:	dc800215 	stw	r18,8(sp)
   4535c:	2825883a 	mov	r18,r5
   45360:	89401d04 	addi	r5,r17,116
   45364:	dc000015 	stw	r16,0(sp)
   45368:	dfc00315 	stw	ra,12(sp)
   4536c:	00461d80 	call	461d8 <_malloc_r>
   45370:	1021883a 	mov	r16,r2
   45374:	10000726 	beq	r2,zero,45394 <__sfmoreglue+0x4c>
   45378:	11000304 	addi	r4,r2,12
   4537c:	10000015 	stw	zero,0(r2)
   45380:	14800115 	stw	r18,4(r2)
   45384:	11000215 	stw	r4,8(r2)
   45388:	89801a04 	addi	r6,r17,104
   4538c:	000b883a 	mov	r5,zero
   45390:	0046cb40 	call	46cb4 <memset>
   45394:	8005883a 	mov	r2,r16
   45398:	dfc00317 	ldw	ra,12(sp)
   4539c:	dc800217 	ldw	r18,8(sp)
   453a0:	dc400117 	ldw	r17,4(sp)
   453a4:	dc000017 	ldw	r16,0(sp)
   453a8:	dec00404 	addi	sp,sp,16
   453ac:	f800283a 	ret

000453b0 <__sfp>:
   453b0:	defffb04 	addi	sp,sp,-20
   453b4:	00800174 	movhi	r2,5
   453b8:	dc000015 	stw	r16,0(sp)
   453bc:	1407ac17 	ldw	r16,7856(r2)
   453c0:	dc400115 	stw	r17,4(sp)
   453c4:	dfc00415 	stw	ra,16(sp)
   453c8:	80800e17 	ldw	r2,56(r16)
   453cc:	dcc00315 	stw	r19,12(sp)
   453d0:	dc800215 	stw	r18,8(sp)
   453d4:	2023883a 	mov	r17,r4
   453d8:	10003126 	beq	r2,zero,454a0 <__sfp+0xf0>
   453dc:	8100ba17 	ldw	r4,744(r16)
   453e0:	8140b917 	ldw	r5,740(r16)
   453e4:	04c00104 	movi	r19,4
   453e8:	8400b804 	addi	r16,r16,736
   453ec:	297fffc4 	addi	r5,r5,-1
   453f0:	2800050e 	bge	r5,zero,45408 <__sfp+0x58>
   453f4:	00002406 	br	45488 <__sfp+0xd8>
   453f8:	297fffc4 	addi	r5,r5,-1
   453fc:	28bfffd8 	cmpnei	r2,r5,-1
   45400:	21001a04 	addi	r4,r4,104
   45404:	10002026 	beq	r2,zero,45488 <__sfp+0xd8>
   45408:	2080030f 	ldh	r2,12(r4)
   4540c:	103ffa1e 	bne	r2,zero,453f8 <__sfp+0x48>
   45410:	00bffff4 	movhi	r2,65535
   45414:	10800044 	addi	r2,r2,1
   45418:	20001915 	stw	zero,100(r4)
   4541c:	20000015 	stw	zero,0(r4)
   45420:	20000115 	stw	zero,4(r4)
   45424:	20000215 	stw	zero,8(r4)
   45428:	20800315 	stw	r2,12(r4)
   4542c:	20000415 	stw	zero,16(r4)
   45430:	20000515 	stw	zero,20(r4)
   45434:	20000615 	stw	zero,24(r4)
   45438:	20001705 	stb	zero,92(r4)
   4543c:	20001745 	stb	zero,93(r4)
   45440:	20001785 	stb	zero,94(r4)
   45444:	200017c5 	stb	zero,95(r4)
   45448:	20001805 	stb	zero,96(r4)
   4544c:	20001845 	stb	zero,97(r4)
   45450:	20001885 	stb	zero,98(r4)
   45454:	200018c5 	stb	zero,99(r4)
   45458:	20000c15 	stw	zero,48(r4)
   4545c:	20000d15 	stw	zero,52(r4)
   45460:	20001115 	stw	zero,68(r4)
   45464:	20001215 	stw	zero,72(r4)
   45468:	2005883a 	mov	r2,r4
   4546c:	dfc00417 	ldw	ra,16(sp)
   45470:	dcc00317 	ldw	r19,12(sp)
   45474:	dc800217 	ldw	r18,8(sp)
   45478:	dc400117 	ldw	r17,4(sp)
   4547c:	dc000017 	ldw	r16,0(sp)
   45480:	dec00504 	addi	sp,sp,20
   45484:	f800283a 	ret
   45488:	80800017 	ldw	r2,0(r16)
   4548c:	10000726 	beq	r2,zero,454ac <__sfp+0xfc>
   45490:	11000217 	ldw	r4,8(r2)
   45494:	11400117 	ldw	r5,4(r2)
   45498:	1021883a 	mov	r16,r2
   4549c:	003fd306 	br	453ec <__sfp+0x3c>
   454a0:	8009883a 	mov	r4,r16
   454a4:	00451e00 	call	451e0 <__sinit.part.0>
   454a8:	003fcc06 	br	453dc <__sfp+0x2c>
   454ac:	01406b04 	movi	r5,428
   454b0:	8809883a 	mov	r4,r17
   454b4:	00461d80 	call	461d8 <_malloc_r>
   454b8:	1025883a 	mov	r18,r2
   454bc:	10000c26 	beq	r2,zero,454f0 <__sfp+0x140>
   454c0:	11000304 	addi	r4,r2,12
   454c4:	11000215 	stw	r4,8(r2)
   454c8:	000b883a 	mov	r5,zero
   454cc:	10000015 	stw	zero,0(r2)
   454d0:	14c00115 	stw	r19,4(r2)
   454d4:	01806804 	movi	r6,416
   454d8:	0046cb40 	call	46cb4 <memset>
   454dc:	1009883a 	mov	r4,r2
   454e0:	84800015 	stw	r18,0(r16)
   454e4:	014000c4 	movi	r5,3
   454e8:	9021883a 	mov	r16,r18
   454ec:	003fc606 	br	45408 <__sfp+0x58>
   454f0:	80000015 	stw	zero,0(r16)
   454f4:	00800304 	movi	r2,12
   454f8:	88800015 	stw	r2,0(r17)
   454fc:	0009883a 	mov	r4,zero
   45500:	003fd906 	br	45468 <__sfp+0xb8>

00045504 <_cleanup>:
   45504:	00800174 	movhi	r2,5
   45508:	1107ac17 	ldw	r4,7856(r2)
   4550c:	01400174 	movhi	r5,5
   45510:	29677104 	addi	r5,r5,-25148
   45514:	0045ec81 	jmpi	45ec8 <_fwalk_reent>

00045518 <__sinit>:
   45518:	20800e17 	ldw	r2,56(r4)
   4551c:	10000126 	beq	r2,zero,45524 <__sinit+0xc>
   45520:	f800283a 	ret
   45524:	00451e01 	jmpi	451e0 <__sinit.part.0>

00045528 <__sfp_lock_acquire>:
   45528:	f800283a 	ret

0004552c <__sfp_lock_release>:
   4552c:	f800283a 	ret

00045530 <__sinit_lock_acquire>:
   45530:	f800283a 	ret

00045534 <__sinit_lock_release>:
   45534:	f800283a 	ret

00045538 <__fp_lock_all>:
   45538:	00800174 	movhi	r2,5
   4553c:	1107ad17 	ldw	r4,7860(r2)
   45540:	01400134 	movhi	r5,4
   45544:	29547104 	addi	r5,r5,20932
   45548:	0045e301 	jmpi	45e30 <_fwalk>

0004554c <__fp_unlock_all>:
   4554c:	00800174 	movhi	r2,5
   45550:	1107ad17 	ldw	r4,7860(r2)
   45554:	01400134 	movhi	r5,4
   45558:	29547604 	addi	r5,r5,20952
   4555c:	0045e301 	jmpi	45e30 <_fwalk>

00045560 <_malloc_trim_r>:
   45560:	defffb04 	addi	sp,sp,-20
   45564:	dcc00315 	stw	r19,12(sp)
   45568:	04c00174 	movhi	r19,5
   4556c:	dc800215 	stw	r18,8(sp)
   45570:	dc400115 	stw	r17,4(sp)
   45574:	dc000015 	stw	r16,0(sp)
   45578:	dfc00415 	stw	ra,16(sp)
   4557c:	2821883a 	mov	r16,r5
   45580:	9cc1cd04 	addi	r19,r19,1844
   45584:	2025883a 	mov	r18,r4
   45588:	004daf80 	call	4daf8 <__malloc_lock>
   4558c:	98800217 	ldw	r2,8(r19)
   45590:	14400117 	ldw	r17,4(r2)
   45594:	00bfff04 	movi	r2,-4
   45598:	88a2703a 	and	r17,r17,r2
   4559c:	8c21c83a 	sub	r16,r17,r16
   455a0:	8403fbc4 	addi	r16,r16,4079
   455a4:	8020d33a 	srli	r16,r16,12
   455a8:	843fffc4 	addi	r16,r16,-1
   455ac:	8020933a 	slli	r16,r16,12
   455b0:	80840008 	cmpgei	r2,r16,4096
   455b4:	10000626 	beq	r2,zero,455d0 <_malloc_trim_r+0x70>
   455b8:	000b883a 	mov	r5,zero
   455bc:	9009883a 	mov	r4,r18
   455c0:	00484680 	call	48468 <_sbrk_r>
   455c4:	98c00217 	ldw	r3,8(r19)
   455c8:	1c47883a 	add	r3,r3,r17
   455cc:	10c00a26 	beq	r2,r3,455f8 <_malloc_trim_r+0x98>
   455d0:	9009883a 	mov	r4,r18
   455d4:	004db1c0 	call	4db1c <__malloc_unlock>
   455d8:	0005883a 	mov	r2,zero
   455dc:	dfc00417 	ldw	ra,16(sp)
   455e0:	dcc00317 	ldw	r19,12(sp)
   455e4:	dc800217 	ldw	r18,8(sp)
   455e8:	dc400117 	ldw	r17,4(sp)
   455ec:	dc000017 	ldw	r16,0(sp)
   455f0:	dec00504 	addi	sp,sp,20
   455f4:	f800283a 	ret
   455f8:	040bc83a 	sub	r5,zero,r16
   455fc:	9009883a 	mov	r4,r18
   45600:	00484680 	call	48468 <_sbrk_r>
   45604:	10bfffd8 	cmpnei	r2,r2,-1
   45608:	10000d26 	beq	r2,zero,45640 <_malloc_trim_r+0xe0>
   4560c:	00800174 	movhi	r2,5
   45610:	108ebc17 	ldw	r2,15088(r2)
   45614:	98c00217 	ldw	r3,8(r19)
   45618:	8c23c83a 	sub	r17,r17,r16
   4561c:	8c400054 	ori	r17,r17,1
   45620:	1421c83a 	sub	r16,r2,r16
   45624:	1c400115 	stw	r17,4(r3)
   45628:	00800174 	movhi	r2,5
   4562c:	9009883a 	mov	r4,r18
   45630:	140ebc15 	stw	r16,15088(r2)
   45634:	004db1c0 	call	4db1c <__malloc_unlock>
   45638:	00800044 	movi	r2,1
   4563c:	003fe706 	br	455dc <_malloc_trim_r+0x7c>
   45640:	000b883a 	mov	r5,zero
   45644:	9009883a 	mov	r4,r18
   45648:	00484680 	call	48468 <_sbrk_r>
   4564c:	99000217 	ldw	r4,8(r19)
   45650:	1107c83a 	sub	r3,r2,r4
   45654:	19400410 	cmplti	r5,r3,16
   45658:	283fdd1e 	bne	r5,zero,455d0 <_malloc_trim_r+0x70>
   4565c:	01400174 	movhi	r5,5
   45660:	2947ae17 	ldw	r5,7864(r5)
   45664:	18c00054 	ori	r3,r3,1
   45668:	20c00115 	stw	r3,4(r4)
   4566c:	1145c83a 	sub	r2,r2,r5
   45670:	01400174 	movhi	r5,5
   45674:	288ebc15 	stw	r2,15088(r5)
   45678:	003fd506 	br	455d0 <_malloc_trim_r+0x70>

0004567c <_free_r>:
   4567c:	28004f26 	beq	r5,zero,457bc <_free_r+0x140>
   45680:	defffd04 	addi	sp,sp,-12
   45684:	dc400115 	stw	r17,4(sp)
   45688:	dc000015 	stw	r16,0(sp)
   4568c:	2023883a 	mov	r17,r4
   45690:	2821883a 	mov	r16,r5
   45694:	dfc00215 	stw	ra,8(sp)
   45698:	004daf80 	call	4daf8 <__malloc_lock>
   4569c:	81ffff17 	ldw	r7,-4(r16)
   456a0:	00bfff84 	movi	r2,-2
   456a4:	80fffe04 	addi	r3,r16,-8
   456a8:	3884703a 	and	r2,r7,r2
   456ac:	01000174 	movhi	r4,5
   456b0:	188d883a 	add	r6,r3,r2
   456b4:	2101cd04 	addi	r4,r4,1844
   456b8:	31400117 	ldw	r5,4(r6)
   456bc:	22000217 	ldw	r8,8(r4)
   456c0:	027fff04 	movi	r9,-4
   456c4:	2a4a703a 	and	r5,r5,r9
   456c8:	41806426 	beq	r8,r6,4585c <_free_r+0x1e0>
   456cc:	31400115 	stw	r5,4(r6)
   456d0:	39c0004c 	andi	r7,r7,1
   456d4:	3151883a 	add	r8,r6,r5
   456d8:	3800281e 	bne	r7,zero,4577c <_free_r+0x100>
   456dc:	82bffe17 	ldw	r10,-8(r16)
   456e0:	42000117 	ldw	r8,4(r8)
   456e4:	01c00174 	movhi	r7,5
   456e8:	1a87c83a 	sub	r3,r3,r10
   456ec:	1a400217 	ldw	r9,8(r3)
   456f0:	39c1cf04 	addi	r7,r7,1852
   456f4:	1285883a 	add	r2,r2,r10
   456f8:	4200004c 	andi	r8,r8,1
   456fc:	49c04c26 	beq	r9,r7,45830 <_free_r+0x1b4>
   45700:	1a800317 	ldw	r10,12(r3)
   45704:	4a800315 	stw	r10,12(r9)
   45708:	52400215 	stw	r9,8(r10)
   4570c:	40007126 	beq	r8,zero,458d4 <_free_r+0x258>
   45710:	11400054 	ori	r5,r2,1
   45714:	19400115 	stw	r5,4(r3)
   45718:	30800015 	stw	r2,0(r6)
   4571c:	11408028 	cmpgeui	r5,r2,512
   45720:	28002c1e 	bne	r5,zero,457d4 <_free_r+0x158>
   45724:	100ad0fa 	srli	r5,r2,3
   45728:	100cd17a 	srli	r6,r2,5
   4572c:	00800044 	movi	r2,1
   45730:	29400044 	addi	r5,r5,1
   45734:	280a90fa 	slli	r5,r5,3
   45738:	21c00117 	ldw	r7,4(r4)
   4573c:	1184983a 	sll	r2,r2,r6
   45740:	214b883a 	add	r5,r4,r5
   45744:	29800017 	ldw	r6,0(r5)
   45748:	11c4b03a 	or	r2,r2,r7
   4574c:	29fffe04 	addi	r7,r5,-8
   45750:	19c00315 	stw	r7,12(r3)
   45754:	19800215 	stw	r6,8(r3)
   45758:	20800115 	stw	r2,4(r4)
   4575c:	28c00015 	stw	r3,0(r5)
   45760:	30c00315 	stw	r3,12(r6)
   45764:	8809883a 	mov	r4,r17
   45768:	dfc00217 	ldw	ra,8(sp)
   4576c:	dc400117 	ldw	r17,4(sp)
   45770:	dc000017 	ldw	r16,0(sp)
   45774:	dec00304 	addi	sp,sp,12
   45778:	004db1c1 	jmpi	4db1c <__malloc_unlock>
   4577c:	41c00117 	ldw	r7,4(r8)
   45780:	39c0004c 	andi	r7,r7,1
   45784:	38000e1e 	bne	r7,zero,457c0 <_free_r+0x144>
   45788:	01c00174 	movhi	r7,5
   4578c:	1145883a 	add	r2,r2,r5
   45790:	39c1cf04 	addi	r7,r7,1852
   45794:	31400217 	ldw	r5,8(r6)
   45798:	12400054 	ori	r9,r2,1
   4579c:	1891883a 	add	r8,r3,r2
   457a0:	29c05226 	beq	r5,r7,458ec <_free_r+0x270>
   457a4:	31800317 	ldw	r6,12(r6)
   457a8:	29800315 	stw	r6,12(r5)
   457ac:	31400215 	stw	r5,8(r6)
   457b0:	1a400115 	stw	r9,4(r3)
   457b4:	40800015 	stw	r2,0(r8)
   457b8:	003fd806 	br	4571c <_free_r+0xa0>
   457bc:	f800283a 	ret
   457c0:	11400054 	ori	r5,r2,1
   457c4:	817fff15 	stw	r5,-4(r16)
   457c8:	30800015 	stw	r2,0(r6)
   457cc:	11408028 	cmpgeui	r5,r2,512
   457d0:	283fd426 	beq	r5,zero,45724 <_free_r+0xa8>
   457d4:	100ad27a 	srli	r5,r2,9
   457d8:	29800168 	cmpgeui	r6,r5,5
   457dc:	3000341e 	bne	r6,zero,458b0 <_free_r+0x234>
   457e0:	100ad1ba 	srli	r5,r2,6
   457e4:	29800e44 	addi	r6,r5,57
   457e8:	300c90fa 	slli	r6,r6,3
   457ec:	29c00e04 	addi	r7,r5,56
   457f0:	218d883a 	add	r6,r4,r6
   457f4:	31400017 	ldw	r5,0(r6)
   457f8:	31bffe04 	addi	r6,r6,-8
   457fc:	31404226 	beq	r6,r5,45908 <_free_r+0x28c>
   45800:	01ffff04 	movi	r7,-4
   45804:	29000117 	ldw	r4,4(r5)
   45808:	21c8703a 	and	r4,r4,r7
   4580c:	1100022e 	bgeu	r2,r4,45818 <_free_r+0x19c>
   45810:	29400217 	ldw	r5,8(r5)
   45814:	317ffb1e 	bne	r6,r5,45804 <_free_r+0x188>
   45818:	29800317 	ldw	r6,12(r5)
   4581c:	19800315 	stw	r6,12(r3)
   45820:	19400215 	stw	r5,8(r3)
   45824:	30c00215 	stw	r3,8(r6)
   45828:	28c00315 	stw	r3,12(r5)
   4582c:	003fcd06 	br	45764 <_free_r+0xe8>
   45830:	40004d1e 	bne	r8,zero,45968 <_free_r+0x2ec>
   45834:	31000317 	ldw	r4,12(r6)
   45838:	31800217 	ldw	r6,8(r6)
   4583c:	2885883a 	add	r2,r5,r2
   45840:	11400054 	ori	r5,r2,1
   45844:	31000315 	stw	r4,12(r6)
   45848:	21800215 	stw	r6,8(r4)
   4584c:	19400115 	stw	r5,4(r3)
   45850:	1887883a 	add	r3,r3,r2
   45854:	18800015 	stw	r2,0(r3)
   45858:	003fc206 	br	45764 <_free_r+0xe8>
   4585c:	39c0004c 	andi	r7,r7,1
   45860:	1145883a 	add	r2,r2,r5
   45864:	3800071e 	bne	r7,zero,45884 <_free_r+0x208>
   45868:	81fffe17 	ldw	r7,-8(r16)
   4586c:	19c7c83a 	sub	r3,r3,r7
   45870:	19400317 	ldw	r5,12(r3)
   45874:	19800217 	ldw	r6,8(r3)
   45878:	11c5883a 	add	r2,r2,r7
   4587c:	31400315 	stw	r5,12(r6)
